(dp0
S'word_num'
p1
I5824
sS'user_num'
p2
I1429
sS'interaction_num'
p3
I10245
sS'max_sentence_word_length'
p4
cnumpy.core.multiarray
scalar
p5
(cnumpy
dtype
p6
(S'i8'
p7
I0
I1
tp8
Rp9
(I3
S'<'
p10
NNNI-1
I-1
I0
tp11
bS'%\x00\x00\x00\x00\x00\x00\x00'
p12
tp13
Rp14
sS'time_bin_number'
p15
I1000
sS'max_sentence_length'
p16
I136
sS'item_num'
p17
I900
sS'max_interaction_length'
p18
I42
s.