(dp0
S'270'
p1
S'speaker'
p2
sS'271'
p3
S'system'
p4
sS'272'
p5
S'woofer'
p6
sS'273'
p7
S'compression'
p8
sS'274'
p9
S'driver'
p10
sS'275'
p11
S'primary'
p12
sS'276'
p13
S'behringer'
p14
sS'277'
p15
S'improved'
p16
sS'278'
p17
S'combination'
p18
sS'279'
p19
S'plastic'
p20
sS'2143'
p21
S'synthetic'
p22
sS'2142'
p23
S'adjuster'
p24
sS'3519'
p25
S'pluses'
p26
sS'3518'
p27
S'dava'
p28
sS'3513'
p29
S'integrity'
p30
sS'3512'
p31
S'nearby'
p32
sS'3511'
p33
S'displays'
p34
sS'3510'
p35
S'logical'
p36
sS'3517'
p37
S'mood'
p38
sS'3516'
p39
S'iiis'
p40
sS'3515'
p41
S'grippy'
p42
sS'3514'
p43
S'admirably'
p44
sS'2688'
p45
S'ratchet'
p46
sS'2689'
p47
S'screwdriver'
p48
sS'2684'
p49
S'depot'
p50
sS'2685'
p51
S'drill'
p52
sS'2686'
p53
S'pilot'
p54
sS'2687'
p55
S'mistake'
p56
sS'2680'
p57
S'prized'
p58
sS'2681'
p59
S'granted'
p60
sS'2682'
p61
S'hanging'
p62
sS'2683'
p63
S'clapton'
p64
sS'99'
p65
S'mentioned'
p66
sS'98'
p67
S'amp'
p68
sS'91'
p69
S'installing'
p70
sS'90'
p71
S'peg'
p72
sS'93'
p73
S'hesitant'
p74
sS'92'
p75
S'build'
p76
sS'95'
p77
S'locking'
p78
sS'94'
p79
S'buy'
p80
sS'97'
p81
S'rig'
p82
sS'96'
p83
S'glad'
p84
sS'1177'
p85
S'nicest'
p86
sS'1176'
p87
S'nasty'
p88
sS'1175'
p89
S'runs'
p90
sS'1174'
p91
S'ring'
p92
sS'1173'
p93
S'reduced'
p94
sS'1172'
p95
S'alternate'
p96
sS'1171'
p97
S'sharp'
p98
sS'1170'
p99
S'slip'
p100
sS'1179'
p101
S'connectors'
p102
sS'1178'
p103
S'shake'
p104
sS'876'
p105
S'wait'
p106
sS'877'
p107
S'overpriced'
p108
sS'3432'
p109
S'ballads'
p110
sS'623'
p111
S'slack'
p112
sS'875'
p113
S'goodness'
p114
sS'622'
p115
S'cut'
p116
sS'872'
p117
S'coffee'
p118
sS'1225'
p119
S'voice'
p120
sS'3435'
p121
S'sequences'
p122
sS'620'
p123
S'eyes'
p124
sS'870'
p125
S'weird'
p126
sS'627'
p127
S'hour'
p128
sS'871'
p129
S'fancy'
p130
sS'626'
p131
S'tuned'
p132
sS'4592'
p133
S'xm8500'
p134
sS'625'
p135
S'figure'
p136
sS'2036'
p137
S'20-'
p138
sS'624'
p139
S'snap'
p140
sS'4590'
p141
S'looser'
p142
sS'4591'
p143
S'thirty'
p144
sS'4596'
p145
S'smoothly'
p146
sS'4849'
p147
S'satin'
p148
sS'4594'
p149
S'awsome'
p150
sS'4595'
p151
S'sliders'
p152
sS'2749'
p153
S'ruining'
p154
sS'4845'
p155
S'shock-mount'
p156
sS'4598'
p157
S'whistle'
p158
sS'4599'
p159
S'stationary'
p160
sS'4734'
p161
S'processed'
p162
sS'4735'
p163
S"mic'ing"
p164
sS'2039'
p165
S'cranked'
p166
sS'4843'
p167
S'asap'
p168
sS'4738'
p169
S'club'
p170
sS'4739'
p171
S'ohm'
p172
sS'393'
p173
S'soft'
p174
sS'392'
p175
S'amount'
p176
sS'391'
p177
S'review'
p178
sS'390'
p179
S'invest'
p180
sS'397'
p181
S'jr'
p182
sS'396'
p183
S'sing'
p184
sS'395'
p185
S'care'
p186
sS'394'
p187
S'handsome'
p188
sS'399'
p189
S'lugging'
p190
sS'398'
p191
S'tired'
p192
sS'2309'
p193
S'lacking'
p194
sS'2308'
p195
S'laying'
p196
sS'4729'
p197
S'driven'
p198
sS'4728'
p199
S'optimized'
p200
sS'2301'
p201
S'floors'
p202
sS'2300'
p203
S'carpet'
p204
sS'2303'
p205
S'comfort'
p206
sS'2302'
p207
S'projects'
p208
sS'2305'
p209
S'mediocre'
p210
sS'2304'
p211
S'1/4'
p212
sS'2307'
p213
S'karaoke'
p214
sS'2306'
p215
S'back-up'
p216
sS'3748'
p217
S'closet'
p218
sS'3749'
p219
S'needle'
p220
sS'3746'
p221
S'view'
p222
sS'3747'
p223
S'digging'
p224
sS'3744'
p225
S'accomodate'
p226
sS'3745'
p227
S'magnetic'
p228
sS'3742'
p229
S'ice'
p230
sS'3743'
p231
S'cap'
p232
sS'3740'
p233
S'guide'
p234
sS'3741'
p235
S'spinning'
p236
sS'4620'
p237
S'planned'
p238
sS'4621'
p239
S'bucket'
p240
sS'4622'
p241
S're-tune'
p242
sS'4623'
p243
S'dies'
p244
sS'4624'
p245
S'handling'
p246
sS'4625'
p247
S'questions'
p248
sS'4626'
p249
S'ping'
p250
sS'4627'
p251
S'dozen'
p252
sS'4628'
p253
S'ensemble'
p254
sS'4629'
p255
S'sprung'
p256
sS'179'
p257
S'loud'
p258
sS'178'
p259
S'apartment'
p260
sS'177'
p261
S'live'
p262
sS'176'
p263
S'replacing'
p264
sS'175'
p265
S'5'
p266
sS'174'
p267
S'cat'
p268
sS'173'
p269
S'cable'
p270
sS'172'
p271
S'durable'
p272
sS'171'
p273
S'steel'
p274
sS'170'
p275
S'personally'
p276
sS'1768'
p277
S'american'
p278
sS'1769'
p279
S'dog'
p280
sS'1762'
p281
S'incorrect'
p282
sS'1763'
p283
S'5/8'
p284
sS'1760'
p285
S'picture'
p286
sS'1761'
p287
S'listing'
p288
sS'1766'
p289
S'connecting'
p290
sS'1767'
p291
S'cheers'
p292
sS'1764'
p293
S'threads'
p294
sS'1765'
p295
S'plan'
p296
sS'692'
p297
S'type'
p298
sS'693'
p299
S'windscreen'
p300
sS'690'
p301
S'dot'
p302
sS'691'
p303
S'foam'
p304
sS'696'
p305
S'recorded'
p306
sS'697'
p307
S'shorter'
p308
sS'694'
p309
S'm1'
p310
sS'695'
p311
S'tear'
p312
sS'698'
p313
S'mics'
p314
sS'699'
p315
S'purchase'
p316
sS'1548'
p317
S'unbalanced'
p318
sS'1549'
p319
S'frequency'
p320
sS'5618'
p321
S'ratios'
p322
sS'5619'
p323
S'weigh'
p324
sS'5612'
p325
S'shrill'
p326
sS'5613'
p327
S'foil'
p328
sS'5610'
p329
S'rockers'
p330
sS'5611'
p331
S'ext'
p332
sS'5616'
p333
S'222'
p334
sS'5617'
p335
S'dc9'
p336
sS'5614'
p337
S'opt'
p338
sS'5615'
p339
S'bread'
p340
sS'3580'
p341
S'tied'
p342
sS'258'
p343
S'purposes'
p344
sS'259'
p345
S'sense'
p346
sS'252'
p347
S'champ'
p348
sS'253'
p349
S'xd'
p350
sS'250'
p351
S'plug'
p352
sS'251'
p353
S'super'
p354
sS'256'
p355
S'noticed'
p356
sS'257'
p357
S'designed'
p358
sS'254'
p359
S'electric'
p360
sS'255'
p361
S'amplifier'
p362
sS'4665'
p363
S'experiences'
p364
sS'3689'
p365
S'span'
p366
sS'3688'
p367
S'heaven'
p368
sS'3683'
p369
S'shimmering'
p370
sS'3682'
p371
S'single-coil'
p372
sS'3681'
p373
S'current'
p374
sS'3680'
p375
S'flawless'
p376
sS'3687'
p377
S'lace'
p378
sS'3686'
p379
S'2014'
p380
sS'3685'
p381
S'street'
p382
sS'3684'
p383
S'seymour'
p384
sS'2518'
p385
S'label'
p386
sS'2519'
p387
S'forewarned'
p388
sS'2514'
p389
S'fingerboards'
p390
sS'2515'
p391
S'bottle'
p392
sS'2516'
p393
S'applicator'
p394
sS'2517'
p395
S'valve'
p396
sS'2510'
p397
S'sections'
p398
sS'2511'
p399
S'lemon'
p400
sS'2512'
p401
S'cleaning'
p402
sS'2513'
p403
S'rosewood'
p404
sS'3531'
p405
S'pristine'
p406
sS'3530'
p407
S'success'
p408
sS'3533'
p409
S'operating'
p410
sS'3532'
p411
S'irig'
p412
sS'3535'
p413
S'operation'
p414
sS'3534'
p415
S'successful'
p416
sS'3537'
p417
S'straplock'
p418
sS'3536'
p419
S'headstocks'
p420
sS'5054'
p421
S'labs'
p422
sS'3538'
p423
S'schallers'
p424
sS'5056'
p425
S'tea'
p426
sS'5057'
p427
S'breakup'
p428
sS'5050'
p429
S'sucker'
p430
sS'5051'
p431
S'bodied'
p432
sS'5052'
p433
S'daisy'
p434
sS'5053'
p435
S'dang'
p436
sS'1159'
p437
S'supple'
p438
sS'1158'
p439
S'excuse'
p440
sS'1155'
p441
S'picking'
p442
sS'1154'
p443
S'protecting'
p444
sS'1157'
p445
S'stated'
p446
sS'1156'
p447
S'lovely'
p448
sS'1151'
p449
S'stratocaster'
p450
sS'1150'
p451
S'mim'
p452
sS'1153'
p453
S'white'
p454
sS'1152'
p455
S'maple'
p456
sS'4299'
p457
S'mexican'
p458
sS'4298'
p459
S'visually'
p460
sS'4295'
p461
S'contacting'
p462
sS'4294'
p463
S'retailers'
p464
sS'4297'
p465
S'rollers'
p466
sS'4296'
p467
S'guides'
p468
sS'4291'
p469
S'reality'
p470
sS'4290'
p471
S'retaining'
p472
sS'4293'
p473
S'sites'
p474
sS'4292'
p475
S'touches'
p476
sS'4749'
p477
S'relevant'
p478
sS'4748'
p479
S'progress'
p480
sS'1324'
p481
S'octave'
p482
sS'4743'
p483
S'orchestra'
p484
sS'4742'
p485
S'212'
p486
sS'4741'
p487
S'insulation'
p488
sS'4740'
p489
S'beefy'
p490
sS'4747'
p491
S'g-dec'
p492
sS'4746'
p493
S'march'
p494
sS'4745'
p495
S'cranking'
p496
sS'4744'
p497
S'equalizer'
p498
sS'2183'
p499
S'dynamic'
p500
sS'2182'
p501
S'systems'
p502
sS'2181'
p503
S'delighted'
p504
sS'2180'
p505
S'80'
p506
sS'2187'
p507
S'moisture'
p508
sS'2186'
p509
S'susceptible'
p510
sS'2185'
p511
S'pictures'
p512
sS'2184'
p513
S'condenser'
p514
sS'4606'
p515
S'buffed'
p516
sS'4607'
p517
S'graphtech'
p518
sS'2189'
p519
S'cardioid'
p520
sS'2188'
p521
S'vocals'
p522
sS'4602'
p523
S'annoyed'
p524
sS'4603'
p525
S'configurations'
p526
sS'4600'
p527
S'camera'
p528
sS'4601'
p529
S'drunk'
p530
sS'151'
p531
S'tuner'
p532
sS'150'
p533
S'extra'
p534
sS'153'
p535
S'knob'
p536
sS'152'
p537
S'button'
p538
sS'155'
p539
S'boost'
p540
sS'154'
p541
S"o'clock"
p542
sS'157'
p543
S'channels'
p544
sS'156'
p545
S'change'
p546
sS'159'
p547
S'fuzz'
p548
sS'158'
p549
S'crunch'
p550
sS'2727'
p551
S'cushion'
p552
sS'2726'
p553
S'considerable'
p554
sS'2725'
p555
S'backrest'
p556
sS'2724'
p557
S'headline'
p558
sS'2723'
p559
S'hint'
p560
sS'2722'
p561
S'inevitably'
p562
sS'2721'
p563
S'noon'
p564
sS'2720'
p565
S'morning'
p566
sS'2729'
p567
S'welded'
p568
sS'2728'
p569
S'adjusting'
p570
sS'818'
p571
S'survive'
p572
sS'819'
p573
S'rigors'
p574
sS'810'
p575
S'wicker'
p576
sS'811'
p577
S'songs'
p578
sS'812'
p579
S'deep'
p580
sS'813'
p581
S'fret'
p582
sS'814'
p583
S'times'
p584
sS'815'
p585
S'frets'
p586
sS'816'
p587
S'smooth'
p588
sS'817'
p589
S'portable'
p590
sS'1700'
p591
S'holders'
p592
sS'1701'
p593
S'service'
p594
sS'5265'
p595
S'bulletproof'
p596
sS'5264'
p597
S'barber'
p598
sS'1704'
p599
S'scared'
p600
sS'1705'
p601
S'death'
p602
sS'1706'
p603
S'mate'
p604
sS'1707'
p605
S'remembered'
p606
sS'1708'
p607
S'eddie'
p608
sS'1709'
p609
S'mere'
p610
sS'2097'
p611
S'flaws'
p612
sS'5269'
p613
S'students'
p614
sS'5268'
p615
S'weld'
p616
sS'2096'
p617
S'closely'
p618
sS'4574'
p619
S'lubricant'
p620
sS'4575'
p621
S'passing'
p622
sS'2093'
p623
S'indication'
p624
sS'4577'
p625
S'unwound'
p626
sS'3959'
p627
S'wraps'
p628
sS'3029'
p629
S'overdubbing'
p630
sS'3028'
p631
S'vocalists'
p632
sS'3027'
p633
S'female'
p634
sS'3026'
p635
S'overs'
p636
sS'3025'
p637
S'patience'
p638
sS'3024'
p639
S'thrown'
p640
sS'3023'
p641
S'imitation'
p642
sS'3022'
p643
S'maker'
p644
sS'3021'
p645
S'george'
p646
sS'3020'
p647
S'yeah'
p648
sS'4198'
p649
S'risk'
p650
sS'4199'
p651
S'overkill'
p652
sS'4196'
p653
S'copies'
p654
sS'4197'
p655
S'dyna'
p656
sS'4194'
p657
S'biyang'
p658
sS'4195'
p659
S'compress'
p660
sS'4192'
p661
S'partly'
p662
sS'4193'
p663
S'insist'
p664
sS'4190'
p665
S'dock'
p666
sS'4191'
p667
S'dilemma'
p668
sS'5670'
p669
S'iconic'
p670
sS'5671'
p671
S'stray'
p672
sS'5672'
p673
S'movements'
p674
sS'5673'
p675
S'rebate'
p676
sS'5674'
p677
S'miking'
p678
sS'5675'
p679
S'replaceable'
p680
sS'5676'
p681
S'add-on'
p682
sS'5677'
p683
S'hums'
p684
sS'5678'
p685
S'arranged'
p686
sS'5679'
p687
S'pricier'
p688
sS'473'
p689
S'internal'
p690
sS'238'
p691
S'anticipated'
p692
sS'239'
p693
S'upgrade'
p694
sS'234'
p695
S'firmware'
p696
sS'235'
p697
S'updates'
p698
sS'236'
p699
S'bug'
p700
sS'237'
p701
S'fixes'
p702
sS'230'
p703
S'software'
p704
sS'231'
p705
S'feeling'
p706
sS'232'
p707
S'building'
p708
sS'233'
p709
S'couple'
p710
sS'4680'
p711
S'one-spot'
p712
sS'4681'
p713
S'confusing'
p714
sS'2538'
p715
S'intelli'
p716
sS'2539'
p717
S'600'
p718
sS'2532'
p719
S'restring'
p720
sS'2533'
p721
S'scratches'
p722
sS'2530'
p723
S'slippery'
p724
sS'2531'
p725
S'smoke'
p726
sS'2536'
p727
S'movement'
p728
sS'2537'
p729
S'topple'
p730
sS'2534'
p731
S'heel'
p732
sS'2535'
p733
S'slipping'
p734
sS'5078'
p735
S'gibsons'
p736
sS'5079'
p737
S'wipes'
p738
sS'5072'
p739
S'haller'
p740
sS'5073'
p741
S'michael'
p742
sS'5070'
p743
S'anchor'
p744
sS'5071'
p745
S'dive'
p746
sS'5076'
p747
S'mechanic'
p748
sS'5077'
p749
S'formula'
p750
sS'5074'
p751
S"'captain"
p752
sS'5075'
p753
S'circus'
p754
sS'939'
p755
S'board'
p756
sS'938'
p757
S'fairly'
p758
sS'933'
p759
S'organ'
p760
sS'932'
p761
S'middle'
p762
sS'931'
p763
S'song'
p764
sS'930'
p765
S'tempo'
p766
sS'937'
p767
S'pedalboard'
p768
sS'936'
p769
S'alter'
p770
sS'935'
p771
S'signal'
p772
sS'934'
p773
S'flimsy'
p774
sS'5380'
p775
S'witch'
p776
sS'5381'
p777
S'lighted'
p778
sS'5382'
p779
S'supersonic'
p780
sS'5383'
p781
S'clock'
p782
sS'5384'
p783
S'instruction'
p784
sS'5385'
p785
S'dr-07mkii'
p786
sS'5386'
p787
S'phrase'
p788
sS'5387'
p789
S'captured'
p790
sS'5388'
p791
S'attempts'
p792
sS'5389'
p793
S'broadcasting'
p794
sS'797'
p795
S'mechanical'
p796
sS'796'
p797
S'muff'
p798
sS'795'
p799
S'bypass'
p800
sS'794'
p801
S'noise'
p802
sS'793'
p803
S'normal'
p804
sS'792'
p805
S'sustain'
p806
sS'791'
p807
S'ground'
p808
sS'790'
p809
S'thick'
p810
sS'2145'
p811
S'distilled'
p812
sS'799'
p813
S'louder'
p814
sS'798'
p815
S'opposed'
p816
sS'2144'
p817
S'secret'
p818
sS'2415'
p819
S'sells'
p820
sS'2414'
p821
S'gas'
p822
sS'1139'
p823
S'adequately'
p824
sS'1138'
p825
S'compartment'
p826
sS'2141'
p827
S'toy'
p828
sS'1133'
p829
S'pricey'
p830
sS'1132'
p831
S'tolex'
p832
sS'1131'
p833
S'exterior'
p834
sS'1130'
p835
S'touring'
p836
sS'1137'
p837
S'storage'
p838
sS'1136'
p839
S'interior'
p840
sS'1135'
p841
S'plush'
p842
sS'1134'
p843
S'stitching'
p844
sS'2419'
p845
S'supplied'
p846
sS'4975'
p847
S'wattage'
p848
sS'2149'
p849
S'sponge'
p850
sS'2148'
p851
S'humidifiers'
p852
sS'2882'
p853
S'cards'
p854
sS'2883'
p855
S'bunch'
p856
sS'2880'
p857
S'inserted'
p858
sS'2881'
p859
S'sd'
p860
sS'2886'
p861
S'dull'
p862
sS'2887'
p863
S'intuitive'
p864
sS'2884'
p865
S'blend'
p866
sS'2885'
p867
S'vendor'
p868
sS'1072'
p869
S'snark'
p870
sS'2888'
p871
S'fragile'
p872
sS'2889'
p873
S'hopes'
p874
sS'2'
p875
S'bit'
p876
sS'3276'
p877
S'zippers'
p878
sS'3277'
p879
S'wet'
p880
sS'1922'
p881
S'simultaneously'
p882
sS'1923'
p883
S'occur'
p884
sS'1924'
p885
S'combinations'
p886
sS'3273'
p887
S'john'
p888
sS'1926'
p889
S'called'
p890
sS'1927'
p891
S'alesis'
p892
sS'4761'
p893
S'jet'
p894
sS'4760'
p895
S'shark'
p896
sS'4763'
p897
S'unstable'
p898
sS'4762'
p899
S'owe'
p900
sS'4765'
p901
S'puppy'
p902
sS'4764'
p903
S'brush'
p904
sS'4767'
p905
S'crash'
p906
sS'4766'
p907
S'installs'
p908
sS'4769'
p909
S'halfway'
p910
sS'4768'
p911
S'fooling'
p912
sS'5809'
p913
S'senior'
p914
sS'5808'
p915
S'sp01'
p916
sS'5803'
p917
S'verbzilla'
p918
sS'5802'
p919
S'godlyke'
p920
sS'5801'
p921
S'juh'
p922
sS'5800'
p923
S'kernel'
p924
sS'5807'
p925
S'c-1u'
p926
sS'5806'
p927
S'neumann'
p928
sS'5805'
p929
S'stealth'
p930
sS'5804'
p931
S'cos'
p932
sS'1573'
p933
S'1000'
p934
sS'1572'
p935
S'wayyy'
p936
sS'1571'
p937
S'leans'
p938
sS'1570'
p939
S'junk'
p940
sS'1577'
p941
S'manufacturer'
p942
sS'1576'
p943
S'summary'
p944
sS'1575'
p945
S'doubt'
p946
sS'1574'
p947
S'chromacast'
p948
sS'4888'
p949
S'fingerstyle'
p950
sS'4889'
p951
S'soak'
p952
sS'2709'
p953
S'holy'
p954
sS'2708'
p955
S'62'
p956
sS'4880'
p957
S'east'
p958
sS'4881'
p959
S'1-2'
p960
sS'4882'
p961
S'negligible'
p962
sS'2706'
p963
S'eh'
p964
sS'2701'
p965
S'master'
p966
sS'2700'
p967
S'boy'
p968
sS'2703'
p969
S'gadgets'
p970
sS'4887'
p971
S'5x'
p972
sS'2411'
p973
S'basement'
p974
sS'475'
p975
S'sensor'
p976
sS'3474'
p977
S'favorably'
p978
sS'3475'
p979
S'flatter'
p980
sS'3476'
p981
S'resistant'
p982
sS'3477'
p983
S'longevity'
p984
sS'3470'
p985
S'sm58'
p986
sS'3471'
p987
S'a/b'
p988
sS'3472'
p989
S'ev'
p990
sS'3473'
p991
S'costly'
p992
sS'838'
p993
S'plays'
p994
sS'839'
p995
S'rarely'
p996
sS'3478'
p997
S'150'
p998
sS'3479'
p999
S'countless'
p1000
sS'5249'
p1001
S'cs-3'
p1002
sS'5248'
p1003
S'extremes'
p1004
sS'1728'
p1005
S'beautiful'
p1006
sS'1729'
p1007
S'weighted'
p1008
sS'1726'
p1009
S'sterile'
p1010
sS'5244'
p1011
S'tr-2'
p1012
sS'5247'
p1013
S'modulations'
p1014
sS'5246'
p1015
S'ph-3'
p1016
sS'1722'
p1017
S'sensitive'
p1018
sS'1723'
p1019
S'crazy'
p1020
sS'1720'
p1021
S'luna'
p1022
sS'1721'
p1023
S'precisely'
p1024
sS'5626'
p1025
S'teen'
p1026
sS'3005'
p1027
S'authentic'
p1028
sS'3004'
p1029
S'sends'
p1030
sS'3007'
p1031
S'sansamp'
p1032
sS'3006'
p1033
S'knockoff'
p1034
sS'3001'
p1035
S'acts'
p1036
sS'3000'
p1037
S'silk'
p1038
sS'3003'
p1039
S'splits'
p1040
sS'3002'
p1041
S'pre-amp'
p1042
sS'3009'
p1043
S'preview'
p1044
sS'3008'
p1045
S'based'
p1046
sS'1588'
p1047
S'fails'
p1048
sS'1589'
p1049
S'cheaply'
p1050
sS'1582'
p1051
S'lightweight'
p1052
sS'1583'
p1053
S'wonderfully'
p1054
sS'1580'
p1055
S'web'
p1056
sS'1581'
p1057
S'shaped'
p1058
sS'1586'
p1059
S'loss'
p1060
sS'1587'
p1061
S'breaks'
p1062
sS'1584'
p1063
S'hoped'
p1064
sS'1585'
p1065
S'typically'
p1066
sS'5481'
p1067
S'coats'
p1068
sS'5480'
p1069
S'surrounds'
p1070
sS'5658'
p1071
S'j74'
p1072
sS'5659'
p1073
S'counting'
p1074
sS'5656'
p1075
S'student'
p1076
sS'5657'
p1077
S'responsible'
p1078
sS'5654'
p1079
S'2008'
p1080
sS'2416'
p1081
S'plans'
p1082
sS'5652'
p1083
S'coast'
p1084
sS'5653'
p1085
S'alto'
p1086
sS'5650'
p1087
S'multi-pattern'
p1088
sS'5651'
p1089
S'pricy'
p1090
sS'3917'
p1091
S'withstand'
p1092
sS'3916'
p1093
S'hartke'
p1094
sS'3915'
p1095
S'promised'
p1096
sS'3914'
p1097
S'packed'
p1098
sS'3913'
p1099
S'arrives'
p1100
sS'3912'
p1101
S'warehouse'
p1102
sS'3911'
p1103
S'stretching'
p1104
sS'3910'
p1105
S'requirements'
p1106
sS'3919'
p1107
S'sprayed'
p1108
sS'3918'
p1109
S'fixing'
p1110
sS'3287'
p1111
S'w/'
p1112
sS'216'
p1113
S'feature'
p1114
sS'217'
p1115
S'flexible'
p1116
sS'214'
p1117
S'remember'
p1118
sS'215'
p1119
S'dual'
p1120
sS'212'
p1121
S'wah'
p1122
sS'213'
p1123
S'wrong'
p1124
sS'210'
p1125
S'record'
p1126
sS'211'
p1127
S'time'
p1128
sS'218'
p1129
S'routing'
p1130
sS'219'
p1131
S'options'
p1132
sS'3649'
p1133
S'decently'
p1134
sS'3648'
p1135
S'method'
p1136
sS'3647'
p1137
S'application'
p1138
sS'3646'
p1139
S'beauty'
p1140
sS'3645'
p1141
S'unfinished'
p1142
sS'3644'
p1143
S'fretboards'
p1144
sS'3643'
p1145
S'ziplock'
p1146
sS'3642'
p1147
S'envelope'
p1148
sS'3641'
p1149
S'cheapo'
p1150
sS'3640'
p1151
S'drilled'
p1152
sS'2550'
p1153
S'ukes'
p1154
sS'2551'
p1155
S'spare'
p1156
sS'2552'
p1157
S'vastly'
p1158
sS'2553'
p1159
S'direction'
p1160
sS'2554'
p1161
S'standpoint'
p1162
sS'2555'
p1163
S'registered'
p1164
sS'2556'
p1165
S'failed'
p1166
sS'2557'
p1167
S'fixed'
p1168
sS'2558'
p1169
S'hefty'
p1170
sS'2559'
p1171
S'acoustically'
p1172
sS'5010'
p1173
S'discern'
p1174
sS'5011'
p1175
S'differing'
p1176
sS'5012'
p1177
S'abusing'
p1178
sS'5013'
p1179
S'discount'
p1180
sS'5014'
p1181
S'river'
p1182
sS'5015'
p1183
S'concentrate'
p1184
sS'5016'
p1185
S'artifacts'
p1186
sS'5017'
p1187
S'realm'
p1188
sS'5018'
p1189
S'intermittent'
p1190
sS'5019'
p1191
S'tangle'
p1192
sS'4419'
p1193
S'altered'
p1194
sS'4418'
p1195
S'window'
p1196
sS'4417'
p1197
S'twelve'
p1198
sS'4416'
p1199
S'fortunately'
p1200
sS'4415'
p1201
S'outs'
p1202
sS'4414'
p1203
S'pan'
p1204
sS'4413'
p1205
S'xp'
p1206
sS'4412'
p1207
S'configured'
p1208
sS'4411'
p1209
S'i/o'
p1210
sS'4410'
p1211
S'vst'
p1212
sS'919'
p1213
S'school'
p1214
sS'918'
p1215
S'program'
p1216
sS'915'
p1217
S'fills'
p1218
sS'914'
p1219
S'edit'
p1220
sS'917'
p1221
S'cymbals'
p1222
sS'916'
p1223
S'midi'
p1224
sS'911'
p1225
S'overhead'
p1226
sS'910'
p1227
S'grooves'
p1228
sS'913'
p1229
S'loops'
p1230
sS'912'
p1231
S'organic'
p1232
sS'630'
p1233
S'30'
p1234
sS'631'
p1235
S'holds'
p1236
sS'632'
p1237
S'bottom'
p1238
sS'1211'
p1239
S'sustaining'
p1240
sS'634'
p1241
S'hate'
p1242
sS'635'
p1243
S'rubberized'
p1244
sS'1214'
p1245
S'ibanez'
p1246
sS'1215'
p1247
S'90s'
p1248
sS'1111'
p1249
S'useless'
p1250
sS'1110'
p1251
S'heck'
p1252
sS'1113'
p1253
S'gt'
p1254
sS'1112'
p1255
S'dunlop'
p1256
sS'1115'
p1257
S'sticky'
p1258
sS'1114'
p1259
S'fewer'
p1260
sS'1117'
p1261
S'mounting'
p1262
sS'1440'
p1263
S'taller'
p1264
sS'1119'
p1265
S'trade-off'
p1266
sS'1118'
p1267
S'whatnot'
p1268
sS'1449'
p1269
S'stink'
p1270
sS'1448'
p1271
S'funky'
p1272
sS'4859'
p1273
S'timing'
p1274
sS'2005'
p1275
S'tin'
p1276
sS'4857'
p1277
S'polytune'
p1278
sS'4584'
p1279
S'delrin'
p1280
sS'2008'
p1281
S'tag'
p1282
sS'4854'
p1283
S'jimmy'
p1284
sS'4581'
p1285
S'semi'
p1286
sS'4580'
p1287
S'listened'
p1288
sS'4725'
p1289
S'cracking'
p1290
sS'4583'
p1291
S'continued'
p1292
sS'4724'
p1293
S'boring'
p1294
sS'4582'
p1295
S'determine'
p1296
sS'4727'
p1297
S'compressors'
p1298
sS'4726'
p1299
S'wrestling'
p1300
sS'4721'
p1301
S'rings'
p1302
sS'4720'
p1303
S'bound'
p1304
sS'4723'
p1305
S'lastly'
p1306
sS'4789'
p1307
S'pickholder'
p1308
sS'4788'
p1309
S'increasing'
p1310
sS'4787'
p1311
S'tapping'
p1312
sS'4786'
p1313
S'tighter'
p1314
sS'4785'
p1315
S'8221'
p1316
sS'4722'
p1317
S'peel'
p1318
sS'4783'
p1319
S'definately'
p1320
sS'4782'
p1321
S'trs'
p1322
sS'4781'
p1323
S'grounding'
p1324
sS'4780'
p1325
S'heavily'
p1326
sS'5821'
p1327
S'firebox'
p1328
sS'5820'
p1329
S'dm80'
p1330
sS'5823'
p1331
S'es'
p1332
sS'5822'
p1333
S'535'
p1334
sS'1182'
p1335
S'hey'
p1336
sS'199'
p1337
S'tweak'
p1338
sS'198'
p1339
S'tweaking'
p1340
sS'195'
p1341
S'difference'
p1342
sS'194'
p1343
S'huge'
p1344
sS'197'
p1345
S'models'
p1346
sS'196'
p1347
S'series'
p1348
sS'191'
p1349
S'tonal'
p1350
sS'190'
p1351
S'calls'
p1352
sS'193'
p1353
S'true'
p1354
sS'192'
p1355
S'characteristics'
p1356
sS'2769'
p1357
S'tripods'
p1358
sS'2768'
p1359
S'fluid'
p1360
sS'2763'
p1361
S'tame'
p1362
sS'2762'
p1363
S'airplane'
p1364
sS'2761'
p1365
S'fake'
p1366
sS'2760'
p1367
S'slips'
p1368
sS'2767'
p1369
S'lol'
p1370
sS'2766'
p1371
S'jasmine'
p1372
sS'2765'
p1373
S'accessories'
p1374
sS'2764'
p1375
S'picky'
p1376
sS'1183'
p1377
S'complaining'
p1378
sS'3452'
p1379
S'airy'
p1380
sS'3453'
p1381
S'deliver'
p1382
sS'3450'
p1383
S'uncoated'
p1384
sS'3451'
p1385
S'twangy'
p1386
sS'3456'
p1387
S'confirmed'
p1388
sS'3457'
p1389
S'usable'
p1390
sS'3454'
p1391
S'report'
p1392
sS'3455'
p1393
S'variation'
p1394
sS'3458'
p1395
S'applications'
p1396
sS'3459'
p1397
S'speaking'
p1398
sS'858'
p1399
S'arrive'
p1400
sS'859'
p1401
S'wooden'
p1402
sS'6'
p1403
S'easy'
p1404
sS'5229'
p1405
S'dent'
p1406
sS'5228'
p1407
S'named'
p1408
sS'5223'
p1409
S'abrasive'
p1410
sS'5222'
p1411
S'dsp'
p1412
sS'5221'
p1413
S'filed'
p1414
sS'5220'
p1415
S'selector'
p1416
sS'5227'
p1417
S'pivots'
p1418
sS'5226'
p1419
S'soften'
p1420
sS'5225'
p1421
S'3x'
p1422
sS'5224'
p1423
S'element'
p1424
sS'4588'
p1425
S'translate'
p1426
sS'3063'
p1427
S'textured'
p1428
sS'3062'
p1429
S'tips'
p1430
sS'3061'
p1431
S'forces'
p1432
sS'3060'
p1433
S'buddies'
p1434
sS'3067'
p1435
S'accustomed'
p1436
sS'3066'
p1437
S'partially'
p1438
sS'3065'
p1439
S'implies'
p1440
sS'3064'
p1441
S'lines'
p1442
sS'3069'
p1443
S'intonated'
p1444
sS'3068'
p1445
S'compromise'
p1446
sS'4817'
p1447
S'de'
p1448
sS'4816'
p1449
S'private'
p1450
sS'1304'
p1451
S'jams'
p1452
sS'1305'
p1453
S'accurately'
p1454
sS'1306'
p1455
S'fond'
p1456
sS'1307'
p1457
S'background'
p1458
sS'1300'
p1459
S'stage'
p1460
sS'1301'
p1461
S'lighting'
p1462
sS'1302'
p1463
S'reading'
p1464
sS'1303'
p1465
S'arm'
p1466
sS'1308'
p1467
S'changing'
p1468
sS'1309'
p1469
S'searched'
p1470
sS'498'
p1471
S'laptop'
p1472
sS'499'
p1473
S'failing'
p1474
sS'494'
p1475
S'detects'
p1476
sS'495'
p1477
S'step'
p1478
sS'496'
p1479
S'accuracy'
p1480
sS'497'
p1481
S'audio'
p1482
sS'490'
p1483
S'detune'
p1484
sS'491'
p1485
S'machine'
p1486
sS'492'
p1487
S'ear'
p1488
sS'493'
p1489
S'device'
p1490
sS'3939'
p1491
S'berhinger'
p1492
sS'3938'
p1493
S'sheer'
p1494
sS'3935'
p1495
S'beringer'
p1496
sS'3934'
p1497
S'harps'
p1498
sS'3937'
p1499
S'pinky'
p1500
sS'3936'
p1501
S'pressed'
p1502
sS'3931'
p1503
S'crowd'
p1504
sS'3930'
p1505
S'wheel'
p1506
sS'3933'
p1507
S'leak'
p1508
sS'3932'
p1509
S'valuable'
p1510
sS'3265'
p1511
S'top-notch'
p1512
sS'4044'
p1513
S'footer'
p1514
sS'4045'
p1515
S'conversation'
p1516
sS'4046'
p1517
S'achieved'
p1518
sS'4047'
p1519
S'embarrassed'
p1520
sS'4040'
p1521
S'blow'
p1522
sS'4041'
p1523
S'pounding'
p1524
sS'4042'
p1525
S'rougher'
p1526
sS'4043'
p1527
S'relief'
p1528
sS'4048'
p1529
S'damn'
p1530
sS'4049'
p1531
S'preferences'
p1532
sS'3665'
p1533
S'fidelity'
p1534
sS'3664'
p1535
S'cups'
p1536
sS'3667'
p1537
S'decibels'
p1538
sS'3666'
p1539
S'spectrum'
p1540
sS'3661'
p1541
S'tangled'
p1542
sS'3660'
p1543
S'bullet'
p1544
sS'3663'
p1545
S'full-sized'
p1546
sS'3662'
p1547
S'spin'
p1548
sS'3669'
p1549
S'focus'
p1550
sS'3668'
p1551
S'adult'
p1552
sS'5582'
p1553
S'damp'
p1554
sS'446'
p1555
S'perform'
p1556
sS'2578'
p1557
S'dunno'
p1558
sS'2579'
p1559
S'garage'
p1560
sS'2576'
p1561
S'defects'
p1562
sS'2577'
p1563
S'lip'
p1564
sS'2574'
p1565
S'thicknesses'
p1566
sS'2575'
p1567
S'functions'
p1568
sS'2572'
p1569
S'thinnest'
p1570
sS'2573'
p1571
S'thickest'
p1572
sS'2570'
p1573
S'operate'
p1574
sS'2571'
p1575
S'floppy'
p1576
sS'3593'
p1577
S'shockmount'
p1578
sS'3592'
p1579
S'fingertips'
p1580
sS'3591'
p1581
S'terrible'
p1582
sS'3590'
p1583
S'alternative'
p1584
sS'3597'
p1585
S'versus'
p1586
sS'3596'
p1587
S'bust'
p1588
sS'5038'
p1589
S'gunk'
p1590
sS'3594'
p1591
S'ass'
p1592
sS'5036'
p1593
S'transmitter'
p1594
sS'5037'
p1595
S'casing'
p1596
sS'5034'
p1597
S'addendum'
p1598
sS'5035'
p1599
S'unhappy'
p1600
sS'5032'
p1601
S'beta'
p1602
sS'5033'
p1603
S'58a'
p1604
sS'5030'
p1605
S'pushes'
p1606
sS'5031'
p1607
S'strummed'
p1608
sS'4435'
p1609
S'responsiveness'
p1610
sS'4434'
p1611
S'kits'
p1612
sS'4437'
p1613
S'updated'
p1614
sS'4436'
p1615
S'struck'
p1616
sS'4431'
p1617
S'drummers'
p1618
sS'4430'
p1619
S'windings'
p1620
sS'4433'
p1621
S'detailed'
p1622
sS'4432'
p1623
S'module'
p1624
sS'4439'
p1625
S'loading'
p1626
sS'4438'
p1627
S'samples'
p1628
sS'977'
p1629
S'imho'
p1630
sS'976'
p1631
S'bulky'
p1632
sS'975'
p1633
S'call'
p1634
sS'974'
p1635
S'engaging'
p1636
sS'973'
p1637
S'noises'
p1638
sS'972'
p1639
S'clicking'
p1640
sS'971'
p1641
S'audible'
p1642
sS'970'
p1643
S'solo'
p1644
sS'979'
p1645
S'prs'
p1646
sS'978'
p1647
S'installed'
p1648
sS'3386'
p1649
S'accompanying'
p1650
sS'3387'
p1651
S'engineering'
p1652
sS'3384'
p1653
S'collection'
p1654
sS'5417'
p1655
S'shore'
p1656
sS'5410'
p1657
S'yay'
p1658
sS'5411'
p1659
S'belongs'
p1660
sS'5412'
p1661
S'thrash'
p1662
sS'5413'
p1663
S'krk'
p1664
sS'1681'
p1665
S'hesitation'
p1666
sS'1680'
p1667
S'clearer'
p1668
sS'1683'
p1669
S'shade'
p1670
sS'1682'
p1671
S'lights'
p1672
sS'1685'
p1673
S'spreads'
p1674
sS'1684'
p1675
S'pun'
p1676
sS'1687'
p1677
S'spread'
p1678
sS'1686'
p1679
S'desired'
p1680
sS'1689'
p1681
S'musicians'
p1682
sS'1688'
p1683
S'annoyance'
p1684
sS'653'
p1685
S'market'
p1686
sS'1469'
p1687
S'download'
p1688
sS'1468'
p1689
S'xt'
p1690
sS'1465'
p1691
S'computer'
p1692
sS'1464'
p1693
S'tons'
p1694
sS'1467'
p1695
S'brands'
p1696
sS'1466'
p1697
S'considered'
p1698
sS'1461'
p1699
S'bothered'
p1700
sS'1460'
p1701
S'log'
p1702
sS'1463'
p1703
S'distances'
p1704
sS'1462'
p1705
S'checked'
p1706
sS'4239'
p1707
S'drops'
p1708
sS'4238'
p1709
S'apogee'
p1710
sS'4237'
p1711
S"'78"
p1712
sS'4236'
p1713
S'badass'
p1714
sS'4235'
p1715
S'definition'
p1716
sS'4234'
p1717
S'riot'
p1718
sS'4233'
p1719
S'roar'
p1720
sS'4232'
p1721
S'overdrives'
p1722
sS'4231'
p1723
S'baggs'
p1724
sS'4230'
p1725
S'helping'
p1726
sS'5591'
p1727
S'varies'
p1728
sS'5590'
p1729
S'tax'
p1730
sS'5593'
p1731
S'clams'
p1732
sS'5592'
p1733
S'dvd'
p1734
sS'5595'
p1735
S'bummed'
p1736
sS'5594'
p1737
S'ny'
p1738
sS'5597'
p1739
S'disliked'
p1740
sS'5596'
p1741
S'sweetwater'
p1742
sS'5599'
p1743
S'jig'
p1744
sS'5598'
p1745
S'olympus'
p1746
sS'3035'
p1747
S'lever'
p1748
sS'319'
p1749
S'tracks'
p1750
sS'318'
p1751
S'vocal'
p1752
sS'313'
p1753
S'lot'
p1754
sS'312'
p1755
S'helps'
p1756
sS'311'
p1757
S'guy'
p1758
sS'310'
p1759
S'lil'
p1760
sS'317'
p1761
S'mic'
p1762
sS'316'
p1763
S'130'
p1764
sS'315'
p1765
S'mine'
p1766
sS'314'
p1767
S'dirty'
p1768
sS'4213'
p1769
S'count'
p1770
sS'443'
p1771
S'singing'
p1772
sS'442'
p1773
S'adjust'
p1774
sS'441'
p1775
S'joint'
p1776
sS'440'
p1777
S'friction'
p1778
sS'447'
p1779
S'gigs'
p1780
sS'4218'
p1781
S'prettier'
p1782
sS'445'
p1783
S'guitarist'
p1784
sS'444'
p1785
S'drummer'
p1786
sS'2299'
p1787
S'reviewer'
p1788
sS'2298'
p1789
S'securely'
p1790
sS'2293'
p1791
S'bundled'
p1792
sS'2292'
p1793
S'bundle'
p1794
sS'2291'
p1795
S'tv'
p1796
sS'2290'
p1797
S'70'
p1798
sS'2297'
p1799
S'at2020'
p1800
sS'2296'
p1801
S'technica'
p1802
sS'2295'
p1803
S'shock'
p1804
sS'2294'
p1805
S'samson'
p1806
sS'5578'
p1807
S'guitarlele'
p1808
sS'5574'
p1809
S'guild'
p1810
sS'5572'
p1811
S'surround'
p1812
sS'4672'
p1813
S'opportunity'
p1814
sS'3438'
p1815
S'truck'
p1816
sS'3439'
p1817
S'sturdily'
p1818
sS'878'
p1819
S'item'
p1820
sS'879'
p1821
S'week'
p1822
sS'3430'
p1823
S'performed'
p1824
sS'3431'
p1825
S'company'
p1826
sS'874'
p1827
S'provide'
p1828
sS'3433'
p1829
S'prolonged'
p1830
sS'3434'
p1831
S'chord'
p1832
sS'873'
p1833
S'drink'
p1834
sS'3436'
p1835
S'stomp'
p1836
sS'3437'
p1837
S'possibilities'
p1838
sS'2741'
p1839
S'remedied'
p1840
sS'2740'
p1841
S'subjective'
p1842
sS'2743'
p1843
S'correctly'
p1844
sS'2742'
p1845
S'applying'
p1846
sS'2745'
p1847
S'slots'
p1848
sS'2744'
p1849
S'slot'
p1850
sS'2747'
p1851
S'stopped'
p1852
sS'2746'
p1853
S'ample'
p1854
sS'4844'
p1855
S'convenience'
p1856
sS'2748'
p1857
S'frustrating'
p1858
sS'4846'
p1859
S'transfers'
p1860
sS'4847'
p1861
S'commonly'
p1862
sS'4840'
p1863
S'ath-m50'
p1864
sS'4841'
p1865
S'station'
p1866
sS'4842'
p1867
S'screams'
p1868
sS'2038'
p1869
S'win'
p1870
sS'5201'
p1871
S'rp255'
p1872
sS'5200'
p1873
S'recognizes'
p1874
sS'5203'
p1875
S'drip'
p1876
sS'5202'
p1877
S'biggie'
p1878
sS'5205'
p1879
S'500ma'
p1880
sS'5204'
p1881
S'chameleon'
p1882
sS'5207'
p1883
S'fuzzy'
p1884
sS'5206'
p1885
S'1700ma'
p1886
sS'5209'
p1887
S'crackle'
p1888
sS'5208'
p1889
S'empty'
p1890
sS'3049'
p1891
S'mixing'
p1892
sS'3048'
p1893
S'goal'
p1894
sS'3041'
p1895
S'gospel'
p1896
sS'3040'
p1897
S'processing'
p1898
sS'3043'
p1899
S'folk'
p1900
sS'3042'
p1901
S'='
p1902
sS'3045'
p1903
S'spoken'
p1904
sS'3044'
p1905
S'listed'
p1906
sS'3047'
p1907
S'mixcraft'
p1908
sS'3046'
p1909
S'compares'
p1910
sS'1094'
p1911
S'extreme'
p1912
sS'1095'
p1913
S'settings'
p1914
sS'1096'
p1915
S'phaser'
p1916
sS'1097'
p1917
S'must-have'
p1918
sS'1090'
p1919
S'pulled'
p1920
sS'1091'
p1921
S'guess'
p1922
sS'1092'
p1923
S'pots'
p1924
sS'1093'
p1925
S'posts'
p1926
sS'1912'
p1927
S'spots'
p1928
sS'1098'
p1929
S'recordings'
p1930
sS'1099'
p1931
S'dragging'
p1932
sS'1915'
p1933
S'and/or'
p1934
sS'1322'
p1935
S'protect'
p1936
sS'1323'
p1937
S'attack'
p1938
sS'1320'
p1939
S'breaking'
p1940
sS'1321'
p1941
S'canvas'
p1942
sS'1326'
p1943
S'robust'
p1944
sS'1327'
p1945
S'incredibly'
p1946
sS'1914'
p1947
S'spot'
p1948
sS'1325'
p1949
S'violin'
p1950
sS'1328'
p1951
S'stable'
p1952
sS'1329'
p1953
S'outstanding'
p1954
sS'1916'
p1955
S'impression'
p1956
sS'3958'
p1957
S'closed'
p1958
sS'3953'
p1959
S'shopped'
p1960
sS'3952'
p1961
S'sleep'
p1962
sS'3951'
p1963
S'mesh'
p1964
sS'3950'
p1965
S'grill'
p1966
sS'3957'
p1967
S'velcros'
p1968
sS'3956'
p1969
S'gel'
p1970
sS'3955'
p1971
S'minimum'
p1972
sS'3954'
p1973
S'comparable'
p1974
sS'1546'
p1975
S'mikes'
p1976
sS'4062'
p1977
S'upgrades'
p1978
sS'4063'
p1979
S'sweeter'
p1980
sS'4060'
p1981
S'consumers'
p1982
sS'4061'
p1983
S'upgraded'
p1984
sS'4066'
p1985
S'42'
p1986
sS'4067'
p1987
S'speeds'
p1988
sS'4064'
p1989
S'excited'
p1990
sS'4065'
p1991
S'grind'
p1992
sS'4068'
p1993
S'28'
p1994
sS'4069'
p1995
S'48'
p1996
sS'5784'
p1997
S'enables'
p1998
sS'5785'
p1999
S'05'
p2000
sS'5786'
p2001
S'96k'
p2002
sS'5787'
p2003
S'ypg-235'
p2004
sS'5780'
p2005
S'receptacles'
p2006
sS'5781'
p2007
S'dano'
p2008
sS'5782'
p2009
S'sn'
p2010
sS'5783'
p2011
S'us-322'
p2012
sS'5788'
p2013
S'235'
p2014
sS'5789'
p2015
S'cutouts'
p2016
sS'3603'
p2017
S'zoom'
p2018
sS'3602'
p2019
S'loaded'
p2020
sS'3601'
p2021
S'birds'
p2022
sS'3600'
p2023
S'questionable'
p2024
sS'3607'
p2025
S'tells'
p2026
sS'3606'
p2027
S'trips'
p2028
sS'3605'
p2029
S'camping'
p2030
sS'3604'
p2031
S'uncle'
p2032
sS'3609'
p2033
S'tenor'
p2034
sS'3608'
p2035
S'uku'
p2036
sS'4593'
p2037
S'swears'
p2038
sS'4453'
p2039
S'caught'
p2040
sS'4452'
p2041
S'cone'
p2042
sS'4451'
p2043
S'rattling'
p2044
sS'4450'
p2045
S'pleasure'
p2046
sS'4457'
p2047
S'schubb'
p2048
sS'4456'
p2049
S'generate'
p2050
sS'4455'
p2051
S'sg'
p2052
sS'4454'
p2053
S'tri-action'
p2054
sS'4459'
p2055
S'exp'
p2056
sS'4458'
p2057
S'remarkable'
p2058
sS'959'
p2059
S'chain'
p2060
sS'958'
p2061
S'mxr'
p2062
sS'951'
p2063
S'fuller'
p2064
sS'950'
p2065
S'tad'
p2066
sS'953'
p2067
S'dark'
p2068
sS'952'
p2069
S'bright'
p2070
sS'955'
p2071
S'echo'
p2072
sS'954'
p2073
S'slap'
p2074
sS'957'
p2075
S'ambient'
p2076
sS'956'
p2077
S'mooer'
p2078
sS'717'
p2079
S'owned'
p2080
sS'4969'
p2081
S'rattled'
p2082
sS'4968'
p2083
S'21'
p2084
sS'716'
p2085
S'period'
p2086
sS'2178'
p2087
S'borrowed'
p2088
sS'4964'
p2089
S'podcasting'
p2090
sS'1669'
p2091
S'complained'
p2092
sS'1668'
p2093
S'suddenly'
p2094
sS'1667'
p2095
S'quit'
p2096
sS'1666'
p2097
S'environment'
p2098
sS'1665'
p2099
S'difficult'
p2100
sS'1664'
p2101
S'audience'
p2102
sS'1663'
p2103
S'activated'
p2104
sS'1662'
p2105
S'accidentally'
p2106
sS'1661'
p2107
S'raised'
p2108
sS'1660'
p2109
S'rhythms'
p2110
sS'591'
p2111
S'lock'
p2112
sS'590'
p2113
S'noticeable'
p2114
sS'593'
p2115
S'paul'
p2116
sS'592'
p2117
S'les'
p2118
sS'595'
p2119
S'purpose'
p2120
sS'594'
p2121
S'produce'
p2122
sS'597'
p2123
S'stress'
p2124
sS'596'
p2125
S'star'
p2126
sS'599'
p2127
S'sturdy'
p2128
sS'598'
p2129
S'connection'
p2130
sS'2828'
p2131
S'hide'
p2132
sS'2829'
p2133
S'hitch'
p2134
sS'2824'
p2135
S'tricky'
p2136
sS'2825'
p2137
S'exception'
p2138
sS'2826'
p2139
S'rule'
p2140
sS'2827'
p2141
S'buttery'
p2142
sS'2820'
p2143
S'continues'
p2144
sS'2821'
p2145
S'spring'
p2146
sS'2822'
p2147
S'16'
p2148
sS'2823'
p2149
S'99'
p2150
sS'5414'
p2151
S'rolled'
p2152
sS'5415'
p2153
S'trumpet'
p2154
sS'5416'
p2155
S'insurance'
p2156
sS'3385'
p2157
S'underside'
p2158
sS'3382'
p2159
S'tester'
p2160
sS'3383'
p2161
S'maintaining'
p2162
sS'3380'
p2163
S'built-in'
p2164
sS'3381'
p2165
S'messy'
p2166
sS'5418'
p2167
S'drawbacks'
p2168
sS'5419'
p2169
S'gigbag'
p2170
sS'3388'
p2171
S'diagram'
p2172
sS'3389'
p2173
S'morley'
p2174
sS'1409'
p2175
S'useable'
p2176
sS'1408'
p2177
S'flashing'
p2178
sS'1403'
p2179
S'buttons'
p2180
sS'1402'
p2181
S'function'
p2182
sS'1401'
p2183
S'production'
p2184
sS'1400'
p2185
S'average'
p2186
sS'1407'
p2187
S'choose'
p2188
sS'1406'
p2189
S'changed'
p2190
sS'1405'
p2191
S'loudness'
p2192
sS'1404'
p2193
S'twisting'
p2194
sS'4215'
p2195
S'ergonomic'
p2196
sS'4214'
p2197
S'repaired'
p2198
sS'4217'
p2199
S'traded'
p2200
sS'4216'
p2201
S'variations'
p2202
sS'4211'
p2203
S'trusty'
p2204
sS'4210'
p2205
S'gizmo'
p2206
sS'1491'
p2207
S'darn'
p2208
sS'4212'
p2209
S'brain'
p2210
sS'5790'
p2211
S'palomino'
p2212
sS'4219'
p2213
S'hinges'
p2214
sS'1544'
p2215
S'electronics'
p2216
sS'1545'
p2217
S'pyle'
p2218
sS'1542'
p2219
S'recorder'
p2220
sS'1543'
p2221
S'generates'
p2222
sS'3261'
p2223
S'radiused'
p2224
sS'1540'
p2225
S'reduces'
p2226
sS'5579'
p2227
S'located'
p2228
sS'3260'
p2229
S'footswitch'
p2230
sS'5577'
p2231
S'buzzes'
p2232
sS'5576'
p2233
S'magnet'
p2234
sS'5575'
p2235
S'concrete'
p2236
sS'1541'
p2237
S'tascam'
p2238
sS'5573'
p2239
S'envelopes'
p2240
sS'3263'
p2241
S'flex'
p2242
sS'5571'
p2243
S'oxidation'
p2244
sS'5570'
p2245
S'quantities'
p2246
sS'3262'
p2247
S'corners'
p2248
sS'5799'
p2249
S'realtime'
p2250
sS'1937'
p2251
S'inch'
p2252
sS'5798'
p2253
S'octive'
p2254
sS'3264'
p2255
S'favorites'
p2256
sS'339'
p2257
S'tune'
p2258
sS'3267'
p2259
S'ideal'
p2260
sS'335'
p2261
S'cutting'
p2262
sS'334'
p2263
S'messed'
p2264
sS'337'
p2265
S'dont'
p2266
sS'3266'
p2267
S'abuse'
p2268
sS'331'
p2269
S'takes'
p2270
sS'330'
p2271
S'tuning'
p2272
sS'333'
p2273
S'cutter'
p2274
sS'332'
p2275
S'wire'
p2276
sS'3269'
p2277
S'dozens'
p2278
sS'5125'
p2279
S'miracle'
p2280
sS'5126'
p2281
S'mushy'
p2282
sS'5127'
p2283
S'ac15c1'
p2284
sS'5002'
p2285
S'2011'
p2286
sS'3195'
p2287
S'beams'
p2288
sS'3200'
p2289
S'apps'
p2290
sS'1497'
p2291
S'praise'
p2292
sS'3416'
p2293
S'shifter'
p2294
sS'3417'
p2295
S'feed'
p2296
sS'3414'
p2297
S'impact'
p2298
sS'3415'
p2299
S'abused'
p2300
sS'3412'
p2301
S'us600'
p2302
sS'3413'
p2303
S'well-made'
p2304
sS'3410'
p2305
S'suggested'
p2306
sS'3411'
p2307
S'reliably'
p2308
sS'3418'
p2309
S'harmonist'
p2310
sS'3419'
p2311
S'harmony'
p2312
sS'4868'
p2313
S'replaces'
p2314
sS'4869'
p2315
S'passed'
p2316
sS'2019'
p2317
S'lacks'
p2318
sS'2018'
p2319
S'delivering'
p2320
sS'2015'
p2321
S'mm'
p2322
sS'2014'
p2323
S'0'
p2324
sS'2017'
p2325
S'ive'
p2326
sS'2016'
p2327
S'sits'
p2328
sS'2011'
p2329
S'collect'
p2330
sS'2010'
p2331
S'collector'
p2332
sS'2013'
p2333
S'babies'
p2334
sS'4865'
p2335
S'boat'
p2336
sS'458'
p2337
S'bring'
p2338
sS'1349'
p2339
S'touch'
p2340
sS'450'
p2341
S'stuff'
p2342
sS'451'
p2343
S'venue'
p2344
sS'1342'
p2345
S'card'
p2346
sS'453'
p2347
S'keeping'
p2348
sS'454'
p2349
S'upright'
p2350
sS'455'
p2351
S'size'
p2352
sS'1346'
p2353
S'superior'
p2354
sS'1347'
p2355
S'aspects'
p2356
sS'832'
p2357
S'figuring'
p2358
sS'833'
p2359
S'fretboard'
p2360
sS'752'
p2361
S'wishing'
p2362
sS'4008'
p2363
S'contrary'
p2364
sS'4009'
p2365
S'stored'
p2366
sS'4000'
p2367
S'reaction'
p2368
sS'4001'
p2369
S'growing'
p2370
sS'4002'
p2371
S'assortment'
p2372
sS'4003'
p2373
S'batch'
p2374
sS'4004'
p2375
S'exceptional'
p2376
sS'4005'
p2377
S'shelf'
p2378
sS'4006'
p2379
S'pig'
p2380
sS'4007'
p2381
S'guards'
p2382
sS'3971'
p2383
S'afraid'
p2384
sS'3970'
p2385
S'knock-off'
p2386
sS'3973'
p2387
S'rigid'
p2388
sS'3972'
p2389
S'guarantee'
p2390
sS'3975'
p2391
S'bassy'
p2392
sS'3974'
p2393
S'redundant'
p2394
sS'3977'
p2395
S'snobs'
p2396
sS'3976'
p2397
S'fiddling'
p2398
sS'3979'
p2399
S'wireless'
p2400
sS'3978'
p2401
S'includes'
p2402
sS'3629'
p2403
S'rocksmith'
p2404
sS'3628'
p2405
S'baritone'
p2406
sS'3621'
p2407
S'interfere'
p2408
sS'3620'
p2409
S'town'
p2410
sS'3623'
p2411
S'swapping'
p2412
sS'3622'
p2413
S'answer'
p2414
sS'3625'
p2415
S'cuz'
p2416
sS'3624'
p2417
S'pipe'
p2418
sS'3627'
p2419
S'discover'
p2420
sS'3626'
p2421
S'sanded'
p2422
sS'4479'
p2423
S'workout'
p2424
sS'4478'
p2425
S'data'
p2426
sS'2955'
p2427
S'wrap'
p2428
sS'4471'
p2429
S'downloading'
p2430
sS'4470'
p2431
S'dp-03'
p2432
sS'4473'
p2433
S'instant'
p2434
sS'4472'
p2435
S'explore'
p2436
sS'4475'
p2437
S'inevitable'
p2438
sS'4474'
p2439
S'dealing'
p2440
sS'4477'
p2441
S'roughly'
p2442
sS'4476'
p2443
S'images'
p2444
sS'2953'
p2445
S'fretless'
p2446
sS'2464'
p2447
S'industry'
p2448
sS'2465'
p2449
S'kids'
p2450
sS'2466'
p2451
S'horizontal'
p2452
sS'2467'
p2453
S'axis'
p2454
sS'2460'
p2455
S'security'
p2456
sS'2461'
p2457
S'000'
p2458
sS'2462'
p2459
S'shocked'
p2460
sS'2463'
p2461
S'community'
p2462
sS'2468'
p2463
S'creating'
p2464
sS'2469'
p2465
S'tightening'
p2466
sS'1026'
p2467
S'screwed'
p2468
sS'1021'
p2469
S'round'
p2470
sS'1020'
p2471
S'slotted'
p2472
sS'1023'
p2473
S'piece'
p2474
sS'5343'
p2475
S'disconnected'
p2476
sS'5348'
p2477
S'40-50'
p2478
sS'5349'
p2479
S'national'
p2480
sS'1645'
p2481
S'dials'
p2482
sS'1644'
p2483
S'adjustment'
p2484
sS'1647'
p2485
S'character'
p2486
sS'1646'
p2487
S'pace'
p2488
sS'1641'
p2489
S'powered'
p2490
sS'1640'
p2491
S'patch'
p2492
sS'1643'
p2493
S'triple'
p2494
sS'1642'
p2495
S'enhance'
p2496
sS'1649'
p2497
S'convenient'
p2498
sS'1648'
p2499
S'dead-on'
p2500
sS'579'
p2501
S'individual'
p2502
sS'578'
p2503
S'comparison'
p2504
sS'573'
p2505
S'mogami'
p2506
sS'572'
p2507
S'reputation'
p2508
sS'571'
p2509
S'peace'
p2510
sS'570'
p2511
S'paying'
p2512
sS'577'
p2513
S'transparent'
p2514
sS'576'
p2515
S'produced'
p2516
sS'575'
p2517
S'investment'
p2518
sS'574'
p2519
S'gold'
p2520
sS'2808'
p2521
S'classes'
p2522
sS'2809'
p2523
S'church'
p2524
sS'2802'
p2525
S'providing'
p2526
sS'2803'
p2527
S'acoustic/electric'
p2528
sS'2800'
p2529
S'obvious'
p2530
sS'2801'
p2531
S'mentioning'
p2532
sS'2806'
p2533
S'release'
p2534
sS'2807'
p2535
S'u2'
p2536
sS'2804'
p2537
S'rare'
p2538
sS'2805'
p2539
S'glove'
p2540
sS'5432'
p2541
S'bluetooth'
p2542
sS'5433'
p2543
S'eliminated'
p2544
sS'1423'
p2545
S'heft'
p2546
sS'5431'
p2547
S'vine'
p2548
sS'5436'
p2549
S'accomplishes'
p2550
sS'5437'
p2551
S'asio'
p2552
sS'5434'
p2553
S'meteor'
p2554
sS'5435'
p2555
S'multitude'
p2556
sS'3364'
p2557
S'fool'
p2558
sS'3365'
p2559
S'worries'
p2560
sS'5438'
p2561
S'itunes'
p2562
sS'5439'
p2563
S'faded'
p2564
sS'3360'
p2565
S'shorted'
p2566
sS'3361'
p2567
S'waiting'
p2568
sS'3362'
p2569
S'podcast'
p2570
sS'3363'
p2571
S'rotating'
p2572
sS'4273'
p2573
S'minus'
p2574
sS'4272'
p2575
S'flute'
p2576
sS'4271'
p2577
S'severely'
p2578
sS'4270'
p2579
S'nickels'
p2580
sS'4277'
p2581
S'fighting'
p2582
sS'4276'
p2583
S'ugly'
p2584
sS'4275'
p2585
S'menus'
p2586
sS'4274'
p2587
S'assembly'
p2588
sS'1201'
p2589
S'favorite'
p2590
sS'4279'
p2591
S'supports'
p2592
sS'4278'
p2593
S'homemade'
p2594
sS'1200'
p2595
S'kicked'
p2596
sS'5555'
p2597
S'exotic'
p2598
sS'4862'
p2599
S'notably'
p2600
sS'5557'
p2601
S'earthwood'
p2602
sS'5556'
p2603
S'rage'
p2604
sS'5551'
p2605
S'juice'
p2606
sS'5550'
p2607
S'jcm'
p2608
sS'5553'
p2609
S'wondered'
p2610
sS'4863'
p2611
S'entertainment'
p2612
sS'5559'
p2613
S'sign'
p2614
sS'4860'
p2615
S'nuances'
p2616
sS'4861'
p2617
S'handed'
p2618
sS'4866'
p2619
S'shredding'
p2620
sS'4867'
p2621
S'charts'
p2622
sS'4864'
p2623
S'spit'
p2624
sS'2012'
p2625
S'seller'
p2626
sS'5129'
p2627
S'glassy'
p2628
sS'357'
p2629
S'worse'
p2630
sS'356'
p2631
S'monster'
p2632
sS'355'
p2633
S'sounding'
p2634
sS'354'
p2635
S'practicing'
p2636
sS'353'
p2637
S'isnt'
p2638
sS'352'
p2639
S'3'
p2640
sS'351'
p2641
S'learned'
p2642
sS'350'
p2643
S'deal'
p2644
sS'359'
p2645
S'angled'
p2646
sS'358'
p2647
S'complain'
p2648
sS'4855'
p2649
S'intellitouch'
p2650
sS'2190'
p2651
S'facing'
p2652
sS'3225'
p2653
S'country'
p2654
sS'4632'
p2655
S'gt-100'
p2656
sS'2192'
p2657
S'phantom'
p2658
sS'2193'
p2659
S'48v'
p2660
sS'2259'
p2661
S'loudly'
p2662
sS'2258'
p2663
S'decade'
p2664
sS'2257'
p2665
S'didnt'
p2666
sS'4637'
p2667
S'invested'
p2668
sS'2255'
p2669
S'shoulder'
p2670
sS'2254'
p2671
S'doesnt'
p2672
sS'2253'
p2673
S'tripod'
p2674
sS'2252'
p2675
S'advice'
p2676
sS'2251'
p2677
S'dimensions'
p2678
sS'4636'
p2679
S'5-string'
p2680
sS'3224'
p2681
S'distort'
p2682
sS'4635'
p2683
S'magic'
p2684
sS'4634'
p2685
S'joke'
p2686
sS'4800'
p2687
S'turbo'
p2688
sS'3227'
p2689
S'deville'
p2690
sS'4802'
p2691
S'observations'
p2692
sS'4638'
p2693
S'whisper'
p2694
sS'4804'
p2695
S'flashy'
p2696
sS'4805'
p2697
S'overload'
p2698
sS'4806'
p2699
S'accommodate'
p2700
sS'4807'
p2701
S'chemical'
p2702
sS'4808'
p2703
S'instructional'
p2704
sS'4809'
p2705
S'load'
p2706
sS'2789'
p2707
S'buzz'
p2708
sS'2788'
p2709
S"'just"
p2710
sS'2079'
p2711
S'create'
p2712
sS'2078'
p2713
S'offset'
p2714
sS'2073'
p2715
S'dream'
p2716
sS'2072'
p2717
S'tabs'
p2718
sS'2071'
p2719
S'kyser'
p2720
sS'2070'
p2721
S'g7th'
p2722
sS'2077'
p2723
S'sooner'
p2724
sS'2076'
p2725
S'estate'
p2726
sS'2075'
p2727
S'stompbox'
p2728
sS'2074'
p2729
S'sn-1'
p2730
sS'3221'
p2731
S'humble'
p2732
sS'3220'
p2733
S"'em"
p2734
sS'3223'
p2735
S'soundboard'
p2736
sS'3222'
p2737
S'daughter'
p2738
sS'4398'
p2739
S'stroke'
p2740
sS'4399'
p2741
S'cobalt'
p2742
sS'4390'
p2743
S'batter'
p2744
sS'4391'
p2745
S'attacks'
p2746
sS'4392'
p2747
S'evans'
p2748
sS'4393'
p2749
S'g2'
p2750
sS'4394'
p2751
S'zone'
p2752
sS'4395'
p2753
S'strikes'
p2754
sS'4396'
p2755
S'credit'
p2756
sS'4397'
p2757
S'clutch'
p2758
sS'3197'
p2759
S'oomph'
p2760
sS'1367'
p2761
S'poor'
p2762
sS'470'
p2763
S'inexpensive'
p2764
sS'3194'
p2765
S'cushioning'
p2766
sS'3193'
p2767
S'buckles'
p2768
sS'3192'
p2769
S'streaks'
p2770
sS'3191'
p2771
S'grime'
p2772
sS'3190'
p2773
S'sixties'
p2774
sS'478'
p2775
S'easily'
p2776
sS'479'
p2777
S'readable'
p2778
sS'3199'
p2779
S'podcasts'
p2780
sS'3198'
p2781
S'disappointment'
p2782
sS'4026'
p2783
S'swings'
p2784
sS'4027'
p2785
S'editing'
p2786
sS'4024'
p2787
S'caution'
p2788
sS'4025'
p2789
S'cradles'
p2790
sS'4022'
p2791
S'clutter'
p2792
sS'4023'
p2793
S'whichever'
p2794
sS'4020'
p2795
S'rotate'
p2796
sS'4021'
p2797
S'creates'
p2798
sS'4028'
p2799
S'edited'
p2800
sS'4029'
p2801
S'fairness'
p2802
sS'3999'
p2803
S'grain'
p2804
sS'3998'
p2805
S'snob'
p2806
sS'3997'
p2807
S'exceed'
p2808
sS'3996'
p2809
S'enought'
p2810
sS'3995'
p2811
S'luckily'
p2812
sS'3994'
p2813
S'slit'
p2814
sS'3993'
p2815
S'volts'
p2816
sS'3992'
p2817
S'isolated'
p2818
sS'3991'
p2819
S'indoor'
p2820
sS'3990'
p2821
S'door'
p2822
sS'298'
p2823
S'bass'
p2824
sS'299'
p2825
S'comfortable'
p2826
sS'296'
p2827
S'coloration'
p2828
sS'297'
p2829
S'detect'
p2830
sS'294'
p2831
S'listening'
p2832
sS'295'
p2833
S'accurate'
p2834
sS'292'
p2835
S'bucks'
p2836
sS'293'
p2837
S'reference'
p2838
sS'290'
p2839
S'spent'
p2840
sS'291'
p2841
S'25'
p2842
sS'587'
p2843
S'held'
p2844
sS'581'
p2845
S'matter'
p2846
sS'5487'
p2847
S'sax'
p2848
sS'2442'
p2849
S'talk'
p2850
sS'2443'
p2851
S'processor'
p2852
sS'2440'
p2853
S'sleeping'
p2854
sS'2441'
p2855
S'unnecessary'
p2856
sS'2446'
p2857
S'dunlops'
p2858
sS'2447'
p2859
S'35'
p2860
sS'2444'
p2861
S'stepping'
p2862
sS'2445'
p2863
S'slow'
p2864
sS'2448'
p2865
S'invented'
p2866
sS'2449'
p2867
S'originals'
p2868
sS'5486'
p2869
S'experimentation'
p2870
sS'5485'
p2871
S'sick'
p2872
sS'5484'
p2873
S'difficulties'
p2874
sS'5483'
p2875
S'v2'
p2876
sS'5407'
p2877
S'guitalele'
p2878
sS'5406'
p2879
S'illumination'
p2880
sS'1434'
p2881
S'wife'
p2882
sS'5482'
p2883
S'pb'
p2884
sS'1435'
p2885
S'surprising'
p2886
sS'1432'
p2887
S'threw'
p2888
sS'1433'
p2889
S'list'
p2890
sS'1623'
p2891
S'invisible'
p2892
sS'1622'
p2893
S'amazingly'
p2894
sS'1621'
p2895
S'winding'
p2896
sS'1620'
p2897
S'sitting'
p2898
sS'1627'
p2899
S'slick'
p2900
sS'1626'
p2901
S'terrific'
p2902
sS'1625'
p2903
S'chore'
p2904
sS'1624'
p2905
S'guitarists'
p2906
sS'1999'
p2907
S'hundreds'
p2908
sS'1998'
p2909
S'thousands'
p2910
sS'1629'
p2911
S'residue'
p2912
sS'1628'
p2913
S'enjoyable'
p2914
sS'3209'
p2915
S'hat'
p2916
sS'3208'
p2917
S'latch'
p2918
sS'5058'
p2919
S'b/c'
p2920
sS'5059'
p2921
S'boys'
p2922
sS'2860'
p2923
S'washers'
p2924
sS'2861'
p2925
S'increased'
p2926
sS'2862'
p2927
S'habit'
p2928
sS'2863'
p2929
S'verify'
p2930
sS'559'
p2931
S'korg'
p2932
sS'558'
p2933
S'hang'
p2934
sS'2866'
p2935
S'strapped'
p2936
sS'2867'
p2937
S'precious'
p2938
sS'555'
p2939
S'stars'
p2940
sS'554'
p2941
S'surface'
p2942
sS'557'
p2943
S'shipped'
p2944
sS'556'
p2945
S'prices'
p2946
sS'551'
p2947
S'standard'
p2948
sS'550'
p2949
S'thicker'
p2950
sS'553'
p2951
S'gripping'
p2952
sS'552'
p2953
S'notice'
p2954
sS'3539'
p2955
S'no-brainer'
p2956
sS'1438'
p2957
S'shut'
p2958
sS'5055'
p2959
S'fm'
p2960
sS'5408'
p2961
S'burst'
p2962
sS'1199'
p2963
S'positioned'
p2964
sS'1198'
p2965
S'save'
p2966
sS'3348'
p2967
S'liking'
p2968
sS'3349'
p2969
S'phospher'
p2970
sS'1191'
p2971
S'originally'
p2972
sS'1190'
p2973
S'unaware'
p2974
sS'1193'
p2975
S'mount'
p2976
sS'1192'
p2977
S'threaded'
p2978
sS'1195'
p2979
S'13'
p2980
sS'1194'
p2981
S'pole'
p2982
sS'1197'
p2983
S'popped'
p2984
sS'1196'
p2985
S'arms'
p2986
sS'4259'
p2987
S'cabling'
p2988
sS'4258'
p2989
S'movies'
p2990
sS'4251'
p2991
S'shoulders'
p2992
sS'4250'
p2993
S'talked'
p2994
sS'4253'
p2995
S'florida'
p2996
sS'4252'
p2997
S'regrets'
p2998
sS'4255'
p2999
S'deteriorate'
p3000
sS'4254'
p3001
S'assure'
p3002
sS'4257'
p3003
S'violins'
p3004
sS'4256'
p3005
S'chromatic'
p3006
sS'5533'
p3007
S'workbench'
p3008
sS'5532'
p3009
S'cheapies'
p3010
sS'5531'
p3011
S'wasted'
p3012
sS'5530'
p3013
S'chip'
p3014
sS'5537'
p3015
S'bomb'
p3016
sS'5536'
p3017
S'mahalo'
p3018
sS'5535'
p3019
S'mechanics'
p3020
sS'5534'
p3021
S'enabled'
p3022
sS'5539'
p3023
S'aged'
p3024
sS'5538'
p3025
S'leash'
p3026
sS'1348'
p3027
S'90'
p3028
sS'459'
p3029
S'portability'
p3030
sS'4263'
p3031
S'kazoo'
p3032
sS'5100'
p3033
S'guts'
p3034
sS'1340'
p3035
S'god'
p3036
sS'1341'
p3037
S'person'
p3038
sS'452'
p3039
S'handy'
p3040
sS'3834'
p3041
S'dance'
p3042
sS'3835'
p3043
S'chamber'
p3044
sS'3836'
p3045
S'dean'
p3046
sS'3837'
p3047
S'markley'
p3048
sS'3830'
p3049
S'skinny'
p3050
sS'3831'
p3051
S'nightmare'
p3052
sS'3832'
p3053
S'city'
p3054
sS'3833'
p3055
S'funny'
p3056
sS'1344'
p3057
S'tu-3'
p3058
sS'3838'
p3059
S'22'
p3060
sS'3839'
p3061
S'raise'
p3062
sS'1345'
p3063
S'mins'
p3064
sS'456'
p3065
S'weight'
p3066
sS'457'
p3067
S'considerations'
p3068
sS'379'
p3069
S'bigger'
p3070
sS'378'
p3071
S'helped'
p3072
sS'371'
p3073
S'picks'
p3074
sS'370'
p3075
S'bat'
p3076
sS'373'
p3077
S'start'
p3078
sS'372'
p3079
S'trust'
p3080
sS'375'
p3081
S'technique'
p3082
sS'374'
p3083
S'proper'
p3084
sS'377'
p3085
S'rapidly'
p3086
sS'376'
p3087
S'improve'
p3088
sS'5104'
p3089
S'ai'
p3090
sS'5549'
p3091
S'stamped'
p3092
sS'2275'
p3093
S'bumped'
p3094
sS'2274'
p3095
S'brace'
p3096
sS'2277'
p3097
S'instructions'
p3098
sS'2276'
p3099
S'bare'
p3100
sS'2271'
p3101
S'cardboard'
p3102
sS'2270'
p3103
S'leaning'
p3104
sS'2273'
p3105
S'post'
p3106
sS'2272'
p3107
S'rear'
p3108
sS'2279'
p3109
S'sucks'
p3110
sS'2278'
p3111
S'concept'
p3112
sS'5543'
p3113
S'linked'
p3114
sS'5545'
p3115
S'readjust'
p3116
sS'2051'
p3117
S'rhythm'
p3118
sS'2050'
p3119
S'started'
p3120
sS'2053'
p3121
S'warning'
p3122
sS'2052'
p3123
S'solos'
p3124
sS'2055'
p3125
S'talking'
p3126
sS'2054'
p3127
S'charge'
p3128
sS'2057'
p3129
S'rat'
p3130
sS'4829'
p3131
S'bits'
p3132
sS'2059'
p3133
S'converter'
p3134
sS'2058'
p3135
S'consistently'
p3136
sS'4824'
p3137
S'buyers'
p3138
sS'4537'
p3139
S'slapping'
p3140
sS'4822'
p3141
S'wax'
p3142
sS'4531'
p3143
S'oddly'
p3144
sS'4532'
p3145
S'remind'
p3146
sS'4821'
p3147
S'ax'
p3148
sS'3783'
p3149
S'prop'
p3150
sS'3786'
p3151
S'heil'
p3152
sS'414'
p3153
S'sm-57'
p3154
sS'415'
p3155
S'roland'
p3156
sS'416'
p3157
S'volume'
p3158
sS'417'
p3159
S'natural'
p3160
sS'410'
p3161
S'trip'
p3162
sS'411'
p3163
S'onboard'
p3164
sS'412'
p3165
S'preamp'
p3166
sS'413'
p3167
S'shure'
p3168
sS'1384'
p3169
S'afford'
p3170
sS'1385'
p3171
S'ampeg'
p3172
sS'1386'
p3173
S'developed'
p3174
sS'1387'
p3175
S'annoying'
p3176
sS'418'
p3177
S'transport'
p3178
sS'419'
p3179
S'choice'
p3180
sS'1382'
p3181
S'forget'
p3182
sS'1383'
p3183
S'drain'
p3184
sS'1775'
p3185
S'excessive'
p3186
sS'1774'
p3187
S'suited'
p3188
sS'1777'
p3189
S'lit'
p3190
sS'5277'
p3191
S'solutions'
p3192
sS'5270'
p3193
S'indestructable'
p3194
sS'1770'
p3195
S'bones'
p3196
sS'5463'
p3197
S'07'
p3198
sS'5272'
p3199
S'mid-gain'
p3200
sS'5273'
p3201
S'retain'
p3202
sS'5462'
p3203
S'abalone'
p3204
sS'5278'
p3205
S'slippage'
p3206
sS'5279'
p3207
S'nitrocellulose'
p3208
sS'5465'
p3209
S'imac'
p3210
sS'5464'
p3211
S'companion'
p3212
sS'2428'
p3213
S'stereo'
p3214
sS'2429'
p3215
S'lucky'
p3216
sS'2420'
p3217
S'descriptions'
p3218
sS'2421'
p3219
S'apply'
p3220
sS'2422'
p3221
S'worthless'
p3222
sS'2423'
p3223
S'unplugging'
p3224
sS'2424'
p3225
S'matters'
p3226
sS'2425'
p3227
S'source'
p3228
sS'2426'
p3229
S'reproduce'
p3230
sS'2427'
p3231
S'inaccurate'
p3232
sS'5467'
p3233
S'crammed'
p3234
sS'3461'
p3235
S'squeak'
p3236
sS'5466'
p3237
S'irrelevant'
p3238
sS'3460'
p3239
S'minimal'
p3240
sS'1814'
p3241
S'oil'
p3242
sS'1815'
p3243
S'fingerprints'
p3244
sS'1816'
p3245
S'axe'
p3246
sS'1817'
p3247
S'removes'
p3248
sS'1810'
p3249
S'untreated'
p3250
sS'1811'
p3251
S'polishing'
p3252
sS'1812'
p3253
S'fantastic'
p3254
sS'1813'
p3255
S'removing'
p3256
sS'1818'
p3257
S'polishes'
p3258
sS'1819'
p3259
S'baby'
p3260
sS'2165'
p3261
S'slinky'
p3262
sS'2164'
p3263
S'surprises'
p3264
sS'2167'
p3265
S'analog'
p3266
sS'1609'
p3267
S'cracks'
p3268
sS'1608'
p3269
S'touching'
p3270
sS'2166'
p3271
S'factor'
p3272
sS'3229'
p3273
S'4x12'
p3274
sS'3228'
p3275
S'mk'
p3276
sS'1979'
p3277
S'imo'
p3278
sS'1978'
p3279
S'demo'
p3280
sS'1977'
p3281
S'adjustability'
p3282
sS'1976'
p3283
S'loosen'
p3284
sS'1975'
p3285
S'confused'
p3286
sS'1974'
p3287
S'prevents'
p3288
sS'1973'
p3289
S'colours'
p3290
sS'1972'
p3291
S'capos'
p3292
sS'1971'
p3293
S'prongs'
p3294
sS'1970'
p3295
S'gently'
p3296
sS'2163'
p3297
S'66'
p3298
sS'4955'
p3299
S'tilting'
p3300
sS'2848'
p3301
S'slim'
p3302
sS'2849'
p3303
S'duncan'
p3304
sS'2846'
p3305
S'caused'
p3306
sS'2847'
p3307
S'compressing'
p3308
sS'2844'
p3309
S'dropped'
p3310
sS'2845'
p3311
S'suffered'
p3312
sS'2842'
p3313
S'plucking'
p3314
sS'2843'
p3315
S'shy'
p3316
sS'2840'
p3317
S'letters'
p3318
sS'2841'
p3319
S'sideways'
p3320
sS'3320'
p3321
S'familiar'
p3322
sS'3321'
p3323
S'sweat'
p3324
sS'3322'
p3325
S'heat'
p3326
sS'3323'
p3327
S'disconnect'
p3328
sS'3324'
p3329
S'multi-plug'
p3330
sS'3325'
p3331
S'wart'
p3332
sS'3326'
p3333
S'gb'
p3334
sS'3327'
p3335
S'slap-back'
p3336
sS'3328'
p3337
S'rehearsing'
p3338
sS'3329'
p3339
S'yesterday'
p3340
sS'5478'
p3341
S'blueridge'
p3342
sS'5479'
p3343
S'sparkling'
p3344
sS'5519'
p3345
S'everytime'
p3346
sS'5518'
p3347
S'll'
p3348
sS'5511'
p3349
S'separated'
p3350
sS'3038'
p3351
S'c-1'
p3352
sS'5513'
p3353
S'notebook'
p3354
sS'5512'
p3355
S'joints'
p3356
sS'5515'
p3357
S'alignment'
p3358
sS'5514'
p3359
S'2gb'
p3360
sS'5517'
p3361
S'converters'
p3362
sS'1554'
p3363
S'adjusts'
p3364
sS'537'
p3365
S'pay'
p3366
sS'536'
p3367
S'pieces'
p3368
sS'535'
p3369
S'4'
p3370
sS'534'
p3371
S'day'
p3372
sS'533'
p3373
S'worn'
p3374
sS'532'
p3375
S'fast'
p3376
sS'531'
p3377
S'durability'
p3378
sS'530'
p3379
S'lack'
p3380
sS'539'
p3381
S'low'
p3382
sS'538'
p3383
S'buying'
p3384
sS'1908'
p3385
S'cymbal'
p3386
sS'1909'
p3387
S'surfaces'
p3388
sS'3294'
p3389
S'ons'
p3390
sS'1907'
p3391
S'percussion'
p3392
sS'3296'
p3393
S'poly'
p3394
sS'1905'
p3395
S'learn'
p3396
sS'1902'
p3397
S'quietly'
p3398
sS'3291'
p3399
S'hardwood'
p3400
sS'5131'
p3401
S'sexy'
p3402
sS'1901'
p3403
S'muffling'
p3404
sS'3812'
p3405
S'raw'
p3406
sS'3813'
p3407
S'marshalls'
p3408
sS'3810'
p3409
S'simulates'
p3410
sS'3811'
p3411
S'db'
p3412
sS'3816'
p3413
S'18v'
p3414
sS'3817'
p3415
S'stompboxes'
p3416
sS'3814'
p3417
S'emphasis'
p3418
sS'3815'
p3419
S'88'
p3420
sS'3818'
p3421
S'retune'
p3422
sS'3819'
p3423
S'marginally'
p3424
sS'2213'
p3425
S'versions'
p3426
sS'2212'
p3427
S'forgot'
p3428
sS'2211'
p3429
S'tougher'
p3430
sS'2210'
p3431
S'explanation'
p3432
sS'2217'
p3433
S'track'
p3434
sS'2216'
p3435
S'falling'
p3436
sS'2215'
p3437
S'coating'
p3438
sS'2214'
p3439
S'softer'
p3440
sS'2219'
p3441
S'develop'
p3442
sS'2218'
p3443
S'cutters'
p3444
sS'4518'
p3445
S'marring'
p3446
sS'4519'
p3447
S'fence'
p3448
sS'4512'
p3449
S'shift'
p3450
sS'4513'
p3451
S'storing'
p3452
sS'4510'
p3453
S'synth'
p3454
sS'4511'
p3455
S'effortlessly'
p3456
sS'4516'
p3457
S'king'
p3458
sS'4517'
p3459
S'party'
p3460
sS'4514'
p3461
S'downward'
p3462
sS'4515'
p3463
S'shapes'
p3464
sS'5289'
p3465
S'progression'
p3466
sS'5288'
p3467
S'jensen'
p3468
sS'5281'
p3469
S'crowded'
p3470
sS'5280'
p3471
S'lacquer'
p3472
sS'5283'
p3473
S'metalic'
p3474
sS'5282'
p3475
S'germany'
p3476
sS'5285'
p3477
S'no-frills'
p3478
sS'5284'
p3479
S'quibble'
p3480
sS'5287'
p3481
S'stacking'
p3482
sS'5286'
p3483
S'fizzy'
p3484
sS'2989'
p3485
S'stretched'
p3486
sS'2988'
p3487
S'gears'
p3488
sS'2983'
p3489
S'slid'
p3490
sS'2982'
p3491
S'wound'
p3492
sS'2981'
p3493
S'45'
p3494
sS'2980'
p3495
S'removable'
p3496
sS'2987'
p3497
S'pressing'
p3498
sS'2986'
p3499
S'pushing'
p3500
sS'2985'
p3501
S'groove'
p3502
sS'2984'
p3503
S'closest'
p3504
sS'1018'
p3505
S'rated'
p3506
sS'1019'
p3507
S'philips'
p3508
sS'1014'
p3509
S'wall'
p3510
sS'1015'
p3511
S'anchors'
p3512
sS'1016'
p3513
S'local'
p3514
sS'1017'
p3515
S'hardware'
p3516
sS'1010'
p3517
S'provided'
p3518
sS'1011'
p3519
S'full-size'
p3520
sS'1012'
p3521
S'plugs'
p3522
sS'1013'
p3523
S'hanger'
p3524
sS'4358'
p3525
S'requirement'
p3526
sS'4359'
p3527
S'specially'
p3528
sS'4354'
p3529
S'english'
p3530
sS'4355'
p3531
S'relationship'
p3532
sS'4356'
p3533
S'disturbing'
p3534
sS'4357'
p3535
S'reggae'
p3536
sS'4350'
p3537
S'cts'
p3538
sS'4351'
p3539
S'peavy'
p3540
sS'4352'
p3541
S'introduce'
p3542
sS'4353'
p3543
S'depends'
p3544
sS'438'
p3545
S'pivot'
p3546
sS'439'
p3547
S'controlled'
p3548
sS'436'
p3549
S'attach'
p3550
sS'437'
p3551
S'simpler'
p3552
sS'434'
p3553
S'solution'
p3554
sS'435'
p3555
S'boom'
p3556
sS'432'
p3557
S'perfect'
p3558
sS'433'
p3559
S'usual'
p3560
sS'430'
p3561
S'forward'
p3562
sS'431'
p3563
S'gadget'
p3564
sS'1436'
p3565
S'surprise'
p3566
sS'5708'
p3567
S'smile'
p3568
sS'5709'
p3569
S'11-52'
p3570
sS'5704'
p3571
S'protools'
p3572
sS'5705'
p3573
S'financial'
p3574
sS'5706'
p3575
S'gross'
p3576
sS'5707'
p3577
S'swipe'
p3578
sS'5700'
p3579
S'recommending'
p3580
sS'5701'
p3581
S'mexico'
p3582
sS'5702'
p3583
S'micro-fiber'
p3584
sS'5703'
p3585
S'science'
p3586
sS'1437'
p3587
S'struggle'
p3588
sS'1050'
p3589
S'stiff'
p3590
sS'1051'
p3591
S'preferred'
p3592
sS'1052'
p3593
S'realized'
p3594
sS'1430'
p3595
S'esp'
p3596
sS'5354'
p3597
S'beef'
p3598
sS'1054'
p3599
S'straps'
p3600
sS'1055'
p3601
S'surgery'
p3602
sS'1056'
p3603
S'painful'
p3604
sS'1057'
p3605
S'pressure'
p3606
sS'1431'
p3607
S'fitting'
p3608
sS'1832'
p3609
S'grease'
p3610
sS'1833'
p3611
S'beer'
p3612
sS'1830'
p3613
S'pleasant'
p3614
sS'1831'
p3615
S'scent'
p3616
sS'1836'
p3617
S'tension'
p3618
sS'3798'
p3619
S'tubescreamer'
p3620
sS'1834'
p3621
S'sweet'
p3622
sS'1835'
p3623
S'springs'
p3624
sS'3795'
p3625
S'chunk'
p3626
sS'3794'
p3627
S'hump'
p3628
sS'1838'
p3629
S'trem'
p3630
sS'3796'
p3631
S'moon'
p3632
sS'3791'
p3633
S'existing'
p3634
sS'3790'
p3635
S'fx'
p3636
sS'3793'
p3637
S'recorders'
p3638
sS'3792'
p3639
S'optimal'
p3640
sS'4981'
p3641
S'bite'
p3642
sS'4980'
p3643
S'min'
p3644
sS'4983'
p3645
S'phenomenal'
p3646
sS'2157'
p3647
S'jim'
p3648
sS'4985'
p3649
S'garageband'
p3650
sS'4984'
p3651
S'behave'
p3652
sS'2400'
p3653
S'screaming'
p3654
sS'4986'
p3655
S'written'
p3656
sS'4989'
p3657
S'swell'
p3658
sS'4988'
p3659
S'pizza'
p3660
sS'2158'
p3661
S'glass'
p3662
sS'2159'
p3663
S'describing'
p3664
sS'2408'
p3665
S'diaphragm'
p3666
sS'2409'
p3667
S'quieter'
p3668
sS'1955'
p3669
S'requires'
p3670
sS'1954'
p3671
S'mechanism'
p3672
sS'1957'
p3673
S'engaged'
p3674
sS'1956'
p3675
S'unlock'
p3676
sS'1951'
p3677
S'angle'
p3678
sS'1950'
p3679
S'resting'
p3680
sS'1953'
p3681
S'accident'
p3682
sS'1952'
p3683
S'experimented'
p3684
sS'1959'
p3685
S'releases'
p3686
sS'1958'
p3687
S'placing'
p3688
sS'3249'
p3689
S'godsend'
p3690
sS'3248'
p3691
S'suppressor'
p3692
sS'3243'
p3693
S"'n"
p3694
sS'3242'
p3695
S'70s'
p3696
sS'3241'
p3697
S'60s'
p3698
sS'3240'
p3699
S'rocking'
p3700
sS'3247'
p3701
S'ns-2'
p3702
sS'3246'
p3703
S'boosting'
p3704
sS'3245'
p3705
S'amplified'
p3706
sS'1990'
p3707
S'modest'
p3708
sS'4925'
p3709
S'sampler'
p3710
sS'1993'
p3711
S'epiphones'
p3712
sS'1483'
p3713
S'shine'
p3714
sS'1482'
p3715
S'bands'
p3716
sS'1481'
p3717
S'rubber'
p3718
sS'1480'
p3719
S'desk'
p3720
sS'1487'
p3721
S'saved'
p3722
sS'1486'
p3723
S'amazed'
p3724
sS'1485'
p3725
S'swing'
p3726
sS'1484'
p3727
S'awhile'
p3728
sS'3306'
p3729
S'beefier'
p3730
sS'3307'
p3731
S'genius'
p3732
sS'1489'
p3733
S'restrung'
p3734
sS'1488'
p3735
S'20'
p3736
sS'3302'
p3737
S'legendary'
p3738
sS'3303'
p3739
S'zinc'
p3740
sS'3300'
p3741
S'uneven'
p3742
sS'3301'
p3743
S'wan'
p3744
sS'1992'
p3745
S'penny'
p3746
sS'612'
p3747
S'beginner'
p3748
sS'613'
p3749
S'interface'
p3750
sS'610'
p3751
S'instrument'
p3752
sS'1273'
p3753
S'adapters'
p3754
sS'1995'
p3755
S'glue'
p3756
sS'1275'
p3757
S'check'
p3758
sS'2060'
p3759
S'electrical'
p3760
sS'614'
p3761
S'negative'
p3762
sS'2061'
p3763
S'engineer'
p3764
sS'615'
p3765
S'criticism'
p3766
sS'2062'
p3767
S'faulty'
p3768
sS'2063'
p3769
S'disappointing'
p3770
sS'1994'
p3771
S'tools'
p3772
sS'2064'
p3773
S'arsenal'
p3774
sS'2065'
p3775
S'good-sounding'
p3776
sS'519'
p3777
S'amazon'
p3778
sS'518'
p3779
S'prompt'
p3780
sS'2066'
p3781
S'ii'
p3782
sS'511'
p3783
S'jacks'
p3784
sS'510'
p3785
S'input'
p3786
sS'513'
p3787
S'install'
p3788
sS'512'
p3789
S'minute'
p3790
sS'515'
p3791
S'solved'
p3792
sS'514'
p3793
S'recognized'
p3794
sS'517'
p3795
S'free'
p3796
sS'516'
p3797
S'shipping'
p3798
sS'1227'
p3799
S'pickups'
p3800
sS'1226'
p3801
S'flubby'
p3802
sS'621'
p3803
S'ta'
p3804
sS'1224'
p3805
S'registers'
p3806
sS'1223'
p3807
S'upper'
p3808
sS'1222'
p3809
S'mid'
p3810
sS'1221'
p3811
S'crunchy'
p3812
sS'1220'
p3813
S'lightly'
p3814
sS'629'
p3815
S'construction'
p3816
sS'628'
p3817
S'issues'
p3818
sS'1229'
p3819
S'humbuckers'
p3820
sS'1228'
p3821
S'leave'
p3822
sS'3878'
p3823
S'scrapes'
p3824
sS'3879'
p3825
S'undone'
p3826
sS'3870'
p3827
S'mass'
p3828
sS'3871'
p3829
S'akg'
p3830
sS'3872'
p3831
S'perception'
p3832
sS'3873'
p3833
S'basis'
p3834
sS'3874'
p3835
S'leading'
p3836
sS'3875'
p3837
S'rise'
p3838
sS'3876'
p3839
S'dip'
p3840
sS'3877'
p3841
S'performer'
p3842
sS'4167'
p3843
S'sucked'
p3844
sS'4166'
p3845
S'kicks'
p3846
sS'4165'
p3847
S'filler'
p3848
sS'4164'
p3849
S'con'
p3850
sS'4163'
p3851
S'oops'
p3852
sS'4162'
p3853
S'120'
p3854
sS'4161'
p3855
S'fail'
p3856
sS'4160'
p3857
S'possibility'
p3858
sS'4169'
p3859
S'makers'
p3860
sS'4168'
p3861
S'gls'
p3862
sS'2239'
p3863
S'letting'
p3864
sS'2238'
p3865
S'extended'
p3866
sS'2231'
p3867
S'layer'
p3868
sS'2230'
p3869
S'lengthy'
p3870
sS'2233'
p3871
S'happily'
p3872
sS'2232'
p3873
S'creative'
p3874
sS'2235'
p3875
S'steady'
p3876
sS'2234'
p3877
S'patches'
p3878
sS'2237'
p3879
S'cold'
p3880
sS'2236'
p3881
S'extend'
p3882
sS'4608'
p3883
S'disc'
p3884
sS'3498'
p3885
S'regret'
p3886
sS'3499'
p3887
S'repeats'
p3888
sS'3496'
p3889
S'tossed'
p3890
sS'3497'
p3891
S'ultimately'
p3892
sS'3494'
p3893
S'exaggerated'
p3894
sS'3495'
p3895
S'trademark'
p3896
sS'3492'
p3897
S'artificial'
p3898
sS'3493'
p3899
S'long-term'
p3900
sS'3490'
p3901
S'infinite'
p3902
sS'3491'
p3903
S'mid-range'
p3904
sS'2095'
p3905
S'judge'
p3906
sS'2094'
p3907
S'notch'
p3908
sS'4572'
p3909
S'anniversary'
p3910
sS'4573'
p3911
S'soap'
p3912
sS'2091'
p3913
S'components'
p3914
sS'2090'
p3915
S'banjos'
p3916
sS'4576'
p3917
S'cube'
p3918
sS'2092'
p3919
S'frills'
p3920
sS'4578'
p3921
S'12s'
p3922
sS'4579'
p3923
S'11s'
p3924
sS'2099'
p3925
S'ships'
p3926
sS'2098'
p3927
S'5th'
p3928
sS'4605'
p3929
S'duo'
p3930
sS'3333'
p3931
S'bb'
p3932
sg2640
S'recommend'
p3933
sS'1038'
p3934
S'sadly'
p3935
sS'1039'
p3936
S'chose'
p3937
sS'1032'
p3938
S'covered'
p3939
sS'1033'
p3940
S'strain'
p3941
sS'1030'
p3942
S'hangs'
p3943
sS'1031'
p3944
S'cloth'
p3945
sS'1036'
p3946
S'serves'
p3947
sS'1037'
p3948
S'classical'
p3949
sS'1034'
p3950
S'thread'
p3951
sS'1035'
p3952
S'unscrew'
p3953
sS'4378'
p3954
S'yeti'
p3955
sS'4379'
p3956
S'stubby'
p3957
sS'4372'
p3958
S'58'
p3959
sS'4373'
p3960
S'owning'
p3961
sS'4370'
p3962
S'resonator'
p3963
sS'4371'
p3964
S'snapped'
p3965
sS'4376'
p3966
S'reply'
p3967
sS'4377'
p3968
S'naturally'
p3969
sS'4374'
p3970
S'fibers'
p3971
sS'4375'
p3972
S'washing'
p3973
sS'4080'
p3974
S'temperature'
p3975
sS'4081'
p3976
S'physical'
p3977
sS'4082'
p3978
S'presentation'
p3979
sS'4083'
p3980
S'meets'
p3981
sS'4084'
p3982
S'offering'
p3983
sS'4085'
p3984
S'seemingly'
p3985
sS'4086'
p3986
S'brittle'
p3987
sS'4087'
p3988
S'trees'
p3989
sS'4088'
p3990
S'gigged'
p3991
sS'4089'
p3992
S'boards'
p3993
sS'5728'
p3994
S'59'
p3995
sS'5729'
p3996
S'clockwise'
p3997
sS'5722'
p3998
S'barre'
p3999
sS'5723'
p4000
S'april'
p4001
sS'5720'
p4002
S'5*'
p4003
sS'5721'
p4004
S'nyc'
p4005
sS'5726'
p4006
S'suhr'
p4007
sS'5727'
p4008
S'noting'
p4009
sS'5724'
p4010
S'1990'
p4011
sS'5725'
p4012
S'amplugs'
p4013
sS'2396'
p4014
S'achieve'
p4015
sS'2397'
p4016
S'improving'
p4017
sS'2394'
p4018
S'capabilities'
p4019
sS'2395'
p4020
S'400'
p4021
sS'2392'
p4022
S'200'
p4023
sS'2393'
p4024
S'console'
p4025
sS'2390'
p4026
S'ignore'
p4027
sS'2391'
p4028
S'training'
p4029
sS'2398'
p4030
S'omni'
p4031
sS'2399'
p4032
S'directional'
p4033
sS'1858'
p4034
S'workmanship'
p4035
sS'1859'
p4036
S'350'
p4037
sS'5693'
p4038
S'customized'
p4039
sS'1850'
p4040
S'import'
p4041
sS'1851'
p4042
S'downsides'
p4043
sS'1852'
p4044
S'bump'
p4045
sS'1853'
p4046
S'nitro'
p4047
sS'1854'
p4048
S'finishes'
p4049
sS'1855'
p4050
S'tightly'
p4051
sS'1856'
p4052
S'prior'
p4053
sS'1857'
p4054
S'placement'
p4055
sS'2172'
p4056
S'unwanted'
p4057
sS'2173'
p4058
S'exact'
p4059
sS'2170'
p4060
S'pleasantly'
p4061
sS'2171'
p4062
S'reduce'
p4063
sS'2176'
p4064
S'reducing'
p4065
sS'2177'
p4066
S'recognize'
p4067
sS'2174'
p4068
S'clipping'
p4069
sS'2175'
p4070
S'sustained'
p4071
sS'4967'
p4072
S'wuhans'
p4073
sS'4966'
p4074
S'delicate'
p4075
sS'4965'
p4076
S'slinkies'
p4077
sS'2179'
p4078
S'friends'
p4079
sS'4963'
p4080
S'daunting'
p4081
sS'4962'
p4082
S'decisions'
p4083
sS'4961'
p4084
S'locally'
p4085
sS'4960'
p4086
S'agent'
p4087
sS'1421'
p4088
S'advantage'
p4089
sS'5694'
p4090
S'wary'
p4091
sS'1420'
p4092
S'decide'
p4093
sS'5695'
p4094
S'straploks'
p4095
sS'5430'
p4096
S'tandem'
p4097
sS'1933'
p4098
S'result'
p4099
sS'1932'
p4100
S'concerns'
p4101
sS'1931'
p4102
S'moderately'
p4103
sS'1930'
p4104
S'spending'
p4105
sS'5128'
p4106
S'retains'
p4107
sS'1936'
p4108
S'venues'
p4109
sS'1935'
p4110
S'tubing'
p4111
sS'1934'
p4112
S'vinyl'
p4113
sS'5124'
p4114
S'25r'
p4115
sS'3268'
p4116
S'major'
p4117
sS'1939'
p4118
S'gator'
p4119
sS'1938'
p4120
S'folded'
p4121
sS'5120'
p4122
S'promise'
p4123
sS'5121'
p4124
S'christian'
p4125
sS'5122'
p4126
S'graphic'
p4127
sS'5123'
p4128
S'unexpected'
p4129
sS'1427'
p4130
S'tie'
p4131
sS'1426'
p4132
S'elastic'
p4133
sS'1429'
p4134
S'coil'
p4135
sS'1428'
p4136
S'custom'
p4137
sS'3366'
p4138
S'iphone'
p4139
sS'3367'
p4140
S'hung'
p4141
sS'605'
p4142
S'replacement'
p4143
sS'604'
p4144
S'dealer'
p4145
sS'607'
p4146
S'performing'
p4147
sS'606'
p4148
S'claims'
p4149
sS'601'
p4150
S'plating'
p4151
sS'600'
p4152
S'secure'
p4153
sS'603'
p4154
S'guaranteed'
p4155
sS'602'
p4156
S'ensures'
p4157
sS'1205'
p4158
S'hooked'
p4159
sS'1204'
p4160
S'matches'
p4161
sS'1207'
p4162
S'locks'
p4163
sS'1206'
p4164
S'head'
p4165
sS'609'
p4166
S'alongside'
p4167
sS'608'
p4168
S'unit'
p4169
sS'1203'
p4170
S'wider'
p4171
sS'1202'
p4172
S'padded'
p4173
sS'1353'
p4174
S'double'
p4175
sS'1352'
p4176
S'incredible'
p4177
sS'1351'
p4178
S'girlfriend'
p4179
sS'1350'
p4180
S'gift'
p4181
sS'461'
p4182
S'trick'
p4183
sS'1356'
p4184
S'strength'
p4185
sS'463'
p4186
S'believer'
p4187
sS'462'
p4188
S'beautifully'
p4189
sS'5554'
p4190
S'unused'
p4191
sS'5552'
p4192
S'butt'
p4193
sS'4149'
p4194
S'long-time'
p4195
sS'4148'
p4196
S'happened'
p4197
sS'4145'
p4198
S'nyxl'
p4199
sS'4144'
p4200
S'long-lasting'
p4201
sS'4147'
p4202
S'profit'
p4203
sS'4146'
p4204
S'drastically'
p4205
sS'4141'
p4206
S'functionally'
p4207
sS'4140'
p4208
S'ns'
p4209
sS'4143'
p4210
S'ep'
p4211
sS'4142'
p4212
S'stacks'
p4213
sS'3856'
p4214
S'88-key'
p4215
sS'3857'
p4216
S'cotton'
p4217
sS'3854'
p4218
S'genres'
p4219
sS'3855'
p4220
S'carries'
p4221
sS'3852'
p4222
S'concerts'
p4223
sS'3853'
p4224
S'funk'
p4225
sS'3850'
p4226
S'fear'
p4227
sS'3851'
p4228
S'nails'
p4229
sS'3858'
p4230
S'pliable'
p4231
sS'3859'
p4232
S'repeat'
p4233
sS'1062'
p4234
S'slide'
p4235
sS'4558'
p4236
S'tm-40'
p4237
sS'4559'
p4238
S'tonally'
p4239
sS'4556'
p4240
S'functioning'
p4241
sS'4557'
p4242
S'dense'
p4243
sS'4554'
p4244
S'intro'
p4245
sS'4555'
p4246
S'counterparts'
p4247
sS'4552'
p4248
S'nuff'
p4249
sS'4553'
p4250
S'crybaby'
p4251
sS'4550'
p4252
S'straplocks'
p4253
sS'4551'
p4254
S'jewel'
p4255
sS'2617'
p4256
S'nano'
p4257
sS'2616'
p4258
S'loving'
p4259
sS'2615'
p4260
S'gigging'
p4261
sS'2614'
p4262
S'matched'
p4263
sS'2613'
p4264
S'equal'
p4265
sS'2612'
p4266
S'freak'
p4267
sS'2611'
p4268
S'dud'
p4269
sS'2610'
p4270
S'swapped'
p4271
sS'2619'
p4272
S'minimize'
p4273
sS'2618'
p4274
S'shined'
p4275
sS'1186'
p4276
S'gauge'
p4277
sS'1187'
p4278
S'degradation'
p4279
sS'1184'
p4280
S'guessing'
p4281
sS'740'
p4282
S'modification'
p4283
sS'741'
p4284
S'keeley'
p4285
sS'742'
p4286
S'initially'
p4287
sS'743'
p4288
S'wished'
p4289
sS'744'
p4290
S'overdrive'
p4291
sS'745'
p4292
S'ocd'
p4293
sS'746'
p4294
S'boss'
p4295
sS'747'
p4296
S'od-3'
p4297
sS'748'
p4298
S'mod'
p4299
sS'749'
p4300
S'cover'
p4301
sS'1185'
p4302
S'24'
p4303
sS'2949'
p4304
S'waist'
p4305
sS'2948'
p4306
S'xl'
p4307
sS'2947'
p4308
S'levy'
p4309
sS'2946'
p4310
S'**'
p4311
sS'2945'
p4312
S'knowing'
p4313
sS'2944'
p4314
S'swap'
p4315
sS'2943'
p4316
S'pw'
p4317
sS'2942'
p4318
S'manufacturers'
p4319
sS'2941'
p4320
S'alive'
p4321
sS'2940'
p4322
S'dynamics'
p4323
sS'5357'
p4324
S'enable'
p4325
sS'5356'
p4326
S'north'
p4327
sS'5355'
p4328
S'9s'
p4329
sS'1053'
p4330
S'hook'
p4331
sS'5353'
p4332
S'hofner'
p4333
sS'5352'
p4334
S'farther'
p4335
sS'5351'
p4336
S'fullness'
p4337
sS'5350'
p4338
S'fingerpicks'
p4339
sS'1058'
p4340
S'stick'
p4341
sS'1059'
p4342
S'pins'
p4343
sS'5359'
p4344
S'assuming'
p4345
sS'5358'
p4346
S'godin'
p4347
sS'4310'
p4348
S'failures'
p4349
sS'4311'
p4350
S'nick'
p4351
sS'4312'
p4352
S'oem'
p4353
sS'4313'
p4354
S'wins'
p4355
sS'4314'
p4356
S'rates'
p4357
sS'4315'
p4358
S'won'
p4359
sS'4316'
p4360
S'tour'
p4361
sS'4317'
p4362
S'rip'
p4363
sS'4318'
p4364
S'stages'
p4365
sS'4319'
p4366
S'shades'
p4367
sS'1180'
p4368
S'injection'
p4369
sS'3119'
p4370
S'acceptable'
p4371
sS'3118'
p4372
S'casual'
p4373
sS'3117'
p4374
S'improvement'
p4375
sS'3116'
p4376
S'luthier'
p4377
sS'3115'
p4378
S'lowered'
p4379
sS'3114'
p4380
S'spaces'
p4381
sS'3113'
p4382
S'narrower'
p4383
sS'3112'
p4384
S'spacing'
p4385
sS'3111'
p4386
S'dreadnought'
p4387
sS'3110'
p4388
S'comfortably'
p4389
sS'5795'
p4390
S'limborg'
p4391
sS'1181'
p4392
S'molded'
p4393
sS'5740'
p4394
S'judgment'
p4395
sS'5741'
p4396
S'ticket'
p4397
sS'5742'
p4398
S'weights'
p4399
sS'5743'
p4400
S'johnson'
p4401
sS'5744'
p4402
S'disengage'
p4403
sS'5745'
p4404
S'rockband'
p4405
sS'5746'
p4406
S'lend'
p4407
sS'5747'
p4408
S'hola'
p4409
sS'5748'
p4410
S'law'
p4411
sS'5749'
p4412
S'impedance'
p4413
sS'5267'
p4414
S'reservations'
p4415
sS'5266'
p4416
S'relying'
p4417
sS'1702'
p4418
S'mighty'
p4419
sS'1703'
p4420
S'books'
p4421
sS'5263'
p4422
S'caveat'
p4423
sS'5262'
p4424
S'forgotten'
p4425
sS'5261'
p4426
S'bs'
p4427
sS'5260'
p4428
S'fatso'
p4429
sS'5794'
p4430
S'gt-10'
p4431
sS'2137'
p4432
S'demand'
p4433
sS'7'
p4434
S'husband'
p4435
sS'1602'
p4436
S'delivered'
p4437
sS'2135'
p4438
S'jazzy'
p4439
sS'2378'
p4440
S'strips'
p4441
sS'2379'
p4442
S'velcro'
p4443
sS'2374'
p4444
S'hooks'
p4445
sS'2375'
p4446
S'flange'
p4447
sS'2376'
p4448
S'male'
p4449
sS'2377'
p4450
S'users'
p4451
sS'2370'
p4452
S'portion'
p4453
sS'2371'
p4454
S'counterweight'
p4455
sS'2372'
p4456
S'faux'
p4457
sS'2373'
p4458
S'ceiling'
p4459
sS'1876'
p4460
S'appears'
p4461
sS'1877'
p4462
S'conventional'
p4463
sS'1874'
p4464
S'clumsy'
p4465
sS'1875'
p4466
S'flawlessly'
p4467
sS'1872'
p4468
S'winders'
p4469
sS'1873'
p4470
S'puller'
p4471
sS'1870'
p4472
S'disturb'
p4473
sS'1871'
p4474
S'neighbors'
p4475
sS'1878'
p4476
S'hurts'
p4477
sS'1879'
p4478
S'exposed'
p4479
sS'4945'
p4480
S'secondary'
p4481
sS'4944'
p4482
S'go-dps'
p4483
sS'4947'
p4484
S'offerings'
p4485
sS'4946'
p4486
S'sellers'
p4487
sS'4941'
p4488
S'graphics'
p4489
sS'4940'
p4490
S'settling'
p4491
sS'4943'
p4492
S'cycle'
p4493
sS'4942'
p4494
S'nose'
p4495
sS'4949'
p4496
S'hits'
p4497
sS'4948'
p4498
S'sn1'
p4499
sS'2118'
p4500
S'contact'
p4501
sS'2119'
p4502
S'mess'
p4503
sS'2110'
p4504
S'picked'
p4505
sS'2111'
p4506
S'phono'
p4507
sS'2112'
p4508
S'wrote'
p4509
sS'2113'
p4510
S'aux'
p4511
sS'2114'
p4512
S'cd'
p4513
sS'2115'
p4514
S'overly'
p4515
sS'2116'
p4516
S'turntable'
p4517
sS'2117'
p4518
S'rca'
p4519
sS'1919'
p4520
S'snare'
p4521
sS'1918'
p4522
S'accomplished'
p4523
sS'5108'
p4524
S'subsequently'
p4525
sS'5109'
p4526
S'miracles'
p4527
sS'3289'
p4528
S'disagree'
p4529
sS'3288'
p4530
S'polish'
p4531
sS'5102'
p4532
S'modded'
p4533
sS'5103'
p4534
S'factors'
p4535
sS'1913'
p4536
S'hitting'
p4537
sS'5101'
p4538
S'wallet'
p4539
sS'5106'
p4540
S'sound-hole'
p4541
sS'3282'
p4542
S'inherent'
p4543
sS'3281'
p4544
S'corrosion'
p4545
sS'3280'
p4546
S'rust'
p4547
sS'883'
p4548
S'surprised'
p4549
sS'882'
p4550
S'access'
p4551
sS'881'
p4552
S'meet'
p4553
sS'880'
p4554
S'sell'
p4555
sS'887'
p4556
S'honey'
p4557
sS'886'
p4558
S'power'
p4559
sS'885'
p4560
S'9v'
p4561
sS'884'
p4562
S'customers'
p4563
sS'889'
p4564
S'finger'
p4565
sS'888'
p4566
S'situation'
p4567
sS'5245'
p4568
S'mm4'
p4569
sS'5792'
p4570
S'hd-28'
p4571
sS'1269'
p4572
S'doors'
p4573
sS'1268'
p4574
S'muting'
p4575
sS'669'
p4576
S'color'
p4577
sS'668'
p4578
S'thickness'
p4579
sS'667'
p4580
S'telling'
p4581
sS'1262'
p4582
S'happen'
p4583
sS'665'
p4584
S'flats'
p4585
sS'664'
p4586
S'notes'
p4587
sS'663'
p4588
S'moving'
p4589
sS'662'
p4590
S'base'
p4591
sS'1265'
p4592
S'walk'
p4593
sS'1264'
p4594
S'height'
p4595
sS'1911'
p4596
S'night'
p4597
sS'1910'
p4598
S'late'
p4599
sS'3285'
p4600
S'epi'
p4601
sS'3284'
p4602
S'mahogany'
p4603
sS'3283'
p4604
S'elegant'
p4605
sS'5107'
p4606
S'activate'
p4607
sS'1917'
p4608
S'encounter'
p4609
sS'5105'
p4610
S'plug-in'
p4611
sS'4129'
p4612
S'dice'
p4613
sS'4128'
p4614
S'config'
p4615
sS'4123'
p4616
S'amateur'
p4617
sS'4122'
p4618
S'fraction'
p4619
sS'4121'
p4620
S'sleek'
p4621
sS'4120'
p4622
S'magical'
p4623
sS'4127'
p4624
S'pre-sets'
p4625
sS'4126'
p4626
S'coolest'
p4627
sS'4125'
p4628
S'x3live'
p4629
sS'4124'
p4630
S'logic'
p4631
sS'5689'
p4632
S'strummer'
p4633
sS'5688'
p4634
S'capsule'
p4635
sS'5685'
p4636
S'lacked'
p4637
sS'5684'
p4638
S'a/d'
p4639
sS'5687'
p4640
S'scroll'
p4641
sS'5686'
p4642
S'dp-008'
p4643
sS'5681'
p4644
S'rocket'
p4645
sS'5680'
p4646
S'carpal'
p4647
sS'5683'
p4648
S'snowflake'
p4649
sS'5682'
p4650
S'weaker'
p4651
sS'2587'
p4652
S'emulate'
p4653
sS'2586'
p4654
S'sharper'
p4655
sS'2585'
p4656
S'image'
p4657
sS'2584'
p4658
S'biggest'
p4659
sS'2583'
p4660
S'stripped'
p4661
sS'2582'
p4662
S'terms'
p4663
sS'2581'
p4664
S'enjoying'
p4665
sS'2580'
p4666
S'cared'
p4667
sS'2589'
p4668
S'fuse'
p4669
sS'2588'
p4670
S'factory'
p4671
sS'280'
p4672
S'worthy'
p4673
sS'286'
p4674
S'wide'
p4675
sS'2639'
p4676
S'riffs'
p4677
sS'2638'
p4678
S'split'
p4679
sS'2635'
p4680
S'cab'
p4681
sS'2634'
p4682
S'distorts'
p4683
sS'2637'
p4684
S'eq'
p4685
sS'2636'
p4686
S'2x12'
p4687
sS'2631'
p4688
S'compressor'
p4689
sS'2630'
p4690
S'brings'
p4691
sS'2633'
p4692
S'sustainer'
p4693
sS'2632'
p4694
S'staying'
p4695
sS'3544'
p4696
S'lettering'
p4697
sS'3545'
p4698
S'overcome'
p4699
sS'3546'
p4700
S'2mm'
p4701
sS'3547'
p4702
S'sleeves'
p4703
sS'3540'
p4704
S'grips'
p4705
sS'3541'
p4706
S'literally'
p4707
sS'3542'
p4708
S'oriented'
p4709
sS'3543'
p4710
S'recall'
p4711
sS'3548'
p4712
S'jackets'
p4713
sS'3549'
p4714
S'buff'
p4715
sS'2965'
p4716
S'degree'
p4717
sS'2964'
p4718
S'overtones'
p4719
sS'2967'
p4720
S'amplifiers'
p4721
sS'2966'
p4722
S'sony'
p4723
sS'2961'
p4724
S'backlit'
p4725
sS'2960'
p4726
S'truss'
p4727
sS'2963'
p4728
S'christmas'
p4729
sS'2962'
p4730
S'clipped'
p4731
sS'762'
p4732
S'11'
p4733
sS'763'
p4734
S'children'
p4735
sS'760'
p4736
S'holding'
p4737
sS'761'
p4738
S'hours'
p4739
sS'2969'
p4740
S'moderate'
p4741
sS'2968'
p4742
S'headroom'
p4743
sS'764'
p4744
S'tele'
p4745
sS'765'
p4746
S'debate'
p4747
sS'5379'
p4748
S'lightning'
p4749
sS'5378'
p4750
S'univibe'
p4751
sS'1078'
p4752
S'tap'
p4753
sS'1079'
p4754
S'metronome'
p4755
sS'5375'
p4756
S'ceramic'
p4757
sS'5374'
p4758
S'to800'
p4759
sS'5377'
p4760
S'circuits'
p4761
sS'1075'
p4762
S'colorful'
p4763
sS'5371'
p4764
S'5-10'
p4765
sS'5370'
p4766
S'quirks'
p4767
sS'5373'
p4768
S'ss'
p4769
sS'5372'
p4770
S'blink'
p4771
sS'5583'
p4772
S'simulate'
p4773
sS'4338'
p4774
S'wholeheartedly'
p4775
sS'4339'
p4776
S'duh'
p4777
sS'4336'
p4778
S'equally'
p4779
sS'4337'
p4780
S'alvarez'
p4781
sS'4334'
p4782
S'inspired'
p4783
sS'4335'
p4784
S'floyd'
p4785
sS'4332'
p4786
S'sum'
p4787
sS'4333'
p4788
S'loads'
p4789
sS'4330'
p4790
S'lubricating'
p4791
sS'4331'
p4792
S'satisfactory'
p4793
sS'3135'
p4794
S'tendency'
p4795
sS'5182'
p4796
S'oskar'
p4797
sS'3137'
p4798
S'spares'
p4799
sS'3136'
p4800
S'gauges'
p4801
sS'3131'
p4802
S'porch'
p4803
sS'3130'
p4804
S'4/4'
p4805
sS'3133'
p4806
S'cleaners'
p4807
sS'3132'
p4808
S'fabulous'
p4809
sS'3139'
p4810
S'photos'
p4811
sS'3138'
p4812
S'intrigued'
p4813
sS'1533'
p4814
S'respect'
p4815
sS'5183'
p4816
S'odor'
p4817
sS'5180'
p4818
S'bigsby'
p4819
sS'5768'
p4820
S'r-09'
p4821
sS'5769'
p4822
S'edirol'
p4823
sS'5766'
p4824
S'd5'
p4825
sS'5767'
p4826
S'hellraiser'
p4827
sS'5764'
p4828
S'cooler'
p4829
sS'5765'
p4830
S'choir'
p4831
sS'5762'
p4832
S'muffs'
p4833
sS'5763'
p4834
S'1202fx'
p4835
sS'5760'
p4836
S'pr-40'
p4837
sS'5761'
p4838
S'dorky'
p4839
sS'1531'
p4840
S'mates'
p4841
sS'5181'
p4842
S'lee'
p4843
sS'5186'
p4844
S'slipped'
p4845
sS'2256'
p4846
S'scratchy'
p4847
sS'5187'
p4848
S'h4'
p4849
sS'2978'
p4850
S'ft'
p4851
sS'2979'
p4852
S'reasonable'
p4853
sS'2250'
p4854
S'mark'
p4855
sS'5184'
p4856
S'songwriter'
p4857
sS'5185'
p4858
S'petal'
p4859
sS'2974'
p4860
S'lunchbox'
p4861
sS'2975'
p4862
S'jbl'
p4863
sS'5362'
p4864
S'structure'
p4865
sS'4570'
p4866
S'bassist'
p4867
sS'1042'
p4868
S'mute'
p4869
sS'5360'
p4870
S'iriffport'
p4871
sS'5361'
p4872
S'charging'
p4873
sS'5366'
p4874
S'fbv'
p4875
sS'5367'
p4876
S'screamers'
p4877
sS'4571'
p4878
S'unscrewing'
p4879
sS'5364'
p4880
S'apple'
p4881
sS'5365'
p4882
S'muscle'
p4883
sS'2358'
p4884
S'field'
p4885
sS'2359'
p4886
S'transistor'
p4887
sS'2352'
p4888
S'hearing'
p4889
sS'2353'
p4890
S'attest'
p4891
sS'2350'
p4892
S'4033'
p4893
sS'2351'
p4894
S'family'
p4895
sS'2356'
p4896
S'office'
p4897
sS'5368'
p4898
S'ragged'
p4899
sS'2354'
p4900
S'playback'
p4901
sS'2355'
p4902
S'capture'
p4903
sS'5369'
p4904
S'unbelievably'
p4905
sS'1898'
p4906
S'worst'
p4907
sS'1899'
p4908
S'recommendation'
p4909
sS'3739'
p4910
S'soundhole'
p4911
sS'3738'
p4912
S'grown'
p4913
sS'3737'
p4914
S'pawn'
p4915
sS'3736'
p4916
S'bang'
p4917
sS'3735'
p4918
S'swear'
p4919
sS'3734'
p4920
S'practically'
p4921
sS'3733'
p4922
S'buzzing'
p4923
sS'1891'
p4924
S'tedious'
p4925
sS'3731'
p4926
S'hurry'
p4927
sS'3730'
p4928
S'diverse'
p4929
sS'4691'
p4930
S'suggests'
p4931
sS'4690'
p4932
S'15w'
p4933
sS'4693'
p4934
S'phase'
p4935
sS'4692'
p4936
S'lived'
p4937
sS'4695'
p4938
S'modifications'
p4939
sS'4694'
p4940
S'script'
p4941
sS'4697'
p4942
S'measures'
p4943
sS'4696'
p4944
S'dangling'
p4945
sS'4699'
p4946
S'collapsible'
p4947
sS'4698'
p4948
S'visible'
p4949
sS'4929'
p4950
S'humidipaks'
p4951
sS'4928'
p4952
S'bob'
p4953
sS'2138'
p4954
S'a+'
p4955
sS'2139'
p4956
S'schaller'
p4957
sS'5160'
p4958
S'vice'
p4959
sS'5161'
p4960
S'versa'
p4961
sS'5162'
p4962
S'aqua'
p4963
sS'5163'
p4964
S'hummingbird'
p4965
sS'5164'
p4966
S'square'
p4967
sS'5165'
p4968
S'hears'
p4969
sS'5166'
p4970
S'computers'
p4971
sS'4801'
p4972
S'mt-2'
p4973
sS'5168'
p4974
S'skype'
p4975
sS'5169'
p4976
S'branded'
p4977
sS'2787'
p4978
S'fussy'
p4979
sS'4803'
p4980
S'cfh'
p4981
sS'2781'
p4982
S'marked'
p4983
sS'2780'
p4984
S'category'
p4985
sS'2783'
p4986
S'4th'
p4987
sS'2782'
p4988
S'3rd'
p4989
sS'1263'
p4990
S'thumb'
p4991
sS'666'
p4992
S'bold'
p4993
sS'1261'
p4994
S'continuous'
p4995
sS'1799'
p4996
S'lifetime'
p4997
sS'1798'
p4998
S'potential'
p4999
sS'1793'
p5000
S'input/output'
p5001
sS'1267'
p5002
S'palm'
p5003
sS'1791'
p5004
S'editor'
p5005
sS'1790'
p5006
S'downloadable'
p5007
sS'1797'
p5008
S'dry'
p5009
sS'1796'
p5010
S'secured'
p5011
sS'1795'
p5012
S'indicating'
p5013
sS'1794'
p5014
S'satisfying'
p5015
sS'661'
p5016
S'novice'
p5017
sS'660'
p5018
S'love'
p5019
sS'5344'
p5020
S'frustration'
p5021
sS'5345'
p5022
S'crackles'
p5023
sS'1241'
p5024
S'highs'
p5025
sS'3093'
p5026
S'lookin'
p5027
sS'3090'
p5028
S'dissapointed'
p5029
sS'3091'
p5030
S'dimarzio'
p5031
sS'3096'
p5032
S'harmonix'
p5033
sS'3097'
p5034
S'wave'
p5035
sS'3094'
p5036
S'recomended'
p5037
sS'1530'
p5038
S'connector'
p5039
sS'1249'
p5040
S'diameter'
p5041
sS'648'
p5042
S'returning'
p5043
sS'3098'
p5044
S'reverbs'
p5045
sS'3099'
p5046
S'1970'
p5047
sS'5346'
p5048
S'signals'
p5049
sS'1539'
p5050
S'pattern'
p5051
sS'1538'
p5052
S'singers'
p5053
sS'4101'
p5054
S'safer'
p5055
sS'4100'
p5056
S'advise'
p5057
sS'4103'
p5058
S'compensated'
p5059
sS'4102'
p5060
S'odds'
p5061
sS'4105'
p5062
S'solve'
p5063
sS'4104'
p5064
S'aquilas'
p5065
sS'4107'
p5066
S'stance'
p5067
sS'4106'
p5068
S'patient'
p5069
sS'4109'
p5070
S'heavy-duty'
p5071
sS'4108'
p5072
S'attempt'
p5073
sS'3898'
p5074
S'critical'
p5075
sS'3899'
p5076
S'aquila'
p5077
sS'3892'
p5078
S'complex'
p5079
sS'3893'
p5080
S'chording'
p5081
sS'3890'
p5082
S'remote'
p5083
sS'3891'
p5084
S'stringing'
p5085
sS'3896'
p5086
S'default'
p5087
sS'3897'
p5088
S'tweaks'
p5089
sS'3894'
p5090
S'exl'
p5091
sS'3895'
p5092
S'touched'
p5093
sS'5341'
p5094
S'projection'
p5095
sS'1454'
p5096
S'wow'
p5097
sS'1991'
p5098
S'massive'
p5099
sS'1455'
p5100
S'tend'
p5101
sS'5774'
p5102
S'lucille'
p5103
sS'2659'
p5104
S'path'
p5105
sS'2658'
p5106
S'powers'
p5107
sS'2653'
p5108
S'engineered'
p5109
sS'2652'
p5110
S'circuit'
p5111
sS'2651'
p5112
S'joy'
p5113
sS'2650'
p5114
S'isolating'
p5115
sS'2657'
p5116
S'warts'
p5117
sS'2656'
p5118
S'rod'
p5119
sS'2655'
p5120
S'harsh'
p5121
sS'2654'
p5122
S'par'
p5123
sS'5758'
p5124
S'sm7'
p5125
sS'1452'
p5126
S'bother'
p5127
sS'3562'
p5128
S'hangers'
p5129
sS'3563'
p5130
S'cry'
p5131
sS'3560'
p5132
S'pictured'
p5133
sS'1453'
p5134
S'handle'
p5135
sS'3566'
p5136
S'crate'
p5137
sS'3567'
p5138
S'verb'
p5139
sS'3564'
p5140
S'convincing'
p5141
sS'3565'
p5142
S'approach'
p5143
sS'3034'
p5144
S'harp'
p5145
sS'3568'
p5146
S'advised'
p5147
sS'3569'
p5148
S'ac-3'
p5149
sS'4484'
p5150
S'faders'
p5151
sS'4485'
p5152
S'transfer'
p5153
sS'4486'
p5154
S'menu'
p5155
sS'4487'
p5156
S'mastering'
p5157
sS'4480'
p5158
S'12v'
p5159
sS'4481'
p5160
S'adaptor'
p5161
sS'4482'
p5162
S'indispensable'
p5163
sS'4483'
p5164
S'challenge'
p5165
sS'4488'
p5166
S'lies'
p5167
sS'4489'
p5168
S'customize'
p5169
sS'2903'
p5170
S'blasting'
p5171
sS'2902'
p5172
S'jump'
p5173
sS'2901'
p5174
S'sensing'
p5175
sS'2900'
p5176
S'responds'
p5177
sS'708'
p5178
S'total'
p5179
sS'709'
p5180
S'waste'
p5181
sS'2905'
p5182
S'defect'
p5183
sS'147'
p5184
S'products'
p5185
sS'704'
p5186
S'guys'
p5187
sS'705'
p5188
S'shopping'
p5189
sS'706'
p5190
S'legs'
p5191
sS'2908'
p5192
S'sending'
p5193
sS'700'
p5194
S'lengths'
p5195
sS'701'
p5196
S'press'
p5197
sS'702'
p5198
S'convert'
p5199
sS'703'
p5200
S'ship'
p5201
sS'2486'
p5202
S'surely'
p5203
sS'5319'
p5204
S'3-band'
p5205
sS'5318'
p5206
S'fullbore'
p5207
sS'5313'
p5208
S'genre'
p5209
sS'5312'
p5210
S'workstation'
p5211
sS'5311'
p5212
S'ez'
p5213
sS'141'
p5214
S'switch'
p5215
sS'5317'
p5216
S'deciding'
p5217
sS'5316'
p5218
S'celestion'
p5219
sS'5315'
p5220
S'british'
p5221
sS'5314'
p5222
S'terror'
p5223
sS'2487'
p5224
S'reviewed'
p5225
sS'3214'
p5226
S'iv'
p5227
sS'1987'
p5228
S'workhorse'
p5229
sS'1984'
p5230
S'cheapy'
p5231
sS'3153'
p5232
S'falls'
p5233
sS'3152'
p5234
S'notable'
p5235
sS'3151'
p5236
S'fresh'
p5237
sS'3150'
p5238
S'high-quality'
p5239
sS'3157'
p5240
S'wrench'
p5241
sS'3156'
p5242
S'lowering'
p5243
sS'3155'
p5244
S'buyer'
p5245
sS'3154'
p5246
S'saves'
p5247
sS'1982'
p5248
S'uncomfortable'
p5249
sS'3159'
p5250
S'delivers'
p5251
sS'3158'
p5252
S'tasks'
p5253
sS'1983'
p5254
S'worthwhile'
p5255
sS'1980'
p5256
S'backup'
p5257
sS'1981'
p5258
S'sales'
p5259
sS'1260'
p5260
S'rattles'
p5261
sS'1639'
p5262
S'neat'
p5263
sS'2482'
p5264
S'100+'
p5265
sS'1459'
p5266
S'handles'
p5267
sS'1266'
p5268
S'house'
p5269
sS'2483'
p5270
S'created'
p5271
sS'2480'
p5272
S'microphones'
p5273
sS'568'
p5274
S'coated'
p5275
sS'569'
p5276
S'desire'
p5277
sS'2816'
p5278
S'positions'
p5279
sS'564'
p5280
S'brand'
p5281
sS'565'
p5282
S"d'addario"
p5283
sS'4714'
p5284
S'events'
p5285
sS'4715'
p5286
S'rickenbacker'
p5287
sS'4716'
p5288
S'360'
p5289
sS'4717'
p5290
S'buds'
p5291
sS'4710'
p5292
S'appeared'
p5293
sS'4711'
p5294
S'transducer'
p5295
sS'4712'
p5296
S'endpin'
p5297
sS'2337'
p5298
S'focusrite'
p5299
sS'2338'
p5300
S'entry'
p5301
sS'2339'
p5302
S'2020'
p5303
sS'4718'
p5304
S'dreadnaught'
p5305
sS'4719'
p5306
S'laminated'
p5307
sS'3715'
p5308
S'platform'
p5309
sS'3714'
p5310
S'serial'
p5311
sS'3717'
p5312
S'phillips'
p5313
sS'3716'
p5314
S'quest'
p5315
sS'3711'
p5316
S'question'
p5317
sS'3710'
p5318
S'settle'
p5319
sS'3713'
p5320
S'competition'
p5321
sS'3712'
p5322
S'low-end'
p5323
sS'3719'
p5324
S'solder'
p5325
sS'3718'
p5326
S'iron'
p5327
sS'4909'
p5328
S'shove'
p5329
sS'4908'
p5330
S'oily'
p5331
sS'4679'
p5332
S'pi'
p5333
sS'4678'
p5334
S'glossy'
p5335
sS'4901'
p5336
S'reproduction'
p5337
sS'4676'
p5338
S'dries'
p5339
sS'4903'
p5340
S'oils'
p5341
sS'4674'
p5342
S'snapping'
p5343
sS'4673'
p5344
S'neotech'
p5345
sS'4904'
p5346
S'bored'
p5347
sS'4671'
p5348
S'determined'
p5349
sS'4670'
p5350
S'triangular'
p5351
sS'5148'
p5352
S'nanowebs'
p5353
sS'5149'
p5354
S'instructor'
p5355
sS'5146'
p5356
S'h2'
p5357
sS'5147'
p5358
S'disk'
p5359
sS'5144'
p5360
S'pump'
p5361
sS'5145'
p5362
S'child'
p5363
sS'5142'
p5364
S'accepts'
p5365
sS'5143'
p5366
S'toe'
p5367
sS'5140'
p5368
S'dime'
p5369
sS'5141'
p5370
S'walking'
p5371
sS'120'
p5372
S'clean'
p5373
sS'121'
p5374
S'tone'
p5375
sS'122'
p5376
S'modeled'
p5377
sS'123'
p5378
S'ranges'
p5379
sS'124'
p5380
S'jazz'
p5381
sS'125'
p5382
S'gain'
p5383
sS'126'
p5384
S'acoustic'
p5385
sS'127'
p5386
S'model'
p5387
sS'128'
p5388
S'pretty'
p5389
sS'129'
p5390
S'ton'
p5391
sS'1188'
p5392
S'profile'
p5393
sS'1189'
p5394
S'kick'
p5395
sS'3377'
p5396
S'scoop'
p5397
sS'3376'
p5398
S'ruin'
p5399
sS'3375'
p5400
S'balls'
p5401
sS'3374'
p5402
S'sorta'
p5403
sS'5421'
p5404
S'refuse'
p5405
sS'3372'
p5406
S'destroyed'
p5407
sS'3371'
p5408
S'wouldnt'
p5409
sS'3370'
p5410
S'album'
p5411
sS'1997'
p5412
S'rounded'
p5413
sS'3393'
p5414
S'pink'
p5415
sS'1519'
p5416
S'pass'
p5417
sS'1518'
p5418
S'allowing'
p5419
sS'3392'
p5420
S'dramatic'
p5421
sS'1515'
p5422
S'block'
p5423
sS'1514'
p5424
S'mounts'
p5425
sS'1517'
p5426
S'popping'
p5427
sS'1516'
p5428
S'breath'
p5429
sS'1511'
p5430
S'distorted'
p5431
sS'1510'
p5432
S'write'
p5433
sS'1513'
p5434
S'silver'
p5435
sS'1512'
p5436
S'mike'
p5437
sS'3395'
p5438
S'rockabilly'
p5439
sS'3394'
p5440
S'gilmour'
p5441
sS'3397'
p5442
S'voices'
p5443
sS'3396'
p5444
S'moment'
p5445
sS'263'
p5446
S'mode'
p5447
sS'262'
p5448
S'output'
p5449
sS'261'
p5450
S'modeling'
p5451
sS'260'
p5452
S'headphones'
p5453
sS'267'
p5454
S'directly'
p5455
sS'266'
p5456
S'test'
p5457
sS'265'
p5458
S'setup'
p5459
sS'264'
p5460
S'match'
p5461
sS'269'
p5462
S'pa'
p5463
sS'268'
p5464
S'active'
p5465
sS'988'
p5466
S'headstock'
p5467
sS'989'
p5468
S'insert'
p5469
sS'982'
p5470
S'ins'
p5471
sS'983'
p5472
S'simply'
p5473
sS'980'
p5474
S'se'
p5475
sS'981'
p5476
S'direct'
p5477
sS'986'
p5478
S'hole'
p5479
sS'987'
p5480
S'center'
p5481
sS'984'
p5482
S'grab'
p5483
sS'985'
p5484
S'clicks'
p5485
sS'1388'
p5486
S'metallic'
p5487
sS'1389'
p5488
S'rattle'
p5489
sS'3508'
p5490
S'ts-9'
p5491
sS'3509'
p5492
S'share'
p5493
sS'5089'
p5494
S'reccomend'
p5495
sS'5088'
p5496
S'hub'
p5497
sS'5083'
p5498
S'shotgun'
p5499
sS'5082'
p5500
S'axl'
p5501
sS'5081'
p5502
S'throne'
p5503
sS'5080'
p5504
S'prepared'
p5505
sS'5087'
p5506
S'ios'
p5507
sS'5086'
p5508
S'rigs'
p5509
sS'5085'
p5510
S'professionals'
p5511
sS'5084'
p5512
S'50s'
p5513
sS'2671'
p5514
S"'fizz"
p5515
sS'2670'
p5516
S'statement'
p5517
sS'2673'
p5518
S'unusable'
p5519
sS'2672'
p5520
S'released'
p5521
sS'2675'
p5522
S'footprint'
p5523
sS'2674'
p5524
S'boxes'
p5525
sS'2677'
p5526
S'capability'
p5527
sS'2676'
p5528
S'utilize'
p5529
sS'2679'
p5530
S'sliding'
p5531
sS'2678'
p5532
S'uploaded'
p5533
sS'1209'
p5534
S'leather'
p5535
sS'2929'
p5536
S'1/8'
p5537
sS'2928'
p5538
S'arrangement'
p5539
sS'2921'
p5540
S'strengths'
p5541
sS'2920'
p5542
S'occasional'
p5543
sS'2923'
p5544
S'opted'
p5545
sS'2922'
p5546
S'nature'
p5547
sS'2925'
p5548
S'favorable'
p5549
sS'2924'
p5550
S'automatic'
p5551
sS'2927'
p5552
S'phone'
p5553
sS'2926'
p5554
S'suits'
p5555
sS'5331'
p5556
S'broadcast'
p5557
sS'5330'
p5558
S'employ'
p5559
sS'5333'
p5560
S'generations'
p5561
sS'5332'
p5562
S'muffled'
p5563
sS'5335'
p5564
S'activation'
p5565
sS'5334'
p5566
S'camp'
p5567
sS'5337'
p5568
S'forgiving'
p5569
sS'5336'
p5570
S'unfair'
p5571
sS'1208'
p5572
S'canada'
p5573
sS'5338'
p5574
S's6'
p5575
sS'3179'
p5576
S'modify'
p5577
sS'3178'
p5578
S'objects'
p5579
sS'2037'
p5580
S'stratocasters'
p5581
sS'3171'
p5582
S'humidity'
p5583
sS'3170'
p5584
S'distracting'
p5585
sS'3173'
p5586
S'saddles'
p5587
sS'3172'
p5588
S'tusq'
p5589
sS'3175'
p5590
S'fitted'
p5591
sS'3174'
p5592
S'nuts'
p5593
sS'3177'
p5594
S'manufactured'
p5595
sS'3176'
p5596
S'finishing'
p5597
sS'726'
p5598
S'essential'
p5599
sS'727'
p5600
S'extension'
p5601
sS'724'
p5602
S'hurt'
p5603
sS'725'
p5604
S'honestly'
p5605
sS'722'
p5606
S'distortion'
p5607
sS'723'
p5608
S'fun'
p5609
sS'720'
p5610
S'gear'
p5611
sS'721'
p5612
S'produces'
p5613
sS'728'
p5614
S'update'
p5615
sS'729'
p5616
S'2012'
p5617
sS'1164'
p5618
S'thin'
p5619
sS'1165'
p5620
S'quicker'
p5621
sS'1166'
p5622
S'weeks'
p5623
sS'1167'
p5624
S'hybrid'
p5625
sS'1160'
p5626
S'suede'
p5627
sS'1161'
p5628
S'inches'
p5629
sS'1162'
p5630
S'smells'
p5631
sS'1163'
p5632
S'boot'
p5633
sS'1168'
p5634
S'ply'
p5635
sS'1169'
p5636
S'davas'
p5637
sS'2035'
p5638
S'specs'
p5639
sS'1366'
p5640
S'heard'
p5641
sS'3196'
p5642
S'teacher'
p5643
sS'2034'
p5644
S'websites'
p5645
sS'1380'
p5646
S'vibrations'
p5647
sS'471'
p5648
S'paid'
p5649
sS'476'
p5650
S'clip'
p5651
sS'2785'
p5652
S'2nd'
p5653
sS'477'
p5654
S'microphone'
p5655
sS'1713'
p5656
S'cabinet'
p5657
sS'474'
p5658
S'vibration'
p5659
sS'1712'
p5660
S'filing'
p5661
sS'2033'
p5662
S'floating'
p5663
sS'1711'
p5664
S'multiple'
p5665
sS'1381'
p5666
S'instruments'
p5667
sS'1710'
p5668
S'moments'
p5669
sS'2784'
p5670
S'1st'
p5671
sS'1716'
p5672
S'mounted'
p5673
sS'1715'
p5674
S'unsatisfied'
p5675
sS'2032'
p5676
S'reach'
p5677
sS'1714'
p5678
S'filled'
p5679
sS'1368'
p5680
S'blast'
p5681
sS'3728'
p5682
S'skills'
p5683
sS'1369'
p5684
S'bedroom'
p5685
sS'1719'
p5686
S'effort'
p5687
sS'1864'
p5688
S'disappointed'
p5689
sS'1718'
p5690
S'attaching'
p5691
sS'2031'
p5692
S'complement'
p5693
sS'1869'
p5694
S'hotel'
p5695
sS'2786'
p5696
S'taylor'
p5697
sS'1868'
p5698
S'adequate'
p5699
sS'2030'
p5700
S'canadian'
p5701
sS'4930'
p5702
S'effectiveness'
p5703
sS'4931'
p5704
S'niche'
p5705
sS'4932'
p5706
S'signs'
p5707
sS'4933'
p5708
S'retail'
p5709
sS'4934'
p5710
S'humidify'
p5711
sS'4935'
p5712
S'sting'
p5713
sS'4732'
p5714
S'sunlight'
p5715
sS'4733'
p5716
S'ha'
p5717
sS'4730'
p5718
S'xotic'
p5719
sS'4731'
p5720
S'aim'
p5721
sS'4736'
p5722
S'mesa'
p5723
sS'4737'
p5724
S'boogie'
p5725
sS'2318'
p5726
S'integrated'
p5727
sS'2319'
p5728
S'2i2'
p5729
sS'2316'
p5730
S'awful'
p5731
sS'2317'
p5732
S'fed'
p5733
sS'2314'
p5734
S'knife'
p5735
sS'2315'
p5736
S'pleasing'
p5737
sS'2312'
p5738
S'zip'
p5739
sS'2313'
p5740
S'ties'
p5741
sS'2310'
p5742
S'installation'
p5743
sS'2311'
p5744
S'unsure'
p5745
sS'3773'
p5746
S'noticeably'
p5747
sS'3772'
p5748
S'harmonic'
p5749
sS'3771'
p5750
S'expense'
p5751
sS'3770'
p5752
S'specifications'
p5753
sS'3777'
p5754
S'build-in'
p5755
sS'3776'
p5756
S'finicky'
p5757
sS'3775'
p5758
S'usability'
p5759
sS'3774'
p5760
S'torn'
p5761
sS'3779'
p5762
S'combine'
p5763
sS'3778'
p5764
S'visibility'
p5765
sS'4655'
p5766
S'inserting'
p5767
sS'4654'
p5768
S'internals'
p5769
sS'4657'
p5770
S'mad'
p5771
sS'4656'
p5772
S'aa'
p5773
sS'4651'
p5774
S'chromes'
p5775
sS'4650'
p5776
S'ma'
p5777
sS'4653'
p5778
S'jamming'
p5779
sS'4652'
p5780
S'identify'
p5781
sS'4659'
p5782
S'calling'
p5783
sS'4658'
p5784
S'lives'
p5785
sS'108'
p5786
S'range'
p5787
sS'109'
p5788
S'cheap'
p5789
sS'102'
p5790
S'positive'
p5791
sS'103'
p5792
S'dig'
p5793
sS'100'
p5794
S'reviews'
p5795
sS'101'
p5796
S'read'
p5797
sS'106'
p5798
S'expensive'
p5799
sS'107'
p5800
S'amps'
p5801
sS'104'
p5802
S'main'
p5803
sS'105'
p5804
S'feels'
p5805
sS'1759'
p5806
S'pony'
p5807
sS'1758'
p5808
S'maximum'
p5809
sS'1757'
p5810
S'jacked'
p5811
sS'1756'
p5812
S'book'
p5813
sS'1755'
p5814
S'clamps'
p5815
sS'1754'
p5816
S'nonsense'
p5817
sS'1753'
p5818
S'lift'
p5819
sS'1752'
p5820
S'panel'
p5821
sS'1751'
p5822
S'pulling'
p5823
sS'1750'
p5824
S'comments'
p5825
sS'1285'
p5826
S'snappy'
p5827
sS'1284'
p5828
S'rubbery'
p5829
sS'1287'
p5830
S'coat'
p5831
sS'1286'
p5832
S'permanent'
p5833
sS'1281'
p5834
S'yellow'
p5835
sS'1280'
p5836
S'session'
p5837
sS'1283'
p5838
S'texture'
p5839
sS'1282'
p5840
S'rough'
p5841
sS'1289'
p5842
S'wears'
p5843
sS'1288'
p5844
S'finish'
p5845
sS'1579'
p5846
S'info'
p5847
sS'1578'
p5848
S'claimed'
p5849
sS'689'
p5850
S'impress'
p5851
sS'688'
p5852
S'website'
p5853
sS'685'
p5854
S'allowed'
p5855
sS'684'
p5856
S'excellent'
p5857
sS'687'
p5858
S'finished'
p5859
sS'686'
p5860
S'link'
p5861
sS'681'
p5862
S'rode'
p5863
sS'680'
p5864
S"'"
p5865
sS'683'
p5866
S'cords'
p5867
sS'682'
p5868
S'tight'
p5869
sS'1240'
p5870
S'chimey'
p5871
sS'5629'
p5872
S'cm-100l'
p5873
sS'5628'
p5874
S'competing'
p5875
sS'5627'
p5876
S'multitrack'
p5877
sS'1243'
p5878
S'sorts'
p5879
sS'5625'
p5880
S'bx5'
p5881
sS'5624'
p5882
S'feelings'
p5883
sS'5623'
p5884
S'blurb'
p5885
sS'5622'
p5886
S'underlying'
p5887
sS'5621'
p5888
S'trace'
p5889
sS'5620'
p5890
S'tweeter'
p5891
sS'1242'
p5892
S'setting'
p5893
sS'1244'
p5894
S'stack'
p5895
sS'1246'
p5896
S'pure'
p5897
sS'245'
p5898
S'dial'
p5899
sS'244'
p5900
S'supposed'
p5901
sS'247'
p5902
S'tube'
p5903
sS'246'
p5904
S'correct'
p5905
sS'241'
p5906
S'add'
p5907
sS'240'
p5908
S'month'
p5909
sS'243'
p5910
S'parameters'
p5911
sS'242'
p5912
S'adjustable'
p5913
sS'249'
p5914
S'm13'
p5915
sS'248'
p5916
S'behavior'
p5917
sS'3698'
p5918
S'creamy'
p5919
sS'3699'
p5920
S'audiophile'
p5921
sS'3690'
p5922
S'locations'
p5923
sS'3691'
p5924
S'sabine'
p5925
sS'3692'
p5926
S'seiko'
p5927
sS'3693'
p5928
S'problematic'
p5929
sS'3694'
p5930
S'entry-level'
p5931
sS'3695'
p5932
S'ts-808'
p5933
sS'3696'
p5934
S'enhancement'
p5935
sS'3697'
p5936
S'famous'
p5937
sS'2156'
p5938
S'earns'
p5939
sS'3526'
p5940
S'knee'
p5941
sS'3527'
p5942
S'suction'
p5943
sS'3524'
p5944
S'leverage'
p5945
sS'3525'
p5946
S'sticks'
p5947
sS'3522'
p5948
S'shallow'
p5949
sS'3523'
p5950
S'bodies'
p5951
sS'3520'
p5952
S'kinds'
p5953
sS'3521'
p5954
S'pile'
p5955
sS'3528'
p5956
S'tab'
p5957
sS'3529'
p5958
S'earn'
p5959
sS'1364'
p5960
S'taste'
p5961
sS'338'
p5962
S'pouch'
p5963
sS'2150'
p5964
S'fashion'
p5965
sS'2699'
p5966
S'20+'
p5967
sS'2698'
p5968
S'keyboards'
p5969
sS'2697'
p5970
S'confidence'
p5971
sS'2696'
p5972
S'gravity'
p5973
sS'2695'
p5974
S'pull'
p5975
sS'2694'
p5976
S'confident'
p5977
sS'2693'
p5978
S'schecter'
p5979
sS'2692'
p5980
S'maintained'
p5981
sS'2691'
p5982
S'stud'
p5983
sS'2690'
p5984
S'flush'
p5985
sS'1362'
p5986
S'fish'
p5987
sS'2152'
p5988
S'xcg4'
p5989
sS'1363'
p5990
S'chips'
p5991
sS'2153'
p5992
S'tubular'
p5993
sS'1360'
p5994
S'charm'
p5995
sS'1361'
p5996
S'gc'
p5997
sS'1142'
p5998
S'measure'
p5999
sS'1143'
p6000
S'ensure'
p6001
sS'1140'
p6002
S'functional'
p6003
sS'1141'
p6004
S'safety'
p6005
sS'1146'
p6006
S'edge'
p6007
sS'1147'
p6008
S'level'
p6009
sS'1144'
p6010
S'stays'
p6011
sS'1145'
p6012
S'brass'
p6013
sS'1148'
p6014
S'prevent'
p6015
sS'1149'
p6016
S'damage'
p6017
sS'768'
p6018
S'till'
p6019
sS'769'
p6020
S'essentially'
p6021
sS'336'
p6022
S'faster'
p6023
sS'766'
p6024
S'tough'
p6025
sS'767'
p6026
S'lp'
p6027
sS'4282'
p6028
S'recommends'
p6029
sS'4283'
p6030
S'moist'
p6031
sS'4280'
p6032
S'64'
p6033
sS'4281'
p6034
S'martins'
p6035
sS'4286'
p6036
S'suckers'
p6037
sS'4287'
p6038
S'keyser'
p6039
sS'4284'
p6040
S'understanding'
p6041
sS'4285'
p6042
S'chasing'
p6043
sS'4288'
p6044
S'laugh'
p6045
sS'4289'
p6046
S'on-stage'
p6047
sS'380'
p6048
S'skill'
p6049
sS'381'
p6050
S'title'
p6051
sS'382'
p6052
S'pinch'
p6053
sS'383'
p6054
S'harmonics'
p6055
sS'384'
p6056
S'compared'
p6057
sS'385'
p6058
S'hard'
p6059
sS'386'
p6060
S'padding'
p6061
sS'387'
p6062
S'guitars'
p6063
sS'388'
p6064
S'safe'
p6065
sS'389'
p6066
S'protection'
p6067
sS'4758'
p6068
S'plectrum'
p6069
sS'4759'
p6070
S'utility'
p6071
sS'4750'
p6072
S'wee'
p6073
sS'4751'
p6074
S'taught'
p6075
sS'4752'
p6076
S'lessons'
p6077
sS'4753'
p6078
S'superglue'
p6079
sS'4754'
p6080
S'purist'
p6081
sS'4755'
p6082
S'metalheads'
p6083
sS'4756'
p6084
S'delight'
p6085
sS'4757'
p6086
S'passages'
p6087
sS'1076'
p6088
S'hides'
p6089
sS'1077'
p6090
S'neatly'
p6091
sS'1074'
p6092
S'display'
p6093
sS'3759'
p6094
S'cavity'
p6095
sS'3758'
p6096
S'theory'
p6097
sS'5376'
p6098
S'qc'
p6099
sS'3751'
p6100
S'heights'
p6101
sS'3750'
p6102
S'btw'
p6103
sS'3753'
p6104
S'losing'
p6105
sS'3752'
p6106
S'gimmick'
p6107
sS'3755'
p6108
S'seperate'
p6109
sS'3754'
p6110
S'occasions'
p6111
sS'3757'
p6112
S'repairs'
p6113
sS'3756'
p6114
S'sealed'
p6115
sS'4633'
p6116
S'premium'
p6117
sS'2191'
p6118
S'attenuation'
p6119
sS'4631'
p6120
S'bracket'
p6121
sS'4630'
p6122
S'extends'
p6123
sS'2194'
p6124
S'evening'
p6125
sS'2195'
p6126
S'stood'
p6127
sS'2196'
p6128
S'orientation'
p6129
sS'2197'
p6130
S'payed'
p6131
sS'2198'
p6132
S'tightened'
p6133
sS'2199'
p6134
S'repeatedly'
p6135
sS'4639'
p6136
S'forty'
p6137
sS'1071'
p6138
S'acoustics'
p6139
sS'4813'
p6140
S'spaghetti'
p6141
sS'4812'
p6142
S'jf-03'
p6143
sS'4811'
p6144
S'basics'
p6145
sS'4810'
p6146
S'clever'
p6147
sS'168'
p6148
S'click'
p6149
sS'169'
p6150
S'pedals'
p6151
sS'164'
p6152
S'pedal'
p6153
sS'165'
p6154
S'1/3'
p6155
sS'166'
p6156
S'situations'
p6157
sS'167'
p6158
S'trouble'
p6159
sS'160'
p6160
S'overdriven'
p6161
sS'161'
p6162
S'drives'
p6163
sS'162'
p6164
S'top'
p6165
sS'163'
p6166
S'cheaper'
p6167
sS'4815'
p6168
S'dr-212'
p6169
sS'4814'
p6170
S'snowball'
p6171
sS'2734'
p6172
S'smashing'
p6173
sS'2735'
p6174
S'eye'
p6175
sS'2736'
p6176
S'kitchen'
p6177
sS'2737'
p6178
S'campfire'
p6179
sS'2730'
p6180
S'limited'
p6181
sS'2731'
p6182
S'fold'
p6183
sS'2732'
p6184
S'exclusively'
p6185
sS'2733'
p6186
S'balancing'
p6187
sS'2738'
p6188
S'stunning'
p6189
sS'2739'
p6190
S'skip'
p6191
sS'5558'
p6192
S'line-in'
p6193
sS'3134'
p6194
S'leaves'
p6195
sS'809'
p6196
S'addition'
p6197
sS'808'
p6198
S'coils'
p6199
sS'803'
p6200
S'classics'
p6201
sS'802'
p6202
S'57'
p6203
sS'801'
p6204
S'versatility'
p6205
sS'800'
p6206
S'actual'
p6207
sS'807'
p6208
S'single'
p6209
sS'806'
p6210
S'players'
p6211
sS'805'
p6212
S'overwhelming'
p6213
sS'804'
p6214
S'8'
p6215
sS'5274'
p6216
S'comb'
p6217
sS'5275'
p6218
S'selected'
p6219
sS'5276'
p6220
S'prints'
p6221
sS'1776'
p6222
S'swivels'
p6223
sS'1771'
p6224
S'periodically'
p6225
sS'5271'
p6226
S'decay'
p6227
sS'1773'
p6228
S'efficient'
p6229
sS'1772'
p6230
S'inline'
p6231
sS'1779'
p6232
S'boutique'
p6233
sS'1778'
p6234
S'lcd'
p6235
sS'1551'
p6236
S'singer'
p6237
sS'1550'
p6238
S'resonant'
p6239
sS'1553'
p6240
S'lean'
p6241
sS'1552'
p6242
S'unbelievable'
p6243
sS'1555'
p6244
S'mouth'
p6245
sS'3039'
p6246
S'sm7b'
p6247
sS'1557'
p6248
S'covers'
p6249
sS'1556'
p6250
S'bending'
p6251
sS'1559'
p6252
S'delivery'
p6253
sS'1558'
p6254
S'packaged'
p6255
sS'3036'
p6256
S'sm57'
p6257
sS'3037'
p6258
S'sp'
p6259
sS'3030'
p6260
S'modding'
p6261
sS'3031'
p6262
S'tunner'
p6263
sS'3032'
p6264
S'warned'
p6265
sS'3033'
p6266
S'moved'
p6267
sS'5605'
p6268
S'4-star'
p6269
sS'5604'
p6270
S'guardian'
p6271
sS'5607'
p6272
S'manuals'
p6273
sS'5606'
p6274
S'tepper'
p6275
sS'5601'
p6276
S'sp-2'
p6277
sS'5600'
p6278
S'7000'
p6279
sS'5603'
p6280
S'mint'
p6281
sS'5602'
p6282
S'exp16s'
p6283
sS'5609'
p6284
S'reliefs'
p6285
sS'5608'
p6286
S'combos'
p6287
sS'229'
p6288
S'os'
p6289
sS'228'
p6290
S'mac'
p6291
sS'227'
p6292
S'64-bit'
p6293
sS'226'
p6294
S'pro'
p6295
sS'225'
p6296
g4434
sS'224'
p6297
S'windows'
p6298
sS'223'
p6299
S'drivers'
p6300
sS'222'
p6301
S'300'
p6302
sS'221'
p6303
S'differences'
p6304
sS'220'
p6305
S'forgetting'
p6306
sS'2509'
p6307
S'zippered'
p6308
sS'2508'
p6309
S'snake'
p6310
sS'2507'
p6311
S'wasting'
p6312
sS'2506'
p6313
S'syndrome'
p6314
sS'2505'
p6315
S'directions'
p6316
sS'2504'
p6317
S'business'
p6318
sS'2503'
p6319
S'toss'
p6320
sS'2502'
p6321
S'doctor'
p6322
sS'2501'
p6323
S'outputs'
p6324
sS'2500'
p6325
S'mixes'
p6326
sS'5049'
p6327
S'gifts'
p6328
sS'5048'
p6329
S'bore'
p6330
sS'5047'
p6331
S'splitter'
p6332
sS'5046'
p6333
S'isolators'
p6334
sS'5045'
p6335
S'transform'
p6336
sS'5044'
p6337
S'dusty'
p6338
sS'5043'
p6339
S'808'
p6340
sS'5042'
p6341
S'bell'
p6342
sS'5041'
p6343
S'topped'
p6344
sS'5040'
p6345
S'energy'
p6346
sS'2160'
p6347
S'specific'
p6348
sS'1256'
p6349
S'golden'
p6350
sS'1257'
p6351
S'eb'
p6352
sS'1254'
p6353
S'material'
p6354
sg2324
S're-stringing'
p6355
sS'1255'
p6356
S'generously'
p6357
sS'1520'
p6358
S'reduction'
p6359
sS'1253'
p6360
S'daily'
p6361
sS'3207'
p6362
S'twang'
p6363
sS'1250'
p6364
S'paper'
p6365
sS'3206'
p6366
S'sweep'
p6367
sS'1251'
p6368
S'fatigue'
p6369
sS'3205'
p6370
S'frame'
p6371
sS'3204'
p6372
S'noiseless'
p6373
sS'3203'
p6374
S'toggle'
p6375
sS'3202'
p6376
S'rag'
p6377
sS'3201'
p6378
S'easiest'
p6379
sS'1996'
p6380
S'folding'
p6381
sS'5188'
p6382
S'marketed'
p6383
sS'1128'
p6384
S'six-string'
p6385
sS'1129'
p6386
S'professional'
p6387
sS'5189'
p6388
S'hp'
p6389
sS'1120'
p6390
S'internet'
p6391
sS'1121'
p6392
S'age'
p6393
sS'1122'
p6394
S'costs'
p6395
sS'1123'
p6396
S'telecaster'
p6397
sS'1124'
p6398
S'coax'
p6399
sS'1125'
p6400
S'throw'
p6401
sS'1126'
p6402
S'looked'
p6403
sS'1127'
p6404
S'itch'
p6405
sS'2864'
p6406
S'fastened'
p6407
sS'2865'
p6408
S'false'
p6409
sS'2868'
p6410
S'monkey'
p6411
sS'2869'
p6412
S'writing'
p6413
sS'4776'
p6414
S'ur'
p6415
sS'4777'
p6416
S'def'
p6417
sS'4774'
p6418
S'polypropylene'
p6419
sS'4775'
p6420
S'unable'
p6421
sS'4772'
p6422
S'stings'
p6423
sS'4773'
p6424
S'dependent'
p6425
sS'4770'
p6426
S'seasoned'
p6427
sS'4771'
p6428
S'grace'
p6429
sS'4778'
p6430
S'inserts'
p6431
sS'4779'
p6432
S'conditioner'
p6433
sS'5818'
p6434
S'rd-300nx'
p6435
sS'5819'
p6436
S'dm70'
p6437
sS'5810'
p6438
S'okina'
p6439
sS'5811'
p6440
S'blackheart'
p6441
sS'5812'
p6442
S'specifics'
p6443
sS'5813'
p6444
S'looped'
p6445
sS'5814'
p6446
S'ebow'
p6447
sS'5815'
p6448
S'kindle'
p6449
sS'5816'
p6450
S'anon'
p6451
sS'5817'
p6452
S'aroland'
p6453
sS'4619'
p6454
S'intention'
p6455
sS'4618'
p6456
S'bose'
p6457
sS'4611'
p6458
S'correction'
p6459
sS'4610'
p6460
S'echos'
p6461
sS'4613'
p6462
S'collected'
p6463
sS'4612'
p6464
S'racks'
p6465
sS'4615'
p6466
S'duet'
p6467
sS'4614'
p6468
S'detected'
p6469
sS'4617'
p6470
S'exl110'
p6471
sS'4616'
p6472
S'daddario'
p6473
sS'2705'
p6474
S'1/2'
p6475
sS'2704'
p6476
S'crush'
p6477
sS'2707'
p6478
S'soul'
p6479
sS'146'
p6480
S'tones'
p6481
sS'5458'
p6482
S'rechargeable'
p6483
sS'144'
p6484
S'heavy'
p6485
sS'145'
p6486
S'metal'
p6487
sS'142'
p6488
S'highly'
p6489
sS'143'
p6490
S'blues'
p6491
sS'140'
p6492
S'foot'
p6493
sS'5459'
p6494
S'ebony'
p6495
sS'4884'
p6496
S'aesthetic'
p6497
sS'148'
p6498
S'features'
p6499
sS'149'
p6500
S'apparent'
p6501
sS'4886'
p6502
S'returns'
p6503
sS'2702'
p6504
S'universe'
p6505
sS'3092'
p6506
S'2013'
p6507
sS'3342'
p6508
S'med'
p6509
sS'3343'
p6510
S'shell'
p6511
sS'5452'
p6512
S'bough'
p6513
sS'2712'
p6514
S'licks'
p6515
sS'2713'
p6516
S'raising'
p6517
sS'2710'
p6518
S'grail'
p6519
sS'2711'
p6520
S'ac/dc'
p6521
sS'2716'
p6522
S'callouses'
p6523
sS'2717'
p6524
S'couch'
p6525
sS'2714'
p6526
S'remain'
p6527
sS'2715'
p6528
S'dogs'
p6529
sS'3346'
p6530
S'fenders'
p6531
sS'2718'
p6532
S'watching'
p6533
sS'2719'
p6534
S'news'
p6535
sS'3347'
p6536
S'colored'
p6537
sS'3344'
p6538
S'strum'
p6539
sS'3345'
p6540
S'cracked'
p6541
sS'829'
p6542
S'banjo'
p6543
sS'828'
p6544
S'solidly'
p6545
sS'825'
p6546
S'traveling'
p6547
sS'824'
p6548
S'lower'
p6549
sS'827'
p6550
S'pockets'
p6551
sS'826'
p6552
S'protective'
p6553
sS'821'
p6554
S'store'
p6555
sS'820'
p6556
S'martin'
p6557
sS'823'
p6558
S'washburn'
p6559
sS'822'
p6560
S'sold'
p6561
sS'5252'
p6562
S'pickin'
p6563
sS'5253'
p6564
S'manipulate'
p6565
sS'5250'
p6566
S'76'
p6567
sS'5251'
p6568
S'chicken'
p6569
sS'5256'
p6570
S'mother'
p6571
sS'5257'
p6572
S'inlay'
p6573
sS'5254'
p6574
S'wahs'
p6575
sS'5255'
p6576
S'candy'
p6577
sS'5258'
p6578
S'spectraflex'
p6579
sS'5259'
p6580
S'lent'
p6581
sS'3018'
p6582
S'brown'
p6583
sS'3019'
p6584
S'cheesy'
p6585
sS'3012'
p6586
S'grandson'
p6587
sS'3013'
p6588
S'painted'
p6589
sS'3010'
p6590
S'verified'
p6591
sS'3011'
p6592
S'ukuleles'
p6593
sS'3016'
p6594
S'ukulele'
p6595
sS'3017'
p6596
S'watts'
p6597
sS'3014'
p6598
S'garbage'
p6599
sS'3015'
p6600
S'machines'
p6601
sS'4189'
p6602
S'modules'
p6603
sS'4188'
p6604
S'on/off'
p6605
sS'4181'
p6606
S'bind'
p6607
sS'4180'
p6608
S'amber'
p6609
sS'4183'
p6610
S'breaker'
p6611
sS'4182'
p6612
S'altogether'
p6613
sS'4185'
p6614
S'lesson'
p6615
sS'4184'
p6616
S'mojo'
p6617
sS'4187'
p6618
S'enter'
p6619
sS'4186'
p6620
S'idk'
p6621
sS'5663'
p6622
S'earnie'
p6623
sS'5662'
p6624
S'v1'
p6625
sS'5661'
p6626
S'blackface'
p6627
sS'5660'
p6628
S'smooths'
p6629
sS'5667'
p6630
S'emg'
p6631
sS'5666'
p6632
S'shack'
p6633
sS'5665'
p6634
S'sc-1'
p6635
sS'5664'
p6636
S'peterson'
p6637
sS'5669'
p6638
S'cigar'
p6639
sS'5668'
p6640
S'slimmer'
p6641
sS'11'
p6642
S'beginners'
p6643
sS'10'
p6644
S'forever'
p6645
sS'13'
p6646
S'mind'
p6647
sS'12'
p6648
S'playing'
p6649
sS'15'
p6650
S'hand'
p6651
sS'14'
p6652
S'strings'
p6653
sS'17'
p6654
S'putting'
p6655
sS'16'
p6656
S'sound'
p6657
sS'19'
p6658
S'sounds'
p6659
sS'18'
p6660
S'pegs'
p6661
sS'3904'
p6662
S'compartments'
p6663
sS'3905'
p6664
S'organize'
p6665
sS'3906'
p6666
S'quantity'
p6667
sS'3907'
p6668
S'bumps'
p6669
sS'3900'
p6670
S'improves'
p6671
sS'3901'
p6672
S'cr2032'
p6673
sS'3902'
p6674
S'apprehensive'
p6675
sS'3903'
p6676
S'choosing'
p6677
sS'3908'
p6678
S'luggage'
p6679
sS'3909'
p6680
S'fortune'
p6681
sS'201'
p6682
S'agree'
p6683
sS'200'
p6684
S'complaint'
p6685
sS'203'
p6686
S'pick'
p6687
sS'202'
p6688
S'thinking'
p6689
sS'205'
p6690
S'worth'
p6691
sS'204'
p6692
S'compare'
p6693
sS'207'
p6694
S'hobbyist'
p6695
sS'206'
p6696
S'cash'
p6697
sS'209'
p6698
S'looper'
p6699
sS'208'
p6700
S'controls'
p6701
sS'830'
p6702
S'common'
p6703
sS'831'
p6704
S'initial'
p6705
sS'836'
p6706
S'leg'
p6707
sS'837'
p6708
S'plain'
p6709
sS'834'
p6710
S'tiny'
p6711
sS'835'
p6712
S'rest'
p6713
sS'3658'
p6714
S'buffer'
p6715
sS'3659'
p6716
S'amplification'
p6717
sS'3654'
p6718
S'isolation'
p6719
sS'3655'
p6720
S'pairs'
p6721
sS'3656'
p6722
S'unity'
p6723
sS'3657'
p6724
S'vacuum'
p6725
sS'3650'
p6726
S'vic'
p6727
sS'3651'
p6728
S'firth'
p6729
sS'3652'
p6730
S'headband'
p6731
sS'3653'
p6732
S'vast'
p6733
sS'2525'
p6734
S'stool'
p6735
sS'2524'
p6736
S'sheet'
p6737
sS'2527'
p6738
S'tray'
p6739
sS'2526'
p6740
S'chair'
p6741
sS'2521'
p6742
S'seagull'
p6743
sS'2520'
p6744
S'el'
p6745
sS'2523'
p6746
S'assembled'
p6747
sS'2522'
p6748
S'class'
p6749
sS'2529'
p6750
S'celluloid'
p6751
sS'2528'
p6752
S'fault'
p6753
sS'5065'
p6754
S'reminiscent'
p6755
sS'5064'
p6756
S'boxy'
p6757
sS'5067'
p6758
S'deserve'
p6759
sS'5066'
p6760
S'telecasters'
p6761
sS'5061'
p6762
S'trails'
p6763
sS'5060'
p6764
S'lush'
p6765
sS'5063'
p6766
S'bin'
p6767
sS'5062'
p6768
S'traveled'
p6769
sS'5069'
p6770
S'sn-6'
p6771
sS'5068'
p6772
S'printed'
p6773
sS'4408'
p6774
S'win7'
p6775
sS'4409'
p6776
S'asio4all'
p6777
sS'4404'
p6778
S'cubase'
p6779
sS'4405'
p6780
S'configuration'
p6781
sS'4406'
p6782
S'standalone'
p6783
sS'4407'
p6784
S'vista'
p6785
sS'4400'
p6786
S'ideas'
p6787
sS'4401'
p6788
S'distribution'
p6789
sS'4402'
p6790
S'tilt'
p6791
sS'4403'
p6792
S'us-100'
p6793
sS'928'
p6794
S'sort'
p6795
sS'929'
p6796
S'rate'
p6797
sS'920'
p6798
S'deluxe'
p6799
sS'921'
p6800
S'reissue'
p6801
sS'922'
p6802
S'warm'
p6803
sS'923'
p6804
S'barely'
p6805
sS'924'
p6806
S'warmth'
p6807
sS'925'
p6808
S'crank'
p6809
sS'926'
p6810
S'speed'
p6811
sS'927'
p6812
S'depth'
p6813
sS'5393'
p6814
S'johnny'
p6815
sS'5392'
p6816
S'well-known'
p6817
sS'5391'
p6818
S'clue'
p6819
sS'5390'
p6820
S'researching'
p6821
sS'5397'
p6822
S'shimmer'
p6823
sS'5396'
p6824
S'girl'
p6825
sS'5395'
p6826
S'content'
p6827
sS'5394'
p6828
S'tuesday'
p6829
sS'5399'
p6830
S'ac30'
p6831
sS'5398'
p6832
S'rv600'
p6833
sS'784'
p6834
S'knobs'
p6835
sS'785'
p6836
S'switches'
p6837
sS'786'
p6838
S'finding'
p6839
sS'787'
p6840
S'varying'
p6841
sS'780'
p6842
S'strats'
p6843
sS'781'
p6844
S'slight'
p6845
sS'782'
p6846
S'downside'
p6847
sS'783'
p6848
S'constantly'
p6849
sS'788'
p6850
S'amounts'
p6851
sS'789'
p6852
S'depending'
p6853
sS'2357'
p6854
S'mixers'
p6855
sS'1371'
p6856
S'squire'
p6857
sS'1370'
p6858
S'technically'
p6859
sS'1373'
p6860
S'soooo'
p6861
sS'404'
p6862
S'music'
p6863
sS'403'
p6864
S'stands'
p6865
sS'402'
p6866
S'equipment'
p6867
sS'401'
p6868
S'lbs'
p6869
sS'1376'
p6870
S'additionally'
p6871
sS'2899'
p6872
S'realizing'
p6873
sS'2898'
p6874
S'fly'
p6875
sS'2895'
p6876
S'meaning'
p6877
sS'2894'
p6878
S'bars'
p6879
sS'2897'
p6880
S'mixed'
p6881
sS'2896'
p6882
S'glance'
p6883
sS'2891'
p6884
S'identical'
p6885
sS'2890'
p6886
S'reinforced'
p6887
sS'2893'
p6888
S'force'
p6889
sS'2892'
p6890
S'clamping'
p6891
sS'1106'
p6892
S'suspect'
p6893
sS'1107'
p6894
S'told'
p6895
sS'1104'
p6896
S'smell'
p6897
sS'1105'
p6898
S'shop'
p6899
sS'1102'
p6900
S'rub'
p6901
sS'1103'
p6902
S'entire'
p6903
sS'1100'
p6904
S'fingerboard'
p6905
sS'1727'
p6906
S'electronic'
p6907
sS'1458'
p6908
S'extremely'
p6909
sS'1724'
p6910
S'beats'
p6911
sS'1108'
p6912
S'setups'
p6913
sS'1109'
p6914
S'forums'
p6915
sS'1725'
p6916
S'horrible'
p6917
sS'5241'
p6918
S'saturation'
p6919
sS'5240'
p6920
S'punk'
p6921
sS'1894'
p6922
S'dollar'
p6923
sS'5243'
p6924
S'sparkly'
p6925
sS'1895'
p6926
S'bill'
p6927
sS'5242'
p6928
S'lame'
p6929
sS'1896'
p6930
S'impossible'
p6931
sS'1897'
p6932
S'staple'
p6933
sS'1890'
p6934
S'pickup'
p6935
sS'1837'
p6936
S'modern'
p6937
sS'3732'
p6938
S'mar'
p6939
sS'1892'
p6940
S'detail'
p6941
sS'1893'
p6942
S'tunes'
p6943
sS'2136'
p6944
S'ultra'
p6945
sS'4922'
p6946
S'readings'
p6947
sS'4921'
p6948
S'geared'
p6949
sS'4920'
p6950
S'contraption'
p6951
sS'4798'
p6952
S'outlets'
p6953
sS'4799'
p6954
S'ts9'
p6955
sS'4794'
p6956
S'leader'
p6957
sS'4795'
p6958
S'comfy'
p6959
sS'4796'
p6960
S'harm'
p6961
sS'4797'
p6962
S'honeytone'
p6963
sS'4790'
p6964
S'classroom'
p6965
sS'4791'
p6966
S'perfection'
p6967
sS'4792'
p6968
S'turtle'
p6969
sS'2133'
p6970
S'blows'
p6971
sS'2130'
p6972
S'listen'
p6973
sS'2131'
p6974
S'peavey'
p6975
sS'2668'
p6976
S'm5'
p6977
sg3370
S'spectacular'
p6978
sS'2669'
p6979
S'fizz'
p6980
sS'2778'
p6981
S'stores'
p6982
sS'2779'
p6983
S'30+'
p6984
sS'4899'
p6985
S'updating'
p6986
sS'4898'
p6987
S'dramatically'
p6988
sS'2770'
p6989
S'attractive'
p6990
sS'2771'
p6991
S'art'
p6992
sS'2772'
p6993
S'patching'
p6994
sS'4890'
p6995
S'dripping'
p6996
sS'2774'
p6997
S'coding'
p6998
sS'2775'
p6999
S'grade'
p7000
sS'2776'
p7001
S'spaced'
p7002
sS'2777'
p7003
S'companies'
p7004
sS'3286'
p7005
S'bolt'
p7006
sS'5167'
p7007
S'parties'
p7008
sS'847'
p7009
S'batteries'
p7010
sS'846'
p7011
S'watch'
p7012
sS'3465'
p7013
S'effortless'
p7014
sS'844'
p7015
S'battery'
p7016
sS'843'
p7017
S'fortunate'
p7018
sS'842'
p7019
S'proved'
p7020
sS'841'
p7021
S'accidently'
p7022
sS'840'
p7023
S'led'
p7024
sS'849'
p7025
S'struggled'
p7026
sS'848'
p7027
S'friendly'
p7028
sS'4902'
p7029
S'mi'
p7030
sS'2406'
p7031
S'ratio'
p7032
sS'4905'
p7033
S'mkii'
p7034
sS'2407'
p7035
S'pad'
p7036
sS'1739'
p7037
S'drums'
p7038
sS'1738'
p7039
S'kit'
p7040
sS'1731'
p7041
S'all-around'
p7042
sS'1730'
p7043
S'substantial'
p7044
sS'1733'
p7045
S'firm'
p7046
sS'5233'
p7047
S'302usb'
p7048
sS'5234'
p7049
S'sunburst'
p7050
sS'5235'
p7051
S'reflection'
p7052
sS'1737'
p7053
S'rid'
p7054
sS'1736'
p7055
S'flexibility'
p7056
sS'3070'
p7057
S'difficulty'
p7058
sS'3071'
p7059
S'units'
p7060
sS'1597'
p7061
S'rack'
p7062
sS'1596'
p7063
S'switching'
p7064
sS'3074'
p7065
S'bow'
p7066
sS'3075'
p7067
S'aggressive'
p7068
sS'1593'
p7069
S'location'
p7070
sS'1592'
p7071
S'layout'
p7072
sS'3078'
p7073
S'mountain'
p7074
sS'3079'
p7075
S'dulcimer'
p7076
sS'1599'
p7077
S'jam'
p7078
sS'1598'
p7079
S'basses'
p7080
sS'4906'
p7081
S'guitar/bass'
p7082
sS'2403'
p7083
S'gates'
p7084
sS'5649'
p7085
S'gogo'
p7086
sS'5648'
p7087
S'>'
p7088
sS'5641'
p7089
S'stamp'
p7090
sS'5640'
p7091
S'duracell'
p7092
sS'5643'
p7093
S'nashville'
p7094
sS'5642'
p7095
S'trusted'
p7096
sS'5645'
p7097
S'applause'
p7098
sS'5644'
p7099
S'encore'
p7100
sS'5647'
p7101
S'region'
p7102
sS'5646'
p7103
S'43'
p7104
sS'4826'
p7105
S'cream'
p7106
sS'489'
p7107
S'fine'
p7108
sS'488'
p7109
S'instantly'
p7110
sS'487'
p7111
S'played'
p7112
sS'486'
p7113
S'note'
p7114
sS'485'
p7115
S'finally'
p7116
sS'484'
p7117
S'hear'
p7118
sS'483'
p7119
S'require'
p7120
sS'482'
p7121
S'response'
p7122
sS'481'
p7123
S'angles'
p7124
sS'480'
p7125
S'viewing'
p7126
sS'4827'
p7127
S'fabric'
p7128
sS'3922'
p7129
S'defined'
p7130
sS'3923'
p7131
S'nifty'
p7132
sS'3920'
p7133
S'pot'
p7134
sS'3921'
p7135
S'cloths'
p7136
sS'3926'
p7137
S'pounded'
p7138
sS'3927'
p7139
S'rolls'
p7140
sS'3924'
p7141
S'starcaster'
p7142
sS'3925'
p7143
S'casters'
p7144
sS'3928'
p7145
S'wasnt'
p7146
sS'3929'
p7147
S'crooked'
p7148
sS'5655'
p7149
S'ymmv'
p7150
sS'3678'
p7151
S'extensively'
p7152
sS'3679'
p7153
S'tweaked'
p7154
sS'3672'
p7155
S'truth'
p7156
sS'3673'
p7157
S'articulation'
p7158
sS'3670'
p7159
S'badly'
p7160
sS'3671'
p7161
S'ranging'
p7162
sS'3676'
p7163
S'bolts'
p7164
sS'3677'
p7165
S'align'
p7166
sS'3674'
p7167
S'frequent'
p7168
sS'3675'
p7169
S'fuel'
p7170
sS'2543'
p7171
S'assemble'
p7172
sS'2542'
p7173
S'ad'
p7174
sS'2541'
p7175
S'low-cost'
p7176
sS'2540'
p7177
S'respond'
p7178
sS'2547'
p7179
S'excess'
p7180
sS'2546'
p7181
S'seat'
p7182
sS'2545'
p7183
S'bench'
p7184
sS'2544'
p7185
S'sheets'
p7186
sS'2549'
p7187
S'driving'
p7188
sS'2548'
p7189
S'piano'
p7190
sS'1456'
p7191
S'carry'
p7192
sS'1457'
p7193
S'stairs'
p7194
sS'1450'
p7195
S'reviewers'
p7196
sS'1451'
p7197
S'air'
p7198
sS'5003'
p7199
S'collapses'
p7200
sS'3581'
p7201
S'finer'
p7202
sS'3582'
p7203
S'precision'
p7204
sS'3583'
p7205
S'shirt'
p7206
sS'3584'
p7207
S'gorgeous'
p7208
sS'3585'
p7209
S'harmonicas'
p7210
sS'3586'
p7211
S'tempted'
p7212
sS'3587'
p7213
S'terribly'
p7214
sS'3588'
p7215
S'cart'
p7216
sS'3589'
p7217
S'slides'
p7218
sS'5009'
p7219
S'on-off'
p7220
sS'1101'
p7221
S'supposedly'
p7222
sS'902'
p7223
S'tremolo'
p7224
sS'903'
p7225
S'bar'
p7226
sS'900'
p7227
S'replaced'
p7228
sS'901'
p7229
S'missing'
p7230
sS'906'
p7231
S'epiphone'
p7232
sS'907'
p7233
S'days'
p7234
sS'904'
p7235
S'complete'
p7236
sS'905'
p7237
S'testing'
p7238
sS'4422'
p7239
S'coin'
p7240
sS'4423'
p7241
S'steps'
p7242
sS'908'
p7243
S'endless'
p7244
sS'909'
p7245
S'drum'
p7246
sS'4426'
p7247
S'subject'
p7248
sS'4427'
p7249
S'octaves'
p7250
sS'4424'
p7251
S'440'
p7252
sS'4425'
p7253
S'diatonic'
p7254
sS'3293'
p7255
S'vibe'
p7256
sS'2916'
p7257
S'rests'
p7258
sS'718'
p7259
S'ds-1'
p7260
sS'1696'
p7261
S'optimum'
p7262
sS'1697'
p7263
S'gooseneck'
p7264
sS'1694'
p7265
S'bulb'
p7266
sS'1695'
p7267
S'consistent'
p7268
sS'1692'
p7269
S'definite'
p7270
sS'1693'
p7271
S'worry'
p7272
sS'1690'
p7273
S'typical'
p7274
sS'1691'
p7275
S'bulbs'
p7276
sS'1698'
p7277
S'zipper'
p7278
sS'1699'
p7279
S'attachment'
p7280
sS'1472'
p7281
S'volt'
p7282
sS'1473'
p7283
S'ac'
p7284
sS'1470'
p7285
S'banks'
p7286
sS'1471'
p7287
S'9'
p7288
sS'1476'
p7289
S'joe'
p7290
sS'1477'
p7291
S'satriani'
p7292
sS'1474'
p7293
S'desktop'
p7294
sS'1475'
p7295
S'downloaded'
p7296
sS'1478'
p7297
S'knock'
p7298
sS'1479'
p7299
S'belt'
p7300
sS'4228'
p7301
S'pliers'
p7302
sS'4229'
p7303
S'remover'
p7304
sS'4224'
p7305
S'fade'
p7306
sS'4225'
p7307
S'daylight'
p7308
sS'4226'
p7309
S'details'
p7310
sS'4227'
p7311
S'alas'
p7312
sS'4220'
p7313
S'newbie'
p7314
sS'4221'
p7315
S'exceeded'
p7316
sS'4222'
p7317
S'ringing'
p7318
sS'4223'
p7319
S'fades'
p7320
sS'24'
p7321
S'bridge'
p7322
sS'25'
p7323
S'coming'
p7324
sS'26'
p7325
S'loose'
p7326
sS'27'
p7327
S're-string'
p7328
sS'20'
p7329
S'nicer'
p7330
sS'21'
p7331
S'richer'
p7332
sS'22'
p7333
S'replace'
p7334
sS'23'
p7335
S'saddle'
p7336
sS'28'
p7337
S'set'
p7338
sS'29'
p7339
S'light'
p7340
sS'5588'
p7341
S'unboxed'
p7342
sS'5589'
p7343
S'economy'
p7344
sS'1069'
p7345
S'fork'
p7346
sS'1068'
p7347
S'hated'
p7348
sS'1061'
p7349
S'polished'
p7350
sS'1060'
p7351
S'snug'
p7352
sS'1063'
p7353
S'floor'
p7354
sS'4923'
p7355
S'template'
p7356
sS'1065'
p7357
S'ernie'
p7358
sS'1064'
p7359
S'control'
p7360
sS'1067'
p7361
S'checking'
p7362
sS'1066'
p7363
S'intended'
p7364
sS'2288'
p7365
S'records'
p7366
sS'2289'
p7367
S'latency'
p7368
sS'2280'
p7369
S'folds'
p7370
sS'2281'
p7371
S'tops'
p7372
sS'2282'
p7373
S'aaa'
p7374
sS'2283'
p7375
S'pluck'
p7376
sS'2284'
p7377
S'layering'
p7378
sS'2285'
p7379
S'starts'
p7380
sS'2286'
p7381
S'alright'
p7382
sS'2287'
p7383
S'special'
p7384
sS'4538'
p7385
S'shifting'
p7386
sS'4539'
p7387
S'film'
p7388
sS'4828'
p7389
S'jackson'
p7390
sS'2056'
p7391
S'proco'
p7392
sS'4534'
p7393
S'dialing'
p7394
sS'4535'
p7395
S'rusty'
p7396
sS'4927'
p7397
S'promises'
p7398
sS'4536'
p7399
S'flatwounds'
p7400
sS'4825'
p7401
S'sm58s'
p7402
sS'4530'
p7403
S'slinkys'
p7404
sS'4823'
p7405
S'accomplish'
p7406
sS'4820'
p7407
S'humidified'
p7408
sS'4926'
p7409
S'triangle'
p7410
sS'4533'
p7411
S'virtual'
p7412
sS'182'
p7413
S'balance'
p7414
sS'183'
p7415
S'ears'
p7416
sS'180'
p7417
S'1'
p7418
sS'181'
p7419
g875
sS'186'
p7420
S'box'
p7421
sS'187'
p7422
S'totally'
p7423
sS'184'
p7424
S'corner'
p7425
sS'185'
p7426
S'pods'
p7427
sS'188'
p7428
S'blew'
p7429
sS'189'
p7430
S'marketing'
p7431
sS'4924'
p7432
S'spring-loaded'
p7433
sS'869'
p7434
S'pitch'
p7435
sS'868'
p7436
S'meter'
p7437
sS'652'
p7438
S'trigger'
p7439
sS'3449'
p7440
S'brilliance'
p7441
sS'3448'
p7442
S'high-end'
p7443
sS'861'
p7444
S'intact'
p7445
sS'860'
p7446
S'sticking'
p7447
sS'863'
p7448
S'rich'
p7449
sS'3446'
p7450
S'exp16'
p7451
sS'3441'
p7452
S'hammer'
p7453
sS'3440'
p7454
S'max'
p7455
sS'867'
p7456
S'yep'
p7457
sS'866'
p7458
S'mail'
p7459
sS'2024'
p7460
S'california'
p7461
sS'2025'
p7462
S'ads'
p7463
sS'2026'
p7464
S'9volt'
p7465
sS'2027'
p7466
S'twin'
p7467
sS'2020'
p7468
S'supply'
p7469
sS'2021'
p7470
S'static'
p7471
sS'2022'
p7472
S'hiss'
p7473
sS'2751'
p7474
S'variance'
p7475
sS'2028'
p7476
S'speakers'
p7477
sS'2029'
p7478
S'compatible'
p7479
sS'2758'
p7480
S'crappy'
p7481
sS'2759'
p7482
S'green'
p7483
sS'5216'
p7484
S'sn-2'
p7485
sS'5217'
p7486
S'laid'
p7487
sS'5214'
p7488
S'limits'
p7489
sS'5215'
p7490
S'dumb'
p7491
sS'5212'
p7492
S'multi-effects'
p7493
sS'5213'
p7494
S'5w'
p7495
sS'5210'
p7496
S'cs400'
p7497
sS'5211'
p7498
S'grunge'
p7499
sS'5218'
p7500
S'harmonies'
p7501
sS'5219'
p7502
S'birthday'
p7503
sS'3058'
p7504
S'ya'
p7505
sS'3059'
p7506
S'loves'
p7507
sS'3056'
p7508
S'connect'
p7509
sS'3057'
p7510
S'recieved'
p7511
sS'3054'
p7512
S'clubs'
p7513
sS'3055'
p7514
S'dj'
p7515
sS'3052'
p7516
S'nady'
p7517
sS'3053'
p7518
S'extras'
p7519
sS'3050'
p7520
S'phones'
p7521
sS'3051'
p7522
S'multi-track'
p7523
sS'4597'
p7524
S'reaper'
p7525
sg6215
S'strap'
p7526
sS'1317'
p7527
S'distance'
p7528
sS'1316'
p7529
S'fill'
p7530
sS'1315'
p7531
S'admit'
p7532
sS'1314'
p7533
S'band'
p7534
sS'1313'
p7535
S'quick'
p7536
sS'1312'
p7537
S'dependable'
p7538
sS'1311'
p7539
S'snarks'
p7540
sS'1310'
p7541
S'colors'
p7542
sS'1319'
p7543
S'muddy'
p7544
sS'1318'
p7545
S'eat'
p7546
sS'3948'
p7547
S'4-5'
p7548
sS'3949'
p7549
S'hall'
p7550
sS'3940'
p7551
S'unlimited'
p7552
sS'3941'
p7553
S'ditto'
p7554
sS'3942'
p7555
S'furniture'
p7556
sS'3943'
p7557
S'granddaughter'
p7558
sS'3944'
p7559
S'wuhan'
p7560
sS'3945'
p7561
S'trashy'
p7562
sS'3946'
p7563
S'sm-58'
p7564
sS'3947'
p7565
S'score'
p7566
sS'4057'
p7567
S'set-up'
p7568
sS'4056'
p7569
S'laminate'
p7570
sS'4055'
p7571
S'sandwich'
p7572
sS'4054'
p7573
S'screwing'
p7574
sS'4053'
p7575
S'axes'
p7576
sS'4052'
p7577
S'upgrading'
p7578
sS'4051'
p7579
S'pauls'
p7580
sS'4050'
p7581
S'generous'
p7582
sS'4059'
p7583
S'faith'
p7584
sS'4058'
p7585
S'treatment'
p7586
sS'3610'
p7587
S'hardshell'
p7588
sS'3611'
p7589
S'suitcase'
p7590
sS'3612'
p7591
S'ruined'
p7592
sS'3613'
p7593
S'grand'
p7594
sS'3614'
p7595
S'daughters'
p7596
sS'3615'
p7597
S'ebay'
p7598
sS'3616'
p7599
S'yo'
p7600
sS'3617'
p7601
S'soprano'
p7602
sS'3618'
p7603
S'deaf'
p7604
sS'3619'
p7605
S'defiantly'
p7606
sS'2569'
p7607
S'stayed'
p7608
sS'2568'
p7609
S'banged'
p7610
sS'2561'
p7611
S'uke'
p7612
sS'2560'
p7613
S'intonation'
p7614
sS'2563'
p7615
S'items'
p7616
sS'2562'
p7617
S'guard'
p7618
sS'2565'
p7619
S'marks'
p7620
sS'2564'
p7621
S'sizes'
p7622
sS'2567'
p7623
S'dying'
p7624
sS'2566'
p7625
S'lasts'
p7626
sS'5029'
p7627
S'airline'
p7628
sS'5028'
p7629
S'parlor'
p7630
sS'5021'
p7631
S'consumer'
p7632
sS'5020'
p7633
S'duration'
p7634
sS'5023'
p7635
S'unpacked'
p7636
sS'5022'
p7637
S'zager'
p7638
sS'5025'
p7639
S'sanding'
p7640
sS'5024'
p7641
S'grit'
p7642
sS'5027'
p7643
S'gretch'
p7644
sS'5026'
p7645
S'd-35'
p7646
sS'4440'
p7647
S'lint-free'
p7648
sS'4441'
p7649
S'dampen'
p7650
sS'4442'
p7651
S'circular'
p7652
sS'4443'
p7653
S'striking'
p7654
sS'4444'
p7655
S'strike'
p7656
sS'4445'
p7657
S'absorb'
p7658
sS'4446'
p7659
S'wrist'
p7660
sS'4447'
p7661
S'woody'
p7662
sS'4448'
p7663
S'sandpaper'
p7664
sS'4449'
p7665
S'chances'
p7666
sS'964'
p7667
S'3-4'
p7668
sS'965'
p7669
S'yrs'
p7670
sS'966'
p7671
S'ago'
p7672
sS'967'
p7673
S'watt'
p7674
sS'960'
p7675
S'loop'
p7676
sS'961'
p7677
S'hope'
p7678
sS'962'
p7679
S'decision'
p7680
sS'963'
p7681
S'tweed'
p7682
sS'968'
p7683
S'lighter'
p7684
sS'969'
p7685
S'fat'
p7686
sS'1537'
p7687
S'midrange'
p7688
sS'1536'
p7689
S'china'
p7690
sS'1535'
p7691
S'pyle-pro'
p7692
sS'1534'
p7693
S'twenty'
p7694
sS'1245'
p7695
S'performs'
p7696
sS'1532'
p7697
S'treat'
p7698
sS'1247'
p7699
S'grip'
p7700
sS'3095'
p7701
S'electro'
p7702
sS'649'
p7703
S'upset'
p7704
sS'1248'
p7705
S'pin'
p7706
sS'3236'
p7707
S'digitech'
p7708
sS'5198'
p7709
S'v22'
p7710
sS'3234'
p7711
S'roll'
p7712
sS'3235'
p7713
S'6th'
p7714
sS'641'
p7715
S'plenty'
p7716
sS'5195'
p7717
S'sx'
p7718
sS'5194'
p7719
S'all-in-one'
p7720
sS'1614'
p7721
S'patterns'
p7722
sS'1615'
p7723
S'rockin'
p7724
sS'1960'
p7725
S'lifting'
p7726
sS'640'
p7727
S'prime'
p7728
sS'5190'
p7729
S'route'
p7730
sS'5193'
p7731
S'emergency'
p7732
sS'1963'
p7733
S'accessory'
p7734
sS'643'
p7735
S'search'
p7736
sS'1678'
p7737
S'explained'
p7738
sS'1679'
p7739
S'manual'
p7740
sS'1674'
p7741
S'hunt'
p7742
sS'1675'
p7743
S'6-string'
p7744
sS'1676'
p7745
S'calibration'
p7746
sS'1677'
p7747
S'hit'
p7748
sS'1670'
p7749
S'quiet'
p7750
sS'1671'
p7751
S'mutes'
p7752
sS'1672'
p7753
S'selecting'
p7754
sS'1673'
p7755
S'strobe'
p7756
sS'642'
p7757
S'length'
p7758
sS'645'
p7759
S'searching'
p7760
sS'1418'
p7761
S'displayed'
p7762
sS'1419'
p7763
S'flip'
p7764
sS'1410'
p7765
S'tested'
p7766
sS'1411'
p7767
S'screen'
p7768
sS'1412'
p7769
S'stay'
p7770
sS'1413'
p7771
S'opinion'
p7772
sS'1414'
p7773
S'easier'
p7774
sS'1415'
p7775
S'screens'
p7776
sS'1416'
p7777
S'experienced'
p7778
sS'1417'
p7779
S'flash'
p7780
sS'644'
p7781
S'curious'
p7782
sS'4208'
p7783
S'misleading'
p7784
sS'4209'
p7785
S'swiss'
p7786
sS'4202'
p7787
S'dan'
p7788
sS'4203'
p7789
S'guage'
p7790
sS'4200'
p7791
S'bbe'
p7792
sS'4201'
p7793
S'timer'
p7794
sS'4206'
p7795
S'potentiometers'
p7796
sS'4207'
p7797
S'aesthetically'
p7798
sS'4204'
p7799
S'replacements'
p7800
sS'4205'
p7801
S'matching'
p7802
sS'647'
p7803
S'hoping'
p7804
sS'5568'
p7805
S'introduced'
p7806
sS'5569'
p7807
S'evaluate'
p7808
sS'5564'
p7809
S'sister'
p7810
sS'5565'
p7811
S'125'
p7812
sS'5566'
p7813
S'so-so'
p7814
sS'5567'
p7815
S'sans'
p7816
sS'5560'
p7817
S'40-'
p7818
sS'5561'
p7819
S'screw-in'
p7820
sS'5562'
p7821
S'dna'
p7822
sS'5563'
p7823
S'muddied'
p7824
sS'646'
p7825
S'online'
p7826
sS'308'
p7827
S'sweaty'
p7828
sS'309'
p7829
S'wipe'
p7830
sS'300'
p7831
S'hot'
p7832
sS'301'
p7833
S'wear'
p7834
sS'302'
p7835
S'summer'
p7836
sS'303'
p7837
S'product'
p7838
sS'304'
p7839
S'meant'
p7840
sS'305'
p7841
S'pop'
p7842
sS'306'
p7843
S'filter'
p7844
sS'307'
p7845
S'bad'
p7846
sS'472'
p7847
S'option'
p7848
sS'4893'
p7849
S'conductor'
p7850
sS'4892'
p7851
S'manhasset'
p7852
sS'4891'
p7853
S'elbow'
p7854
sS'2773'
p7855
S'rehearsal'
p7856
sS'4897'
p7857
S'bumping'
p7858
sS'4896'
p7859
S'masking'
p7860
sS'4895'
p7861
S'buddy'
p7862
sS'4894'
p7863
S'competitor'
p7864
sS'3429'
p7865
S'weekend'
p7866
sS'3428'
p7867
S'enthusiast'
p7868
sS'3423'
p7869
S'calibrate'
p7870
sS'3422'
p7871
S'curve'
p7872
sS'3421'
p7873
S'leslie'
p7874
sS'3420'
p7875
S'flutter'
p7876
sS'3427'
p7877
S'kudos'
p7878
sS'3426'
p7879
S'cake'
p7880
sS'3425'
p7881
S'conclusion'
p7882
sS'3424'
p7883
S'dedicated'
p7884
sS'2002'
p7885
S'deals'
p7886
sS'2003'
p7887
S'dented'
p7888
sS'2000'
p7889
S'fall'
p7890
sS'2001'
p7891
S'attention'
p7892
sS'4589'
p7893
S'sn-13'
p7894
sS'2007'
p7895
S'beatles'
p7896
sS'2004'
p7897
S'2000'
p7898
sS'4858'
p7899
S'jamman'
p7900
sS'4585'
p7901
S'stone'
p7902
sS'4856'
p7903
S'true-bypass'
p7904
sS'4587'
p7905
S'rotates'
p7906
sS'4586'
p7907
S'mellower'
p7908
sS'4853'
p7909
S'junior'
p7910
sS'4852'
p7911
S'expectation'
p7912
sS'4851'
p7913
S'hohner'
p7914
sS'4850'
p7915
S'collecting'
p7916
sS'1906'
p7917
S'lasted'
p7918
sS'1087'
p7919
S'purchases'
p7920
sS'1086'
p7921
S'wild'
p7922
sS'1085'
p7923
S'frankly'
p7924
sS'1084'
p7925
S'lots'
p7926
sS'1083'
p7927
S'ratings'
p7928
sS'1082'
p7929
S'pricing'
p7930
sS'1081'
p7931
S'heart'
p7932
sS'1080'
p7933
S'beating'
p7934
sS'1089'
p7935
S'concern'
p7936
sS'1088'
p7937
S'lead'
p7938
sS'1904'
p7939
S'concert'
p7940
sS'5134'
p7941
S'ripped'
p7942
sS'449'
p7943
S'transporting'
p7944
sS'448'
p7945
S'hassle'
p7946
sS'1339'
p7947
S'word'
p7948
sS'1338'
p7949
S'crap'
p7950
sS'1335'
p7951
S'underneath'
p7952
sS'1334'
p7953
S'sticker'
p7954
sS'1337'
p7955
S'kinda'
p7956
sS'1336'
p7957
S'recomend'
p7958
sS'1331'
p7959
S'dollars'
p7960
sS'1330'
p7961
S'feedback'
p7962
sS'1333'
p7963
S'tech'
p7964
sS'1332'
p7965
S'graph'
p7966
sS'39'
p7967
S'reason'
p7968
sS'38'
p7969
S'capo'
p7970
sS'33'
p7971
S'hands'
p7972
sS'32'
p7973
S'sore'
p7974
sS'31'
p7975
S'fingers'
p7976
sS'30'
p7977
S'practice'
p7978
sS'37'
p7979
S'future'
p7980
sS'36'
p7981
S'purchasing'
p7982
sS'35'
p7983
S'continue'
p7984
sS'34'
p7985
S'intend'
p7986
sS'1903'
p7987
S'sloppy'
p7988
sS'1900'
p7989
S'eliminating'
p7990
sS'3467'
p7991
S'shops'
p7992
sS'3466'
p7993
S'idiot'
p7994
sS'845'
p7995
S'arrived'
p7996
sS'3464'
p7997
S'history'
p7998
sS'3463'
p7999
S'settled'
p8000
sS'3462'
p8001
S'havent'
p8002
sS'4079'
p8003
S'connects'
p8004
sS'4078'
p8005
S'volume/wah'
p8006
sS'4075'
p8007
S'preserve'
p8008
sS'4074'
p8009
S'travels'
p8010
sS'4077'
p8011
S'wonders'
p8012
sS'4076'
p8013
S'drawing'
p8014
sS'4071'
p8015
S'ordinary'
p8016
sS'4070'
p8017
S'fog'
p8018
sS'4073'
p8019
S'technical'
p8020
sS'4072'
p8021
S'cheapest'
p8022
sS'3966'
p8023
S'unplugged'
p8024
sS'3967'
p8025
S'vht'
p8026
sS'3964'
p8027
S'hype'
p8028
sS'3965'
p8029
S'soldered'
p8030
sS'3962'
p8031
S'discernible'
p8032
sS'3963'
p8033
S'skeptical'
p8034
sS'3960'
p8035
S'whatsoever'
p8036
sS'3961'
p8037
S'legit'
p8038
sS'3968'
p8039
S'absolute'
p8040
sS'3969'
p8041
S'lazy'
p8042
sS'3638'
p8043
S'america'
p8044
sS'3639'
p8045
S'claim'
p8046
sS'3636'
p8047
S'gentle'
p8048
sS'3637'
p8049
S'manage'
p8050
sS'3634'
p8051
S'measurements'
p8052
sS'3635'
p8053
S'posted'
p8054
sS'3632'
p8055
S'measured'
p8056
sS'3633'
p8057
S'12th'
p8058
sS'3630'
p8059
S'watched'
p8060
sS'3631'
p8061
S'yea'
p8062
sS'3469'
p8063
S'host'
p8064
sS'3468'
p8065
S'commented'
p8066
sS'5450'
p8067
S'compressed'
p8068
sS'4468'
p8069
S'dp-008ex'
p8070
sS'4469'
p8071
S'generation'
p8072
sS'4466'
p8073
S'indoors'
p8074
sS'4467'
p8075
S'resistance'
p8076
sS'4464'
p8077
S'wounds'
p8078
sS'4465'
p8079
S'zing'
p8080
sS'4462'
p8081
S'noticable'
p8082
sS'4463'
p8083
S'xls'
p8084
sS'4460'
p8085
S'humid'
p8086
sS'4461'
p8087
S'account'
p8088
sS'948'
p8089
S'adds'
p8090
sS'949'
p8091
S'modulation'
p8092
sS'946'
p8093
S'demos'
p8094
sS'947'
p8095
S'short'
p8096
sS'944'
p8097
S'digital'
p8098
sS'945'
p8099
S'delay'
p8100
sS'942'
p8101
S'crisp'
p8102
sS'943'
p8103
S'crystal'
p8104
sS'940'
p8105
S'bear'
p8106
sS'941'
p8107
S'vintage'
p8108
sS'2410'
p8109
S'fans'
p8110
sS'4793'
p8111
S'rubbed'
p8112
sS'1658'
p8113
S'package'
p8114
sS'1659'
p8115
S'lying'
p8116
sS'1652'
p8117
S'hurting'
p8118
sS'1653'
p8119
S'steal'
p8120
sS'1650'
p8121
S'worrying'
p8122
sS'1651'
p8123
S'scratching'
p8124
sS'1656'
p8125
S'environments'
p8126
sS'1657'
p8127
S'strange'
p8128
sS'1654'
p8129
S'lowest'
p8130
sS'1655'
p8131
S'pitches'
p8132
sS'586'
p8133
S'rubbing'
p8134
sS'5238'
p8135
S'remaining'
p8136
sS'584'
p8137
S'go-to'
p8138
sS'585'
p8139
S'locked'
p8140
sS'582'
p8141
S'style'
p8142
sS'583'
p8143
S'awkward'
p8144
sS'580'
p8145
S'chords'
p8146
sS'5239'
p8147
S'investing'
p8148
sS'588'
p8149
S'nylon'
p8150
sS'589'
p8151
S'fraying'
p8152
sS'2839'
p8153
S'indicator'
p8154
sS'2838'
p8155
S'dialed'
p8156
sS'2837'
p8157
S'intonate'
p8158
sS'2836'
p8159
S'readout'
p8160
sS'2835'
p8161
S'positively'
p8162
sS'2834'
p8163
S'conditions'
p8164
sS'2833'
p8165
S'regard'
p8166
sS'2832'
p8167
S'/'
p8168
sS'2831'
p8169
S'bet'
p8170
sS'2830'
p8171
S'ride'
p8172
sS'3391'
p8173
S'delayed'
p8174
sS'3390'
p8175
S'army'
p8176
sS'5405'
p8177
S'november'
p8178
sS'5404'
p8179
S'filling'
p8180
sS'5403'
p8181
S'bulkier'
p8182
sS'5402'
p8183
S'beloved'
p8184
sS'5401'
p8185
S'foremost'
p8186
sS'5400'
p8187
S'aimed'
p8188
sS'3399'
p8189
S'la'
p8190
sS'3398'
p8191
S'interference'
p8192
sS'5409'
p8193
S'december'
p8194
sS'1439'
p8195
S'curved'
p8196
sS'5230'
p8197
S'reminds'
p8198
sS'5231'
p8199
S'noisey'
p8200
sS'5232'
p8201
S'akai'
p8202
sS'4260'
p8203
S'saturated'
p8204
sS'4261'
p8205
S'elixer'
p8206
sS'4262'
p8207
S'fired'
p8208
sS'1732'
p8209
S'remains'
p8210
sS'4264'
p8211
S'acoustic-electric'
p8212
sS'4265'
p8213
S'hooray'
p8214
sS'4266'
p8215
S'arrival'
p8216
sS'4267'
p8217
S'giant'
p8218
sS'4268'
p8219
S'paired'
p8220
sS'4269'
p8221
S'pignose'
p8222
sS'1734'
p8223
S'carefully'
p8224
sS'3702'
p8225
S'pc'
p8226
sS'5236'
p8227
S'visit'
p8228
sS'3703'
p8229
S'linux'
p8230
sS'5237'
p8231
S'examine'
p8232
sS'1885'
p8233
S'em'
p8234
sS'5548'
p8235
S'eats'
p8236
sS'3701'
p8237
S'uca202'
p8238
sS'5542'
p8239
S'polyphonic'
p8240
sS'3706'
p8241
S'12ax7'
p8242
sS'5540'
p8243
S'nickle'
p8244
sS'5541'
p8245
S'lo'
p8246
sS'5546'
p8247
S'displaying'
p8248
sS'5547'
p8249
S'movie'
p8250
sS'5544'
p8251
S'depress'
p8252
sS'3707'
p8253
S'engineers'
p8254
sS'1881'
p8255
S'expression'
p8256
sS'1880'
p8257
S'pads'
p8258
sS'4668'
p8259
S'smoothness'
p8260
sS'4669'
p8261
S'diamond'
p8262
sS'2127'
p8263
S'blown'
p8264
sS'2126'
p8265
S'warped'
p8266
sS'4664'
p8267
S'rehearse'
p8268
sS'2128'
p8269
S'freaking'
p8270
sS'4666'
p8271
S'wired'
p8272
sS'4667'
p8273
S'removal'
p8274
sS'4660'
p8275
S'5-star'
p8276
sS'4661'
p8277
S'standards'
p8278
sS'4662'
p8279
S'rocker'
p8280
sS'4663'
p8281
S'65'
p8282
sS'322'
p8283
S'awesome'
p8284
sS'323'
p8285
S'original'
p8286
sS'320'
p8287
S'recording'
p8288
sS'321'
p8289
S'studio'
p8290
sS'326'
p8291
S'clipper'
p8292
sS'327'
p8293
S'strong'
p8294
sS'324'
p8295
S'string'
p8296
sS'325'
p8297
S'winder'
p8298
sS'328'
p8299
S'planet'
p8300
sS'329'
p8301
S'waves'
p8302
sS'1595'
p8303
S'joyo'
p8304
sS'1594'
p8305
S'loyal'
p8306
sS'3072'
p8307
S'distinct'
p8308
sS'3073'
p8309
S'rosin'
p8310
sS'1591'
p8311
S'voicing'
p8312
sS'1590'
p8313
S'selection'
p8314
sS'3076'
p8315
S'trial'
p8316
sS'3077'
p8317
S'fiddle'
p8318
sS'3252'
p8319
S'punch'
p8320
sS'2248'
p8321
S'tighten'
p8322
sS'2249'
p8323
S'hex'
p8324
sS'2244'
p8325
S'managed'
p8326
sS'2245'
p8327
S'extending'
p8328
sS'2246'
p8329
S'necks'
p8330
sS'2247'
p8331
S'continually'
p8332
sS'2240'
p8333
S'collar'
p8334
sS'2241'
p8335
S'mix'
p8336
sS'2242'
p8337
S'retainer'
p8338
sS'2243'
p8339
S'flying'
p8340
sS'3401'
p8341
S'transmission'
p8342
sS'3400'
p8343
S'jimi'
p8344
sS'3403'
p8345
S'advertising'
p8346
sS'3402'
p8347
S'german'
p8348
sS'3405'
p8349
S'competitors'
p8350
sS'3404'
p8351
S'dd-7'
p8352
sS'3407'
p8353
S'slowly'
p8354
sS'3406'
p8355
S'circumstances'
p8356
sS'3409'
p8357
S'conjunction'
p8358
sS'3408'
p8359
S'individually'
p8360
sS'4875'
p8361
S'shield'
p8362
sS'4874'
p8363
S'smudges'
p8364
sS'4877'
p8365
S'lifeless'
p8366
sS'4876'
p8367
S'copper'
p8368
sS'4871'
p8369
S'corroding'
p8370
sS'4870'
p8371
S'unexpectedly'
p8372
sS'4873'
p8373
S'lint'
p8374
sS'4872'
p8375
S'microfiber'
p8376
sS'4879'
p8377
S'cell'
p8378
sS'4878'
p8379
S'polywebs'
p8380
sS'2068'
p8381
S'luck'
p8382
sS'2069'
p8383
S'colour'
p8384
sS'2798'
p8385
S'waited'
p8386
sS'2799'
p8387
S'limitations'
p8388
sS'2792'
p8389
S'fellow'
p8390
sS'2793'
p8391
S'cassette'
p8392
sS'2790'
p8393
S'bluegrass'
p8394
sS'2791'
p8395
S'351'
p8396
sS'2796'
p8397
S'audacity'
p8398
sS'2797'
p8399
S'wiring'
p8400
sS'2794'
p8401
S'deck'
p8402
sS'2795'
p8403
S'comment'
p8404
sS'3256'
p8405
S'fourth'
p8406
sS'5692'
p8407
S'ash'
p8408
sS'5690'
p8409
S'detract'
p8410
sS'5691'
p8411
S'sam'
p8412
sS'5696'
p8413
S'toast'
p8414
sS'4883'
p8415
S'layered'
p8416
sS'1359'
p8417
S'connections'
p8418
sS'1358'
p8419
S'weak'
p8420
sS'469'
p8421
S'ukelele'
p8422
sS'468'
p8423
S'mandolin'
p8424
sS'465'
p8425
S'types'
p8426
sS'464'
p8427
S'user'
p8428
sS'467'
p8429
S'devices'
p8430
sS'466'
p8431
S'visual'
p8432
sS'1357'
p8433
S'chorus'
p8434
sS'460'
p8435
S'knocked'
p8436
sS'1355'
p8437
S'kidding'
p8438
sS'1354'
p8439
S'32'
p8440
sS'4885'
p8441
S'notches'
p8442
sS'3184'
p8443
S'leads'
p8444
sS'3185'
p8445
S'brightness'
p8446
sS'3186'
p8447
S'slider'
p8448
sS'3187'
p8449
S'sat'
p8450
sS'3180'
p8451
S'sand'
p8452
sS'3181'
p8453
S'muted'
p8454
sS'3182'
p8455
S'solid-state'
p8456
sS'3183'
p8457
S'suffice'
p8458
sS'3188'
p8459
S'rides'
p8460
sS'3189'
p8461
S'acquired'
p8462
sS'4019'
p8463
S'17'
p8464
sS'4018'
p8465
S'suspected'
p8466
sS'4013'
p8467
S'electrics'
p8468
sS'4012'
p8469
S'gem'
p8470
sS'4011'
p8471
S'operates'
p8472
sS'4010'
p8473
S'internally'
p8474
sS'4017'
p8475
S'pickguards'
p8476
sS'4016'
p8477
S'yup'
p8478
sS'4015'
p8479
S'owns'
p8480
sS'4014'
p8481
S'conversion'
p8482
sS'5797'
p8483
S'dimension'
p8484
sS'3988'
p8485
S'ipad'
p8486
sS'3989'
p8487
S'seams'
p8488
sS'3984'
p8489
S'component'
p8490
sS'3985'
p8491
S'glasses'
p8492
sS'3986'
p8493
S'dad'
p8494
sS'3987'
p8495
S'becuase'
p8496
sS'3980'
p8497
S'receiver'
p8498
sS'3981'
p8499
S'ambiance'
p8500
sS'3982'
p8501
S'plunge'
p8502
sS'3983'
p8503
S'producing'
p8504
sS'5796'
p8505
S'el84'
p8506
sS'1447'
p8507
S'separate'
p8508
sS'1446'
p8509
S'organized'
p8510
sS'1445'
p8511
S'tremelo'
p8512
sS'289'
p8513
S'styles'
p8514
sS'288'
p8515
S'musical'
p8516
sS'1444'
p8517
S'allen'
p8518
sS'281'
p8519
S'compact'
p8520
sS'1443'
p8521
S'sennheiser'
p8522
sS'283'
p8523
S'gig'
p8524
sS'282'
p8525
S'keyboard'
p8526
sS'285'
p8527
S'albeit'
p8528
sS'284'
p8529
S'bag'
p8530
sS'287'
p8531
S'variety'
p8532
sS'1442'
p8533
S'previous'
p8534
sS'1441'
p8535
S'closes'
p8536
sS'1116'
p8537
S'tape'
p8538
sS'3561'
p8539
S'bases'
p8540
sS'5793'
p8541
S'chemicals'
p8542
sS'2477'
p8543
S'hosa'
p8544
sS'2476'
p8545
S'dr'
p8546
sS'2475'
p8547
S'comparisons'
p8548
sS'2474'
p8549
S'car'
p8550
sS'2473'
p8551
S'telescoping'
p8552
sS'2472'
p8553
S'reinforcement'
p8554
sS'2471'
p8555
S'duct'
p8556
sS'2470'
p8557
S'someday'
p8558
sS'2479'
p8559
S'helpful'
p8560
sS'2478'
p8561
S'inclined'
p8562
sS'5791'
p8563
S'spyder'
p8564
sS'2907'
p8565
S'sampling'
p8566
sS'2906'
p8567
S'expectations'
p8568
sS'1986'
p8569
S'closer'
p8570
sS'3215'
p8571
S'pain'
p8572
sS'3216'
p8573
S'squeeze'
p8574
sS'1985'
p8575
S'hair'
p8576
sS'3210'
p8577
S'human'
p8578
sS'3211'
p8579
S'suggestion'
p8580
sS'3212'
p8581
S'alternatives'
p8582
sS'3213'
p8583
S'spider'
p8584
sS'1638'
p8585
S'tinny'
p8586
sS'2134'
p8587
S'water'
p8588
sS'2904'
p8589
S'vibrate'
p8590
sS'3218'
p8591
S'sided'
p8592
sS'3219'
p8593
S'80s'
p8594
sS'1988'
p8595
S'tremendous'
p8596
sS'1989'
p8597
S'adjustments'
p8598
sS'2909'
p8599
S'bounce'
p8600
sS'2815'
p8601
S'socket'
p8602
sS'2814'
p8603
S'carried'
p8604
sS'2817'
p8605
S'negatives'
p8606
sS'707'
p8607
S'decent'
p8608
sS'2811'
p8609
S'serviceable'
p8610
sS'2810'
p8611
S'shockingly'
p8612
sS'2813'
p8613
S'clip-on'
p8614
sS'2812'
p8615
S'flaw'
p8616
sS'560'
p8617
S'pitchblack'
p8618
sS'561'
p8619
S'fair'
p8620
sS'562'
p8621
S'priced'
p8622
sS'563'
p8623
S'reputable'
p8624
sS'2819'
p8625
S'washer'
p8626
sS'2818'
p8627
S'sink'
p8628
sS'566'
p8629
S'customer'
p8630
sS'567'
p8631
S'life'
p8632
sS'5429'
p8633
S'cats'
p8634
sS'5428'
p8635
S'steve'
p8636
sS'3379'
p8637
S'cosmetic'
p8638
sS'3378'
p8639
S'hell'
p8640
sS'5425'
p8641
S'10s'
p8642
sS'5424'
p8643
S'bx5a'
p8644
sS'5427'
p8645
S'xm1800s'
p8646
sS'5426'
p8647
S'sonar'
p8648
sS'3373'
p8649
S'object'
p8650
sS'5420'
p8651
S'guidance'
p8652
sS'5423'
p8653
S'squeaking'
p8654
sS'5422'
p8655
S'challenging'
p8656
sS'4248'
p8657
S'speech'
p8658
sS'4249'
p8659
S'ovation'
p8660
sS'4246'
p8661
S'requested'
p8662
sS'4247'
p8663
S'appeal'
p8664
sS'4244'
p8665
S'stocking'
p8666
sS'4245'
p8667
S'accoustic'
p8668
sS'4242'
p8669
S'handled'
p8670
sS'4243'
p8671
S's1'
p8672
sS'4240'
p8673
S'term'
p8674
sS'4241'
p8675
S'5005'
p8676
sS'5520'
p8677
S'reaches'
p8678
sS'5521'
p8679
S'alike'
p8680
sS'5522'
p8681
S'elixers'
p8682
sS'5523'
p8683
S'invaluable'
p8684
sS'5524'
p8685
S'warn'
p8686
sS'5525'
p8687
S'warmed'
p8688
sS'5526'
p8689
S'pointy'
p8690
sS'5527'
p8691
S'kaiser'
p8692
sS'5528'
p8693
S'sophisticated'
p8694
sS'5529'
p8695
S'proximity'
p8696
sS'48'
p8697
S'built'
p8698
sS'49'
p8699
S'solid'
p8700
sS'46'
p8701
S'hd'
p8702
sS'47'
p8703
S'500'
p8704
sS'44'
p8705
g1403
sS'45'
p8706
S'pod'
p8707
sS'42'
p8708
S'price'
p8709
sS'43'
p8710
S'purchased'
p8711
sS'40'
p8712
S'hold'
p8713
sS'41'
p8714
S'play'
p8715
sS'4848'
p8716
S'gloss'
p8717
sS'5310'
p8718
S'ezdrummer'
p8719
sS'344'
p8720
S'park'
p8721
sS'345'
p8722
S'nice'
p8723
sS'346'
p8724
S'lasting'
p8725
sS'347'
p8726
S'cares'
p8727
sS'340'
p8728
S'careful'
p8729
sS'341'
p8730
S'break'
p8731
sS'342'
p8732
S'precise'
p8733
sS'343'
p8734
S'ball'
p8735
sS'348'
p8736
S'affordable'
p8737
sS'349'
p8738
S'starting'
p8739
sS'2132'
p8740
S'rogue'
p8741
sS'4831'
p8742
S'cent'
p8743
sS'4526'
p8744
S'nyxls'
p8745
sS'3237'
p8746
S'hendrix'
p8747
sS'4833'
p8748
S'suitable'
p8749
sS'4524'
p8750
S'lie'
p8751
sS'4835'
p8752
S'gritty'
p8753
sS'4834'
p8754
S'cds'
p8755
sS'4837'
p8756
S'reproducing'
p8757
sS'4836'
p8758
S'inspect'
p8759
sS'4784'
p8760
S'rods'
p8761
sS'2268'
p8762
S'popular'
p8763
sS'2269'
p8764
S'edges'
p8765
sS'2262'
p8766
S'spins'
p8767
sS'2263'
p8768
S'freely'
p8769
sS'2260'
p8770
S'attempting'
p8771
sS'2261'
p8772
S'powder'
p8773
sS'2266'
p8774
S'technology'
p8775
sS'2267'
p8776
S'advanced'
p8777
sS'2264'
p8778
S'elixir'
p8779
sS'2265'
p8780
S'addario'
p8781
sS'2046'
p8782
S'higher-end'
p8783
sS'2047'
p8784
S'ahead'
p8785
sS'2044'
p8786
S"'65"
p8787
sS'2045'
p8788
S'jj'
p8789
sS'2042'
p8790
S'filters'
p8791
sS'2043'
p8792
S'majority'
p8793
sS'2040'
p8794
S'powerful'
p8795
sS'2041'
p8796
S'exceptionally'
p8797
sS'4819'
p8798
S'trash'
p8799
sS'4818'
p8800
S'lid'
p8801
sS'2048'
p8802
S'permanently'
p8803
sS'2049'
p8804
S'dead'
p8805
sS'1365'
p8806
S'nicely'
p8807
sS'4389'
p8808
S'shells'
p8809
sS'4388'
p8810
S'remo'
p8811
sS'4383'
p8812
S'lanikai'
p8813
sS'4382'
p8814
S'unbeatable'
p8815
sS'4381'
p8816
S'shielded'
p8817
sS'4380'
p8818
S'insane'
p8819
sS'4387'
p8820
S'barring'
p8821
sS'4386'
p8822
S'torque'
p8823
sS'4385'
p8824
S'lugs'
p8825
sS'4384'
p8826
S'guessed'
p8827
sS'407'
p8828
S'sized'
p8829
sS'406'
p8830
S'medium'
p8831
sS'405'
p8832
S'stand'
p8833
sS'1372'
p8834
S'running'
p8835
sS'1375'
p8836
S'real'
p8837
sS'1374'
p8838
S'powering'
p8839
sS'1377'
p8840
S'snaps'
p8841
sS'400'
p8842
S'50'
p8843
sS'1379'
p8844
S'senses'
p8845
sS'1378'
p8846
S'adjusted'
p8847
sS'409'
p8848
S'haul'
p8849
sS'408'
p8850
S'rolling'
p8851
sS'4031'
p8852
S'heartbeat'
p8853
sS'4030'
p8854
S'ding'
p8855
sS'4033'
p8856
S'side-by-side'
p8857
sS'4032'
p8858
S'frontman'
p8859
sS'4035'
p8860
S'clunky'
p8861
sS'4034'
p8862
S'strung'
p8863
sS'4037'
p8864
S'chime'
p8865
sS'4036'
p8866
S'killing'
p8867
sS'4039'
p8868
S'700'
p8869
sS'4038'
p8870
S'costing'
p8871
sS'5498'
p8872
S'fray'
p8873
sS'5499'
p8874
S'timbre'
p8875
sS'2459'
p8876
S'unplug'
p8877
sS'2458'
p8878
S'transformer'
p8879
sS'2455'
p8880
S'decades'
p8881
sS'2454'
p8882
S'stringed'
p8883
sS'2457'
p8884
S'slightest'
p8885
sS'2456'
p8886
S'including'
p8887
sS'2451'
p8888
S'disappear'
p8889
sS'2450'
p8890
S'artists'
p8891
sS'2453'
p8892
S'bank'
p8893
sS'2452'
p8894
S'stain'
p8895
sS'656'
p8896
S'combo'
p8897
sS'657'
p8898
S'satisfied'
p8899
sS'654'
p8900
S'100'
p8901
sS'655'
p8902
S'1x12'
p8903
sS'3089'
p8904
S'delays'
p8905
sS'3088'
p8906
S'distortions'
p8907
sS'650'
p8908
S'shot'
p8909
sS'651'
p8910
S'key'
p8911
sS'4982'
p8912
S'alpha'
p8913
sS'1508'
p8914
S'pros'
p8915
sS'1509'
p8916
S'reducer'
p8917
sS'5496'
p8918
S'buckle'
p8919
sS'1601'
p8920
S'happier'
p8921
sS'658'
p8922
S'strictly'
p8923
sS'1600'
p8924
S'screw'
p8925
sS'3082'
p8926
S'periods'
p8927
sS'1603'
p8928
S'timely'
p8929
sS'3226'
p8930
S'brick'
p8931
sS'5497'
p8932
S'panels'
p8933
sS'1605'
p8934
S'hesitate'
p8935
sS'1604'
p8936
S'manner'
p8937
sS'1607'
p8938
S'silly'
p8939
sS'1606'
p8940
S'ridiculous'
p8941
sS'3232'
p8942
S'x2'
p8943
sS'3233'
p8944
S'texas'
p8945
sS'3230'
p8946
S'compliments'
p8947
sS'3231'
p8948
S'soloing'
p8949
sS'1968'
p8950
S'travelling'
p8951
sS'1969'
p8952
S'broke'
p8953
sS'1618'
p8954
S'suffer'
p8955
sS'1619'
p8956
S'manually'
p8957
sS'1616'
p8958
S'sn-8'
p8959
sS'1617'
p8960
S'tool'
p8961
sS'3238'
p8962
S'criteria'
p8963
sS'3239'
p8964
S'cm-2'
p8965
sS'1612'
p8966
S'action'
p8967
sS'1613'
p8968
S'strumming'
p8969
sS'1610'
p8970
S'tastes'
p8971
sS'1611'
p8972
S'thinner'
p8973
sS'2873'
p8974
S'overdub'
p8975
sS'2872'
p8976
S'di'
p8977
sS'2871'
p8978
S'capturing'
p8979
sS'2870'
p8980
S'rehearsals'
p8981
sS'2877'
p8982
S'resolution'
p8983
sS'2876'
p8984
S'format'
p8985
sS'2875'
p8986
S'select'
p8987
sS'2874'
p8988
S'winner'
p8989
sS'2879'
p8990
S'mp3'
p8991
sS'2878'
p8992
S'wav'
p8993
sS'3355'
p8994
S'princeton'
p8995
sS'3354'
p8996
S'condition'
p8997
sS'3357'
p8998
S'harmonica'
p8999
sS'3356'
p9000
S'pcs'
p9001
sS'3351'
p9002
S'gretsch'
p9003
sS'3350'
p9004
S'exps'
p9005
sS'3353'
p9006
S'selling'
p9007
sS'3352'
p9008
S'instances'
p9009
sS'3359'
p9010
S'champion'
p9011
sS'3358'
p9012
S'seal'
p9013
sS'5449'
p9014
S'momentary'
p9015
sS'5448'
p9016
S'doc'
p9017
sS'5443'
p9018
S'lexicon'
p9019
sS'5442'
p9020
S'poles'
p9021
sS'5441'
p9022
S'scratched'
p9023
sS'5440'
p9024
S'spreading'
p9025
sS'5447'
p9026
S'nope'
p9027
sS'5446'
p9028
S'yer'
p9029
sS'5445'
p9030
S'splitting'
p9031
sS'5444'
p9032
S'supporting'
p9033
sS'5493'
p9034
S'describes'
p9035
sS'5508'
p9036
S'motu'
p9037
sS'5509'
p9038
S'designs'
p9039
sS'5506'
p9040
S'flashback'
p9041
sS'5507'
p9042
S'niece'
p9043
sS'5504'
p9044
S'buildup'
p9045
sS'5505'
p9046
S'swells'
p9047
sS'5502'
p9048
S'gains'
p9049
sS'5503'
p9050
S'interviews'
p9051
sS'5500'
p9052
S'*the'
p9053
sS'5501'
p9054
S'buffered'
p9055
sS'542'
p9056
S'connected'
p9057
sS'543'
p9058
S'fan'
p9059
sS'540'
p9060
S'budget'
p9061
sS'541'
p9062
S'anytime'
p9063
sS'546'
p9064
S'version'
p9065
sS'547'
p9066
S'experience'
p9067
sS'544'
p9068
S'iii'
p9069
sS'545'
p9070
S'ultex'
p9071
sS'548'
p9072
S'tortex'
p9073
sS'549'
p9074
S'memory'
p9075
sS'5476'
p9076
S'cad'
p9077
sS'5477'
p9078
S'ej16'
p9079
sS'5474'
p9080
S'neutral'
p9081
sS'5475'
p9082
S'soundstage'
p9083
sS'5472'
p9084
S'crud'
p9085
sS'5136'
p9086
S'tweakable'
p9087
sS'5473'
p9088
S'insanely'
p9089
sS'3827'
p9090
S'cherub'
p9091
sS'3826'
p9092
S'outdoor'
p9093
sS'3825'
p9094
S'mando'
p9095
sS'3824'
p9096
S'committed'
p9097
sS'3823'
p9098
S'hollow'
p9099
sS'3822'
p9100
S'universal'
p9101
sS'3821'
p9102
S'scales'
p9103
sS'3820'
p9104
S'wore'
p9105
sS'5471'
p9106
S'random'
p9107
sS'5001'
p9108
S'hz'
p9109
sS'3829'
p9110
S'complicated'
p9111
sS'3828'
p9112
S'piezo'
p9113
sS'5000'
p9114
S'oacute'
p9115
sS'5007'
p9116
S'physically'
p9117
sS'5006'
p9118
S'reached'
p9119
sS'5005'
p9120
S'forks'
p9121
sS'5004'
p9122
S'cello'
p9123
sS'368'
p9124
S'wires'
p9125
sS'369'
p9126
S'plugged'
p9127
sS'366'
p9128
S'wont'
p9129
sS'367'
p9130
S'headphone'
p9131
sS'364'
p9132
S'bent'
p9133
sS'365'
p9134
S'eventually'
p9135
sS'362'
p9136
S'straight'
p9137
sS'363'
p9138
S'bend'
p9139
sS'360'
p9140
S'jack'
p9141
sS'361'
p9142
S'sit'
p9143
sS'5008'
p9144
S'goofy'
p9145
sS'1945'
p9146
S'hercules'
p9147
sS'5133'
p9148
S'picker'
p9149
sS'3217'
p9150
S'prone'
p9151
sS'2200'
p9152
S'lose'
p9153
sS'2201'
p9154
S'oversized'
p9155
sS'2202'
p9156
S'teeth'
p9157
sS'2203'
p9158
S'professionally'
p9159
sS'2204'
p9160
S'stepped'
p9161
sS'2205'
p9162
S'treated'
p9163
sS'2206'
p9164
S'contrast'
p9165
sS'2207'
p9166
S'fallen'
p9167
sS'2208'
p9168
S'stiffer'
p9169
sS'2209'
p9170
S'mixer'
p9171
sS'4428'
p9172
S'chart'
p9173
sS'4429'
p9174
S'consistency'
p9175
sS'4839'
p9176
S'headset'
p9177
sS'4838'
p9178
S'nod'
p9179
sS'4529'
p9180
S'manageable'
p9181
sS'4528'
p9182
S've'
p9183
sS'4527'
p9184
S'8216'
p9185
sS'4830'
p9186
S'friday'
p9187
sS'4525'
p9188
S'don'
p9189
sS'4832'
p9190
S'fiber'
p9191
sS'4523'
p9192
S'8217'
p9193
sS'4522'
p9194
S'8211'
p9195
sS'4521'
p9196
S'confirm'
p9197
sS'4520'
p9198
S'confusion'
p9199
sS'4420'
p9200
S'cramped'
p9201
sS'4421'
p9202
S'uninstalled'
p9203
sS'5298'
p9204
S'sn5'
p9205
sS'5299'
p9206
S'cr'
p9207
sS'5296'
p9208
S'locate'
p9209
sS'5297'
p9210
S'indestructible'
p9211
sS'5294'
p9212
S'exceeds'
p9213
sS'5295'
p9214
S'reported'
p9215
sS'5292'
p9216
S'plated'
p9217
sS'5293'
p9218
S'thankfully'
p9219
sS'5290'
p9220
S'toms'
p9221
sS'5291'
p9222
S'cast'
p9223
sS'5510'
p9224
S'stylish'
p9225
sS'5697'
p9226
S'high-gain'
p9227
sS'5516'
p9228
S'a/c'
p9229
sS'2998'
p9230
S'tapered'
p9231
sS'2999'
p9232
S'appropriately'
p9233
sS'59'
p9234
S'screws'
p9235
sS'58'
p9236
S'carrying'
p9237
sS'55'
p9238
S'drop'
p9239
sS'54'
p9240
S'cables'
p9241
sS'57'
p9242
S'duty'
p9243
sS'56'
p9244
S'basic'
p9245
sS'51'
p9246
S'snugly'
p9247
sS'50'
p9248
S'fits'
p9249
sS'53'
p9250
S'front'
p9251
sS'52'
p9252
S'pocket'
p9253
sS'2990'
p9254
S'follow'
p9255
sS'2991'
p9256
S'grovers'
p9257
sS'2992'
p9258
S'suggestions'
p9259
sS'2993'
p9260
S'file'
p9261
sS'2994'
p9262
S'reamer'
p9263
sS'2995'
p9264
S'threading'
p9265
sS'2996'
p9266
S'cleanly'
p9267
sS'2997'
p9268
S'enlarge'
p9269
sS'429'
p9270
S'rugged'
p9271
sS'428'
p9272
S'monitor'
p9273
sS'1399'
p9274
S'throwing'
p9275
sS'1398'
p9276
S'materials'
p9277
sS'421'
p9278
S'pick-up'
p9279
sS'420'
p9280
S'passive'
p9281
sS'423'
p9282
S'booster'
p9283
sS'422'
p9284
S'external'
p9285
sS'425'
p9286
S'living'
p9287
sS'424'
p9288
S'space'
p9289
sS'427'
p9290
S'personal'
p9291
sS'426'
p9292
S'larger'
p9293
sS'854'
p9294
S'military'
p9295
sS'855'
p9296
S'fifty'
p9297
sS'856'
p9298
S'percent'
p9299
sS'857'
p9300
S'chance'
p9301
sS'850'
p9302
S'backpack'
p9303
sS'851'
p9304
S'minutes'
p9305
sS'852'
p9306
S'clamped'
p9307
sS'853'
p9308
S'planning'
p9309
sS'1422'
p9310
S'disadvantage'
p9311
sS'1425'
p9312
S'attached'
p9313
sS'2330'
p9314
S'monitoring'
p9315
sS'1424'
p9316
S'firmly'
p9317
sS'2331'
p9318
S'practical'
p9319
sS'2332'
p9320
S'hotter'
p9321
sS'2333'
p9322
S'effectively'
p9323
sS'2334'
p9324
S'utilized'
p9325
sS'2335'
p9326
S'appealing'
p9327
sS'2336'
p9328
S'thumbs'
p9329
sS'4713'
p9330
S'labeled'
p9331
sS'2439'
p9332
S'brother'
p9333
sS'2438'
p9334
S'realize'
p9335
sS'2433'
p9336
S'techniques'
p9337
sS'2432'
p9338
S'owner'
p9339
sS'2431'
p9340
S'repair'
p9341
sS'2430'
p9342
S'site'
p9343
sS'2437'
p9344
S'stops'
p9345
sS'2436'
p9346
S'train'
p9347
sS'2435'
p9348
S'study'
p9349
sS'2434'
p9350
S'involved'
p9351
sS'5470'
p9352
S'pound'
p9353
sS'3782'
p9354
S'ca-40'
p9355
sS'1806'
p9356
S'impulse'
p9357
sS'1805'
p9358
S'grabbed'
p9359
sS'3781'
p9360
S'sat800'
p9361
sS'1803'
p9362
S'strip'
p9363
sS'3787'
p9364
S'250'
p9365
sS'3784'
p9366
S'auto'
p9367
sS'1800'
p9368
S'reed'
p9369
sS'3788'
p9370
S'combined'
p9371
sS'3789'
p9372
S'fishman'
p9373
sS'1809'
p9374
S'effective'
p9375
sS'1808'
p9376
S'reliable'
p9377
sS'4996'
p9378
S'sudden'
p9379
sS'4997'
p9380
S'collapse'
p9381
sS'4994'
p9382
S'jacket'
p9383
sS'4995'
p9384
S'semi-tones'
p9385
sS'4992'
p9386
S'die'
p9387
sS'4993'
p9388
S'shorts'
p9389
sS'4990'
p9390
S'slapback'
p9391
sS'4991'
p9392
S'failure'
p9393
sS'4998'
p9394
S'haha'
p9395
sS'4999'
p9396
S'guitarr'
p9397
sS'1547'
p9398
S'occurs'
p9399
sS'3258'
p9400
S'drag'
p9401
sS'3259'
p9402
S'bothering'
p9403
sS'1948'
p9404
S'weighs'
p9405
sS'1949'
p9406
S'pounds'
p9407
sS'1942'
p9408
S'leery'
p9409
sS'1943'
p9410
S'leaving'
p9411
sS'1940'
p9412
S'performance'
p9413
sS'1941'
p9414
S'bargain'
p9415
sS'1946'
p9416
S'tank'
p9417
sS'1947'
p9418
S'support'
p9419
sS'1944'
p9420
S'met'
p9421
sS'3257'
p9422
S'forced'
p9423
sS'2859'
p9424
S'argue'
p9425
sS'2858'
p9426
S'simplest'
p9427
sS'2851'
p9428
S'elliptical'
p9429
sS'2850'
p9430
S'equipped'
p9431
sS'2853'
p9432
S'widest'
p9433
sS'2852'
p9434
S'brilliant'
p9435
sS'2855'
p9436
S'inadvertently'
p9437
sS'2854'
p9438
S'horizontally'
p9439
sS'2857'
p9440
S'onstage'
p9441
sS'2856'
p9442
S'reaching'
p9443
sS'5461'
p9444
S'lyrics'
p9445
sS'5460'
p9446
S'lists'
p9447
sS'1492'
p9448
S'harder'
p9449
sS'1493'
p9450
S'shipment'
p9451
sS'1494'
p9452
S'months'
p9453
sS'1495'
p9454
S'learning'
p9455
sS'1496'
p9456
S'yamaha'
p9457
sS'1396'
p9458
S'emulation'
p9459
sS'1498'
p9460
S'sets'
p9461
sS'1499'
p9462
S'expecting'
p9463
sS'3339'
p9464
S'carbon'
p9465
sS'3338'
p9466
S'curiosity'
p9467
sS'1395'
p9468
S'bronco'
p9469
sS'1394'
p9470
S'sample'
p9471
sS'1393'
p9472
S'sad'
p9473
sS'1392'
p9474
S'stuck'
p9475
sS'1391'
p9476
S'warranty'
p9477
sS'1390'
p9478
S'shoot'
p9479
sS'524'
p9480
S'ports'
p9481
sS'525'
p9482
S'unique'
p9483
sS'526'
p9484
S'shape'
p9485
sS'527'
p9486
S'smoother'
p9487
sS'520'
p9488
S'partner'
p9489
sS'521'
p9490
S'micro'
p9491
sS'522'
p9492
S'understand'
p9493
sS'523'
p9494
S'mono'
p9495
sS'528'
p9496
S'receive'
p9497
sS'529'
p9498
S'rating'
p9499
sS'1234'
p9500
S'boosts'
p9501
sS'1235'
p9502
S'drive'
p9503
sS'1236'
p9504
S'subtle'
p9505
sS'1237'
p9506
S'mild'
p9507
sS'1230'
p9508
S'benefit'
p9509
sS'1231'
p9510
S'lows'
p9511
sS'1232'
p9512
S'notched'
p9513
sS'1233'
p9514
S'cuts'
p9515
sS'1238'
p9516
S'territory'
p9517
sS'1239'
p9518
S'fulltone'
p9519
sS'1964'
p9520
S'stretch'
p9521
sS'2488'
p9522
S'nickel'
p9523
sS'2489'
p9524
S'darker'
p9525
sS'4677'
p9526
S'corrode'
p9527
sS'4900'
p9528
S'snuggly'
p9529
sS'4675'
p9530
S'peak'
p9531
sS'2485'
p9532
S'everyday'
p9533
sS'3809'
p9534
S'ultimate'
p9535
sS'3808'
p9536
S'impressions'
p9537
sS'3805'
p9538
S'metallica'
p9539
sS'3804'
p9540
S'cross'
p9541
sS'3807'
p9542
S'net'
p9543
sS'3806'
p9544
S'scooped'
p9545
sS'3801'
p9546
S'clones'
p9547
sS'3800'
p9548
S'simplicity'
p9549
sS'3803'
p9550
S'kill'
p9551
sS'3802'
p9552
S'plexi'
p9553
sS'4907'
p9554
S'nights'
p9555
sS'2481'
p9556
S'separately'
p9557
sS'1967'
p9558
S'lesser'
p9559
sS'4174'
p9560
S'flavor'
p9561
sS'4175'
p9562
S'evidence'
p9563
sS'4176'
p9564
S'labor'
p9565
sS'4177'
p9566
S'measuring'
p9567
sS'4170'
p9568
S'polyweb'
p9569
sS'4171'
p9570
S'instance'
p9571
sS'4172'
p9572
S'tuna'
p9573
sS'4173'
p9574
S'melt'
p9575
sS'1961'
p9576
S'dislike'
p9577
sS'4178'
p9578
S'2x'
p9579
sS'4179'
p9580
S'radius'
p9581
sS'1962'
p9582
S'hinge'
p9583
sS'2228'
p9584
S'whistles'
p9585
sS'2229'
p9586
S'looping'
p9587
sS'2226'
p9588
S'likes'
p9589
sS'2227'
p9590
S'bells'
p9591
sS'2224'
p9592
S'v67g'
p9593
sS'2225'
p9594
S'avid'
p9595
sS'2222'
p9596
S'playability'
p9597
sS'2223'
p9598
S'mxl'
p9599
sS'2220'
p9600
S'assume'
p9601
sS'2221'
p9602
S'nanoweb'
p9603
sg7418
S'son'
p9604
sS'4505'
p9605
S'rotation'
p9606
sS'4504'
p9607
S'well-designed'
p9608
sS'4507'
p9609
S'decrease'
p9610
sS'4506'
p9611
S'coiled'
p9612
sS'4501'
p9613
S'separation'
p9614
sS'4500'
p9615
S'applies'
p9616
sS'4503'
p9617
S'craftsmanship'
p9618
sS'4502'
p9619
S'counter'
p9620
sS'4509'
p9621
S'm-audio'
p9622
sS'4508'
p9623
S'encourage'
p9624
sS'2088'
p9625
S'bugera'
p9626
sS'2089'
p9627
S'v5'
p9628
sS'2082'
p9629
S'sessions'
p9630
sS'2083'
p9631
S'clone'
p9632
sS'2080'
p9633
S'clearance'
p9634
sS'2081'
p9635
S'lug'
p9636
sS'2086'
p9637
S'jf-02'
p9638
sS'2087'
p9639
S'vibro'
p9640
sS'2084'
p9641
S'burn'
p9642
sS'2085'
p9643
S'screamer'
p9644
sS'1009'
p9645
S'drywall'
p9646
sS'1008'
p9647
S'trusting'
p9648
sS'1007'
p9649
S'capacity'
p9650
sS'1006'
p9651
S'doubts'
p9652
sS'1005'
p9653
S'jazzmaster'
p9654
sS'1004'
p9655
S'travel'
p9656
sS'1003'
p9657
S'starter'
p9658
sS'1002'
p9659
S'playable'
p9660
sS'1001'
p9661
S'expect'
p9662
sS'1000'
p9663
S'cleaned'
p9664
sS'4349'
p9665
S'caps'
p9666
sS'4348'
p9667
S'kid'
p9668
sS'4347'
p9669
S'game'
p9670
sS'4346'
p9671
S'obligatory'
p9672
sS'4345'
p9673
S'rave'
p9674
sS'4344'
p9675
S'bummer'
p9676
sS'4343'
p9677
S'it-'
p9678
sS'4342'
p9679
S'isolate'
p9680
sS'4341'
p9681
S'thrilled'
p9682
sS'4340'
p9683
S'g7'
p9684
sS'5719'
p9685
S'on-board'
p9686
sS'5718'
p9687
S'undo'
p9688
sS'5717'
p9689
S'lube'
p9690
sS'5716'
p9691
S'bc'
p9692
sS'5715'
p9693
S'irish'
p9694
sS'5714'
p9695
S'valvetronix'
p9696
sS'5713'
p9697
S'pg58'
p9698
sS'5712'
p9699
S'ruby'
p9700
sS'5711'
p9701
S'sovtek'
p9702
sS'5710'
p9703
S'sibilance'
p9704
sS'3575'
p9705
S'lay'
p9706
sS'5091'
p9707
S'squeaks'
p9708
sS'3577'
p9709
S'additional'
p9710
sS'3576'
p9711
S'suit'
p9712
sS'3571'
p9713
S'industrial'
p9714
sS'3570'
p9715
S'wondering'
p9716
sS'3573'
p9717
S'french'
p9718
sS'3572'
p9719
S'amplify'
p9720
sS'2666'
p9721
S'forum'
p9722
sS'2667'
p9723
S'story'
p9724
sS'2664'
p9725
S'lousy'
p9726
sS'2665'
p9727
S'm3'
p9728
sS'2662'
p9729
S'scream'
p9730
sS'2663'
p9731
S'returned'
p9732
sS'2660'
p9733
S'completed'
p9734
sS'2661'
p9735
S'task'
p9736
sS'1829'
p9737
S'cleans'
p9738
sS'1828'
p9739
S'vary'
p9740
sS'1825'
p9741
S'leap'
p9742
sS'1824'
p9743
S'frequently'
p9744
sS'1827'
p9745
S'fuss'
p9746
sS'1826'
p9747
S'monitors'
p9748
sS'1821'
p9749
S'process'
p9750
sS'1820'
p9751
S'responsive'
p9752
sS'1823'
p9753
S'engage'
p9754
sS'1822'
p9755
S'occasionally'
p9756
sS'2147'
p9757
S'required'
p9758
sS'2146'
p9759
S'humidifier'
p9760
sS'2413'
p9761
S'walls'
p9762
sS'2412'
p9763
S'blanket'
p9764
sS'4978'
p9765
S'fire'
p9766
sS'4979'
p9767
S'halen'
p9768
sS'2417'
p9769
S'traditional'
p9770
sS'2140'
p9771
S'toys'
p9772
sS'4974'
p9773
S'dealt'
p9774
sS'2418'
p9775
S'audio-technica'
p9776
sS'4976'
p9777
S'casio'
p9778
sS'4977'
p9779
S'articulate'
p9780
sS'4970'
p9781
S'sm'
p9782
sS'4971'
p9783
S'mackie'
p9784
sS'4972'
p9785
S'stupid'
p9786
sS'4973'
p9787
S'died'
p9788
sS'1920'
p9789
S'hi-hat'
p9790
sS'1921'
p9791
S'tom'
p9792
sS'3274'
p9793
S'honest'
p9794
sS'3275'
p9795
S'spec'
p9796
sS'3272'
p9797
S'influence'
p9798
sS'1925'
p9799
S'functionality'
p9800
sS'3270'
p9801
S'scratch'
p9802
sS'3271'
p9803
S'bone'
p9804
sS'1928'
p9805
S'characteristic'
p9806
sS'1929'
p9807
S'earlier'
p9808
sS'3278'
p9809
S'folks'
p9810
sS'3279'
p9811
S'compensation'
p9812
sS'5586'
p9813
S'gray'
p9814
sS'2935'
p9815
S'emailed'
p9816
sS'5587'
p9817
S'makala'
p9818
sS'5584'
p9819
S'randomly'
p9820
sS'3319'
p9821
S'favor'
p9822
sS'3318'
p9823
S'housing'
p9824
sS'5585'
p9825
S'liquid'
p9826
sS'5489'
p9827
S'conclude'
p9828
sS'5488'
p9829
S'crew'
p9830
sS'3311'
p9831
S'humbucker'
p9832
sS'3310'
p9833
S'drastic'
p9834
sS'3313'
p9835
S'saver'
p9836
sS'3312'
p9837
S'p90'
p9838
sS'3315'
p9839
S'fab'
p9840
sS'3314'
p9841
S'ill'
p9842
sS'3317'
p9843
S'flanger'
p9844
sS'3316'
p9845
S'values'
p9846
sS'5580'
p9847
S'reads'
p9848
sS'5581'
p9849
S'talent'
p9850
sS'60'
p9851
S'shiny'
p9852
sS'61'
p9853
S'chrome'
p9854
sS'62'
p9855
S'perfectly'
p9856
sS'63'
p9857
S'pearl'
p9858
sS'64'
p9859
S'pickguard'
p9860
sS'65'
p9861
S'black'
p9862
sS'66'
p9863
S'fender'
p9864
sS'67'
p9865
S'strat'
p9866
sS'68'
p9867
S'body'
p9868
sS'69'
p9869
S'quality'
p9870
sS'508'
p9871
S'idea'
p9872
sS'509'
p9873
S'usb'
p9874
sS'506'
p9875
S'soldering'
p9876
sS'507'
p9877
S'gun'
p9878
sS'504'
p9879
S'imagine'
p9880
sS'505'
p9881
S'crack'
p9882
sS'502'
p9883
S'half'
p9884
sS'503'
p9885
S'video'
p9886
sS'500'
p9887
S'wiggle'
p9888
sS'501'
p9889
S'twist'
p9890
sS'1212'
p9891
S'vox'
p9892
sS'1213'
p9893
S'ehx'
p9894
sS'1210'
p9895
S'logo'
p9896
sS'633'
p9897
S'issue'
p9898
sS'1216'
p9899
S'bassman'
p9900
sS'1217'
p9901
S'mojomojo'
p9902
sS'636'
p9903
S'neck'
p9904
sS'637'
p9905
S'holder'
p9906
sS'638'
p9907
S'protects'
p9908
sS'639'
p9909
S'wood'
p9910
sS'1218'
p9911
S'versatile'
p9912
sS'1219'
p9913
S'punchy'
p9914
sS'3869'
p9915
S'impressive'
p9916
sS'3868'
p9917
S'audition'
p9918
sS'3863'
p9919
S'latches'
p9920
sS'3862'
p9921
S'register'
p9922
sS'3861'
p9923
S'cradle'
p9924
sS'3860'
p9925
S'archtop'
p9926
sS'3867'
p9927
S'intermediate'
p9928
sS'3866'
p9929
S'project'
p9930
sS'3865'
p9931
S'brassy'
p9932
sS'3864'
p9933
S'quickest'
p9934
sS'4152'
p9935
S'vocalist'
p9936
sS'4153'
p9937
S'practices'
p9938
sS'4150'
p9939
S'cakewalk'
p9940
sS'4151'
p9941
S'creator'
p9942
sS'4156'
p9943
S'rules'
p9944
sS'4157'
p9945
S'72'
p9946
sS'4154'
p9947
S'990'
p9948
sS'4155'
p9949
S'numerous'
p9950
sS'4158'
p9951
S'unfortunate'
p9952
sS'4159'
p9953
S'85'
p9954
sS'3489'
p9955
S'grasp'
p9956
sS'3488'
p9957
S'dave'
p9958
sS'3481'
p9959
S'straplok'
p9960
sS'3480'
p9961
S'economical'
p9962
sS'3483'
p9963
S'bed'
p9964
sS'3482'
p9965
S'sling'
p9966
sS'3485'
p9967
S'drawback'
p9968
sS'3484'
p9969
S'elements'
p9970
sS'3487'
p9971
S'david'
p9972
sS'3486'
p9973
S'sturdier'
p9974
sS'4563'
p9975
S'unpleasant'
p9976
sS'4562'
p9977
S'brackets'
p9978
sS'4561'
p9979
S'lab'
p9980
sS'4560'
p9981
S'voodoo'
p9982
sS'4567'
p9983
S'p-bass'
p9984
sS'4566'
p9985
S'compatibility'
p9986
sS'4565'
p9987
S'attempted'
p9988
sS'4564'
p9989
S'butter'
p9990
sS'4569'
p9991
S'bearings'
p9992
sS'4568'
p9993
S'killer'
p9994
sS'2604'
p9995
S'lt'
p9996
sS'2605'
p9997
S'warmer'
p9998
sS'2606'
p9999
S'ac15'
p10000
sS'2607'
p10001
S'crackling'
p10002
sS'2600'
p10003
S'alot'
p10004
sS'2601'
p10005
S'sources'
p10006
sS'2602'
p10007
S'voltage'
p10008
sS'2603'
p10009
S'upside'
p10010
sS'2608'
p10011
S'wiping'
p10012
sS'2609'
p10013
S'purple'
p10014
sS'5451'
p10015
S'restore'
p10016
sS'5453'
p10017
S'austin'
p10018
sS'732'
p10019
S'enjoy'
p10020
sS'5454'
p10021
S'dissatisfied'
p10022
sS'753'
p10023
S'modified'
p10024
sS'1807'
p10025
S'prove'
p10026
sS'751'
p10027
S'40'
p10028
sS'750'
p10029
S'closing'
p10030
sS'757'
p10031
S'pic'
p10032
sS'756'
p10033
S'receiving'
p10034
sS'755'
p10035
S'ladies'
p10036
sS'754'
p10037
S'figured'
p10038
sS'759'
p10039
S'paint'
p10040
sS'758'
p10041
S'pics'
p10042
sS'3780'
p10043
S'cents'
p10044
sS'1804'
p10045
S'chunky'
p10046
sS'2958'
p10047
S'contained'
p10048
sS'2959'
p10049
S'controller'
p10050
sS'738'
p10051
S'buck'
p10052
sS'2954'
p10053
S'silky'
p10054
sS'5455'
p10055
S'riff'
p10056
sS'2956'
p10057
S'diy'
p10058
sS'2957'
p10059
S'pointless'
p10060
sS'2950'
p10061
S'reviewing'
p10062
sS'2951'
p10063
S'ghs'
p10064
sS'2952'
p10065
S'rounds'
p10066
sS'1802'
p10067
S'onespot'
p10068
sS'1025'
p10069
S'pine'
p10070
sS'1024'
p10071
S'3/4'
p10072
sS'1027'
p10073
S'studs'
p10074
sS'5347'
p10075
S'dampit'
p10076
sS'5340'
p10077
S'boosted'
p10078
sS'1801'
p10079
S'smith'
p10080
sS'5342'
p10081
S'laguna'
p10082
sS'1022'
p10083
S'heads'
p10084
sS'3785'
p10085
S'fooled'
p10086
sS'1029'
p10087
S'bonus'
p10088
sS'1028'
p10089
S'needless'
p10090
sS'5456'
p10091
S'ragin'
p10092
sS'4365'
p10093
S'proprietary'
p10094
sS'4364'
p10095
S'appreciated'
p10096
sS'4367'
p10097
S'shorting'
p10098
sS'4366'
p10099
S'ps'
p10100
sS'4361'
p10101
S'dried'
p10102
sS'4360'
p10103
S'covering'
p10104
sS'4363'
p10105
S'securing'
p10106
sS'4362'
p10107
S'cup'
p10108
sS'4369'
p10109
S'sight'
p10110
sS'4368'
p10111
S'generic'
p10112
sS'5457'
p10113
S'802'
p10114
sS'3108'
p10115
S'bout'
p10116
sS'3109'
p10117
S'lap'
p10118
sS'3104'
p10119
S'matte'
p10120
sS'3105'
p10121
S'protector'
p10122
sS'3106'
p10123
S'adhesive'
p10124
sS'3107'
p10125
S'bracing'
p10126
sS'3100'
p10127
S'gibson'
p10128
sS'3101'
p10129
S'alloy'
p10130
sS'3102'
p10131
S'hidden'
p10132
sS'3103'
p10133
S'steel-string'
p10134
sg266
S'job'
p10135
sS'4093'
p10136
S'attitude'
p10137
sS'4092'
p10138
S'legacy'
p10139
sS'4091'
p10140
S'expand'
p10141
sS'4090'
p10142
S'40+'
p10143
sS'4097'
p10144
S'researched'
p10145
sS'4096'
p10146
S'nervous'
p10147
sS'4095'
p10148
S'depend'
p10149
sS'4094'
p10150
S'jumping'
p10151
sS'4099'
p10152
S'dropping'
p10153
sS'4098'
p10154
S'me-70'
p10155
sS'5735'
p10156
S'h4n'
p10157
sS'5734'
p10158
S'cajun'
p10159
sS'5737'
p10160
S'me70'
p10161
sS'5736'
p10162
S'chest'
p10163
sS'5731'
p10164
S'dd-3'
p10165
sS'5730'
p10166
S'broader'
p10167
sS'5733'
p10168
S'behaves'
p10169
sS'5732'
p10170
S'ms'
p10171
sS'5739'
p10172
S'uca222'
p10173
sS'5738'
p10174
S'xenyx'
p10175
sS'2381'
p10176
S'experimenting'
p10177
sS'2380'
p10178
S'fasten'
p10179
sS'2383'
p10180
S'justify'
p10181
sS'2382'
p10182
S'proof'
p10183
sS'2385'
p10184
S'condensers'
p10185
sS'2384'
p10186
S'comparing'
p10187
sS'2387'
p10188
S'huh'
p10189
sS'2386'
p10190
S'uh'
p10191
sS'2389'
p10192
S'opinions'
p10193
sS'2388'
p10194
S'earned'
p10195
sS'1849'
p10196
S'broken'
p10197
sS'1848'
p10198
S'switchcraft'
p10199
sS'1843'
p10200
S'brought'
p10201
sS'1842'
p10202
S'tubes'
p10203
sS'1841'
p10204
S'tail'
p10205
sS'1840'
p10206
S'sufficient'
p10207
sS'1847'
p10208
S'plate'
p10209
sS'1846'
p10210
S'plates'
p10211
sS'1845'
p10212
S'parallel'
p10213
sS'1844'
p10214
S'greatly'
p10215
sS'3250'
p10216
S'spruce'
p10217
sS'4958'
p10218
S'towel'
p10219
sS'4959'
p10220
S'buzzy'
p10221
sS'2169'
p10222
S'reliability'
p10223
sS'2168'
p10224
S'honesty'
p10225
sS'3251'
p10226
S'loosened'
p10227
sS'4952'
p10228
S'focused'
p10229
sS'4953'
p10230
S'tree'
p10231
sS'4950'
p10232
S'sizzle'
p10233
sS'4951'
p10234
S'stolen'
p10235
sS'4956'
p10236
S'circuitry'
p10237
sS'4957'
p10238
S'brainer'
p10239
sS'4954'
p10240
S'cheep'
p10241
sS'2162'
p10242
S'qualities'
p10243
sS'3253'
p10244
S'volumes'
p10245
sS'2129'
p10246
S'rocks'
p10247
sS'3254'
p10248
S'beast'
p10249
sS'3255'
p10250
S'cabs'
p10251
sS'3298'
p10252
S'fretting'
p10253
sS'3299'
p10254
S'missed'
p10255
sS'5139'
p10256
S'resale'
p10257
sS'5138'
p10258
S'shaping'
p10259
sS'5137'
p10260
S'dealers'
p10261
sS'3295'
p10262
S'routed'
p10263
sS'5135'
p10264
S'agile'
p10265
sS'3297'
p10266
S'resist'
p10267
sS'3290'
p10268
S'woods'
p10269
sS'5132'
p10270
S'girls'
p10271
sS'3292'
p10272
S'copy'
p10273
sS'5130'
p10274
S'c1'
p10275
sS'1735'
p10276
S'chinese'
p10277
sS'1278'
p10278
S'red'
p10279
sS'1279'
p10280
S'14'
p10281
sS'618'
p10282
S'60'
p10283
sS'619'
p10284
S'close'
p10285
sS'1270'
p10286
S'polarity'
p10287
sS'1271'
p10288
S'outer'
p10289
sS'1272'
p10290
S'+'
p10291
sS'611'
p10292
S'inputs'
p10293
sS'616'
p10294
S'absolutely'
p10295
sS'617'
p10296
S'spend'
p10297
sS'1276'
p10298
S'plugging'
p10299
sS'1277'
p10300
S'exchange'
p10301
sS'1490'
p10302
S'knocking'
p10303
sS'3332'
p10304
S'gon'
p10305
sS'3331'
p10306
S'compliment'
p10307
sS'3330'
p10308
S'prolong'
p10309
sS'3337'
p10310
S'satisfy'
p10311
sS'3336'
p10312
S'amplitube'
p10313
sS'3335'
p10314
S'saving'
p10315
sS'3334'
p10316
S'ipod'
p10317
sS'5469'
p10318
S'warnings'
p10319
sS'5468'
p10320
S'wiped'
p10321
sS'3595'
p10322
S'wimpy'
p10323
sS'5039'
p10324
S'distinctive'
p10325
sS'3599'
p10326
S'occasion'
p10327
sS'3598'
p10328
S'enhances'
p10329
sS'4138'
p10330
S'handful'
p10331
sS'4139'
p10332
S'james'
p10333
sS'4130'
p10334
S'chains'
p10335
sS'4131'
p10336
S'programs'
p10337
sS'4132'
p10338
S'earth'
p10339
sS'4133'
p10340
S'discontinued'
p10341
sS'4134'
p10342
S'shortcomings'
p10343
sS'4135'
p10344
S'outboard'
p10345
sS'4136'
p10346
S'hd500'
p10347
sS'4137'
p10348
S'form'
p10349
sS'3841'
p10350
S'rely'
p10351
sS'3840'
p10352
S'relative'
p10353
sS'3843'
p10354
S'eliminates'
p10355
sS'3842'
p10356
S'squeezing'
p10357
sS'3845'
p10358
S'satisfaction'
p10359
sS'3844'
p10360
S'shred'
p10361
sS'3847'
p10362
S'jumped'
p10363
sS'3846'
p10364
S'resonance'
p10365
sS'3849'
p10366
S'climate'
p10367
sS'3848'
p10368
S'proven'
p10369
sS'5698'
p10370
S'edition'
p10371
sS'5699'
p10372
S'sincerely'
p10373
sS'4549'
p10374
S'power-grip'
p10375
sS'4548'
p10376
S'stumbled'
p10377
sS'4541'
p10378
S'independent'
p10379
sS'4540'
p10380
S'programming'
p10381
sS'4543'
p10382
S'amplug'
p10383
sS'4542'
p10384
S'independently'
p10385
sS'4545'
p10386
S'pedaltrain'
p10387
sS'4544'
p10388
S'shielding'
p10389
sS'4547'
p10390
S'afternoon'
p10391
sS'4546'
p10392
S'email'
p10393
sS'1073'
p10394
S'solves'
p10395
sS'2594'
p10396
S'mustang'
p10397
sS'2595'
p10398
S'~'
p10399
sS'2596'
p10400
S'busy'
p10401
sS'2597'
p10402
S'pinstripe'
p10403
sS'2590'
p10404
S'license'
p10405
sS'2591'
p10406
S'pre'
p10407
sS'2592'
p10408
S'cleaner'
p10409
sS'2593'
p10410
S'preset'
p10411
sS'2598'
p10412
S'drumset'
p10413
sS'2599'
p10414
S'loses'
p10415
sS'1070'
p10416
S'cumbersome'
p10417
sS'1343'
p10418
S'tu-2'
p10419
sS'2622'
p10420
S'treble'
p10421
sS'2623'
p10422
S'messing'
p10423
sS'2620'
p10424
S'modeler'
p10425
sS'2621'
p10426
S'cabinets'
p10427
sS'2626'
p10428
S'flatwound'
p10429
sS'2627'
p10430
S'ten'
p10431
sS'2624'
p10432
S'es-57'
p10433
sS'2625'
p10434
S'stainless'
p10435
sS'2628'
p10436
S'moves'
p10437
sS'2629'
p10438
S'sensitivity'
p10439
sS'775'
p10440
S'comp'
p10441
sS'774'
p10442
S'father'
p10443
sS'777'
p10444
S'mids'
p10445
sS'776'
p10446
S'flat'
p10447
sS'771'
p10448
S'degrees'
p10449
sS'770'
p10450
S'modes'
p10451
sS'773'
p10452
S'push'
p10453
sS'772'
p10454
S'od'
p10455
sS'779'
p10456
S'teles'
p10457
sS'778'
p10458
S'increase'
p10459
sS'77'
p10460
S'regular'
p10461
sS'76'
p10462
S'decided'
p10463
sS'75'
p10464
S'elixirs'
p10465
sS'74'
p10466
S'friend'
p10467
sS'73'
p10468
S'musician'
p10469
sS'72'
p10470
S'pack'
p10471
sS'71'
p10472
S'10'
p10473
sS'70'
p10474
S'12'
p10475
sS'2972'
p10476
S'adding'
p10477
sS'2973'
p10478
S'eminence'
p10479
sS'2970'
p10480
S'line6'
p10481
sS'2971'
p10482
S'executed'
p10483
sS'2976'
p10484
S'compensate'
p10485
sS'2977'
p10486
S'hooking'
p10487
sS'79'
p10488
S'packs'
p10489
sS'78'
p10490
S'2-3'
p10491
sS'1043'
p10492
S'tripping'
p10493
sS'5363'
p10494
S'largest'
p10495
sS'1041'
p10496
S'prefer'
p10497
sS'1040'
p10498
S'complaints'
p10499
sS'1047'
p10500
S'move'
p10501
sS'1046'
p10502
S'feet'
p10503
sS'1045'
p10504
S'catch'
p10505
sS'1044'
p10506
S'design'
p10507
sS'1049'
p10508
S'description'
p10509
sS'1048'
p10510
S'sounded'
p10511
sS'4303'
p10512
S'pays'
p10513
sS'4302'
p10514
S'signature'
p10515
sS'4301'
p10516
S'sweeps'
p10517
sS'4300'
p10518
S'surf'
p10519
sS'4307'
p10520
S'tricks'
p10521
sS'4306'
p10522
S'damaging'
p10523
sS'4305'
p10524
S'pen'
p10525
sS'4304'
p10526
S'cluttering'
p10527
sS'4309'
p10528
S'bulk'
p10529
sS'4308'
p10530
S'unobtrusive'
p10531
sS'3128'
p10532
S'motion'
p10533
sS'3129'
p10534
S'trunk'
p10535
sS'3122'
p10536
S'plywood'
p10537
sS'3123'
p10538
S'phosphor'
p10539
sS'3120'
p10540
S'80/20'
p10541
sS'3121'
p10542
S'emphasize'
p10543
sS'3126'
p10544
S'deeper'
p10545
sS'3127'
p10546
S'photo'
p10547
sS'3124'
p10548
S'bronze'
p10549
sS'3125'
p10550
S'mandolins'
p10551
sS'5753'
p10552
S'thermoplastic'
p10553
sS'5752'
p10554
S'forking'
p10555
sS'5751'
p10556
S'at108'
p10557
sS'5750'
p10558
S'hip'
p10559
sS'5757'
p10560
S'career'
p10561
sS'5756'
p10562
S'malfunction'
p10563
sS'5755'
p10564
S'fl'
p10565
sS'5754'
p10566
S'kysers'
p10567
sS'5759'
p10568
S'sm5'
p10569
sS'5199'
p10570
S'-the'
p10571
sS'3445'
p10572
S'if/when'
p10573
sS'4609'
p10574
S'clayton'
p10575
sS'3444'
p10576
S'packing'
p10577
sS'3447'
p10578
S'non-coated'
p10579
sS'862'
p10580
S'ready'
p10581
sS'865'
p10582
S'cost'
p10583
sS'864'
p10584
S'left'
p10585
sS'3443'
p10586
S'workable'
p10587
sS'3442'
p10588
S'ableton'
p10589
sS'2756'
p10590
S'cute'
p10591
sS'2757'
p10592
S'imagined'
p10593
sS'2754'
p10594
S'lite'
p10595
sS'2755'
p10596
S'jumbo'
p10597
sS'2752'
p10598
S'draws'
p10599
sS'2753'
p10600
S'maintain'
p10601
sS'2323'
p10602
S'shortly'
p10603
sS'2750'
p10604
S'incorrectly'
p10605
sS'2322'
p10606
S'happening'
p10607
sS'2023'
p10608
S'corona'
p10609
sS'4604'
p10610
S'presonus'
p10611
sS'2321'
p10612
S'indicators'
p10613
sS'2320'
p10614
S'purely'
p10615
sS'2327'
p10616
S'interfaces'
p10617
sS'2326'
p10618
S'scarlett'
p10619
sS'4701'
p10620
S'blind'
p10621
sS'2324'
p10622
S'pitched'
p10623
sS'5197'
p10624
S'toolbox'
p10625
sS'4708'
p10626
S'container'
p10627
sS'5196'
p10628
S'tube-like'
p10629
sS'2369'
p10630
S'remove'
p10631
sS'2368'
p10632
S'opposite'
p10633
sS'2367'
p10634
S'18'
p10635
sS'2366'
p10636
S'inconvenient'
p10637
sS'2365'
p10638
S'goosenecks'
p10639
sS'2364'
p10640
S'address'
p10641
sS'2363'
p10642
S'49'
p10643
sS'2362'
p10644
S'15'
p10645
sS'2361'
p10646
S'adapt'
p10647
sS'2360'
p10648
S'supplies'
p10649
sS'5191'
p10650
S'voila'
p10651
sS'1861'
p10652
S'takamine'
p10653
sS'1860'
p10654
S'sale'
p10655
sS'1863'
p10656
S'considerably'
p10657
sS'1862'
p10658
S'12-string'
p10659
sS'1865'
p10660
S'road'
p10661
sS'3729'
p10662
S'genuine'
p10663
sS'1867'
p10664
S'flight'
p10665
sS'1866'
p10666
S'bags'
p10667
sS'3724'
p10668
S'sake'
p10669
sS'3725'
p10670
S'eric'
p10671
sS'3726'
p10672
S'epoxy'
p10673
sS'3727'
p10674
S'gorilla'
p10675
sS'3720'
p10676
S'google'
p10677
sS'3721'
p10678
S'virtually'
p10679
sS'3722'
p10680
S'whammy'
p10681
sS'3723'
p10682
S'vibrato'
p10683
sS'4686'
p10684
S'overdrive/distortion'
p10685
sS'4687'
p10686
S'accept'
p10687
sS'4684'
p10688
S'bluesy'
p10689
sS'4685'
p10690
S'95'
p10691
sS'4682'
p10692
S'hardwire'
p10693
sS'4683'
p10694
S'target'
p10695
sS'4936'
p10696
S'subtract'
p10697
sS'4937'
p10698
S'compete'
p10699
sS'4938'
p10700
S'bouncing'
p10701
sS'4939'
p10702
S'humidipak'
p10703
sS'4688'
p10704
S'p-90'
p10705
sS'4689'
p10706
S'modtone'
p10707
sS'2109'
p10708
S'sun'
p10709
sS'2108'
p10710
S'app'
p10711
sS'2103'
p10712
S'preference'
p10713
sS'2102'
p10714
S'keeper'
p10715
sS'2101'
p10716
S'gladly'
p10717
sS'2100'
p10718
S'worried'
p10719
sS'2107'
p10720
S'explain'
p10721
sS'2106'
p10722
S'protected'
p10723
sS'2105'
p10724
S'shaft'
p10725
sS'2104'
p10726
S'aluminum'
p10727
sS'5115'
p10728
S'behringers'
p10729
sS'5114'
p10730
S'careless'
p10731
sS'5117'
p10732
S'sings'
p10733
sS'5116'
p10734
S'stand-alone'
p10735
sS'5111'
p10736
S'29'
p10737
sS'5110'
p10738
S'peddle'
p10739
sS'5113'
p10740
S'bendable'
p10741
sS'5112'
p10742
S'laser'
p10743
sS'5119'
p10744
S'simulated'
p10745
sS'5118'
p10746
S'well-built'
p10747
sS'1717'
p10748
S'meh'
p10749
sS'5192'
p10750
S'experiencing'
p10751
sg7288
S'bought'
p10752
sS'890'
p10753
S'grew'
p10754
sS'891'
p10755
S'transition'
p10756
sS'892'
p10757
S'wearing'
p10758
sS'893'
p10759
S'inside'
p10760
sS'894'
p10761
S'nail'
p10762
sS'895'
p10763
S'9-volt'
p10764
sS'896'
p10765
S'danelectro'
p10766
sS'897'
p10767
S'mini'
p10768
sS'898'
p10769
S'recommended'
p10770
sS'899'
p10771
S'advertised'
p10772
sS'1788'
p10773
S'shines'
p10774
sS'1789'
p10775
S'ability'
p10776
sS'1780'
p10777
S'maintenance'
p10778
sS'1781'
p10779
S'loved'
p10780
sS'1782'
p10781
S'bullets'
p10782
sS'1783'
p10783
S'reverb'
p10784
sS'1784'
p10785
S'tc'
p10786
sS'1785'
p10787
S'toneprint'
p10788
sS'1786'
p10789
S'novelty'
p10790
sS'1787'
p10791
S'presets'
p10792
sS'678'
p10793
S'dslr'
p10794
sS'679'
p10795
S'superb'
p10796
sS'674'
p10797
S'received'
p10798
sS'675'
p10799
S'cord'
p10800
sS'676'
p10801
S'expected'
p10802
sS'677'
p10803
S'adapter'
p10804
sS'670'
p10805
S'coded'
p10806
sS'671'
p10807
S'speak'
p10808
sS'672'
p10809
S'experiment'
p10810
sS'673'
p10811
S'stiffness'
p10812
sS'2491'
p10813
S'brighter'
p10814
sS'2490'
p10815
S'steels'
p10816
sS'2493'
p10817
S'teach'
p10818
sS'2492'
p10819
S'artist'
p10820
sS'2495'
p10821
S'worship'
p10822
sS'1965'
p10823
S'leds'
p10824
sS'2494'
p10825
S'mobile'
p10826
sS'2497'
p10827
S'a-style'
p10828
sS'2496'
p10829
S'constant'
p10830
sS'1524'
p10831
S'clamp'
p10832
sS'1525'
p10833
S'attaches'
p10834
sS'1526'
p10835
S'goose'
p10836
sS'1527'
p10837
S'corrected'
p10838
sS'1252'
p10839
S'lost'
p10840
sS'1521'
p10841
S'frequencies'
p10842
sS'1522'
p10843
S'blocks'
p10844
sS'1523'
p10845
S'pops'
p10846
sS'1528'
p10847
S'error'
p10848
sS'1529'
p10849
S'xlr'
p10850
sS'1258'
p10851
S'dc'
p10852
sS'1259'
p10853
S'surprisingly'
p10854
sS'4116'
p10855
S'layers'
p10856
sS'4117'
p10857
S'weather'
p10858
sS'4114'
p10859
S'weekly'
p10860
sS'4115'
p10861
S'mileage'
p10862
sS'4112'
p10863
S'verge'
p10864
sS'4113'
p10865
S'drawer'
p10866
sS'4110'
p10867
S'fight'
p10868
sS'4111'
p10869
S'mechanisms'
p10870
sS'4118'
p10871
S'performances'
p10872
sS'4119'
p10873
S'disappoint'
p10874
sS'3340'
p10875
S'smart'
p10876
sS'3341'
p10877
S'gate'
p10878
sS'1966'
p10879
S'intensity'
p10880
sS'2648'
p10881
S'role'
p10882
sS'2649'
p10883
S'cans'
p10884
sS'2640'
p10885
S'grey'
p10886
sS'2641'
p10887
S'skb'
p10888
sS'2642'
p10889
S'survived'
p10890
sS'2643'
p10891
S'van'
p10892
sS'2644'
p10893
S'safely'
p10894
sS'2645'
p10895
S'pair'
p10896
sS'2646'
p10897
S'tracking'
p10898
sS'2647'
p10899
S'assumed'
p10900
sS'3557'
p10901
S'tunings'
p10902
sS'3556'
p10903
S'event'
p10904
sS'3555'
p10905
S'sonic'
p10906
sS'3554'
p10907
S'inexperienced'
p10908
sS'3553'
p10909
S'confess'
p10910
sS'3552'
p10911
S'hobby'
p10912
sS'3551'
p10913
S'marvelous'
p10914
sS'3550'
p10915
S'capable'
p10916
sS'3559'
p10917
S'richness'
p10918
sS'3558'
p10919
S'sacrifice'
p10920
sS'2910'
p10921
S'removed'
p10922
sS'2911'
p10923
S'carpeted'
p10924
sS'2912'
p10925
S'vertical'
p10926
sS'2913'
p10927
S'yoke'
p10928
sS'2914'
p10929
S'convinced'
p10930
sS'2915'
p10931
S'trade'
p10932
sS'719'
p10933
S'enjoyed'
p10934
sS'2917'
p10935
S'automatically'
p10936
sS'2918'
p10937
S'width'
p10938
sS'2919'
p10939
S'applied'
p10940
sS'715'
p10941
S'expert'
p10942
sS'714'
p10943
S'serve'
p10944
sS'713'
p10945
S'basically'
p10946
sS'712'
p10947
S'suppose'
p10948
sS'711'
p10949
S'return'
p10950
sS'710'
p10951
S'money'
p10952
sS'5308'
p10953
S'pups'
p10954
sS'5309'
p10955
S'public'
p10956
sS'5300'
p10957
S'2032'
p10958
sS'5301'
p10959
S'passable'
p10960
sS'5302'
p10961
S'backside'
p10962
sS'5303'
p10963
S'code'
p10964
sS'5304'
p10965
S'windscreens'
p10966
sS'5305'
p10967
S'micing'
p10968
sS'5306'
p10969
S'dab'
p10970
sS'5307'
p10971
S'1960'
p10972
sS'4329'
p10973
S'resolved'
p10974
sS'4328'
p10975
S'causing'
p10976
sS'4321'
p10977
S'react'
p10978
sS'4320'
p10979
S'limit'
p10980
sS'4323'
p10981
S'beware'
p10982
sS'4322'
p10983
S'growl'
p10984
sS'4325'
p10985
S'contacted'
p10986
sS'4324'
p10987
S'overnight'
p10988
sS'4327'
p10989
S'andy'
p10990
sS'4326'
p10991
S'files'
p10992
sS'3140'
p10993
S'unusual'
p10994
sS'3141'
p10995
S'narrow'
p10996
sS'3142'
p10997
S'viewed'
p10998
sS'3143'
p10999
S'vertically'
p11000
sS'3144'
p11001
S'cherry'
p11002
sS'3145'
p11003
S'binding'
p11004
sS'3146'
p11005
S'cedar'
p11006
sS'3147'
p11007
S'rounder'
p11008
sS'3148'
p11009
S'broad'
p11010
sS'3149'
p11011
S'counts'
p11012
sS'1630'
p11013
S'repeated'
p11014
sS'5779'
p11015
S'api'
p11016
sS'5778'
p11017
S'furry'
p11018
sS'5771'
p11019
S'tarnish'
p11020
sS'5770'
p11021
S'responded'
p11022
sS'5773'
p11023
S'19'
p11024
sS'5772'
p11025
S'ohms'
p11026
sS'5775'
p11027
S'acid'
p11028
sS'1631'
p11029
S'regularly'
p11030
sS'5777'
p11031
S'lightest'
p11032
sS'5776'
p11033
S'at2035'
p11034
sS'1632'
p11035
S'usa'
p11036
sS'1633'
p11037
S'names'
p11038
sS'1634'
p11039
S'fatter'
p11040
sS'1635'
p11041
S'ease'
p11042
sS'3500'
p11043
S'ambience'
p11044
sS'1636'
p11045
S'outdoors'
p11046
sS'3501'
p11047
S'specialized'
p11048
sS'3502'
p11049
S'reluctant'
p11050
sS'3503'
p11051
S'modelers'
p11052
sS'3504'
p11053
S'suck'
p11054
sS'3505'
p11055
S'mods'
p11056
sS'1637'
p11057
S'position'
p11058
sS'3506'
p11059
S'urge'
p11060
sS'3507'
p11061
S'sd-1'
p11062
sS'2345'
p11063
S'gripe'
p11064
sS'2344'
p11065
S'polar'
p11066
sS'2347'
p11067
S'unscrewed'
p11068
sS'2346'
p11069
S'sleeve'
p11070
sS'2341'
p11071
S'final'
p11072
sS'2340'
p11073
S'positioning'
p11074
sS'2343'
p11075
S'variable'
p11076
sS'2342'
p11077
S'mention'
p11078
sS'2349'
p11079
S'radio'
p11080
sS'2348'
p11081
S'requiring'
p11082
sS'2067'
p11083
S'glued'
p11084
sS'3708'
p11085
S'electro-harmonix'
p11086
sS'3709'
p11087
S'no-name'
p11088
sS'1889'
p11089
S'kills'
p11090
sS'1888'
p11091
S'tests'
p11092
sS'1887'
p11093
S'stash'
p11094
sS'1886'
p11095
S'eliminate'
p11096
sS'3700'
p11097
S'realistic'
p11098
sS'1884'
p11099
S'manufacture'
p11100
sS'1883'
p11101
S'3/8'
p11102
sS'1882'
p11103
S'softly'
p11104
sS'3704'
p11105
S'assured'
p11106
sS'3705'
p11107
S'stellar'
p11108
sS'2121'
p11109
S'spray'
p11110
sS'2120'
p11111
S'1980'
p11112
sS'2123'
p11113
S'marshall'
p11114
sS'2122'
p11115
S'dude'
p11116
sS'2125'
p11117
S'beach'
p11118
sS'2124'
p11119
S'beater'
p11120
sS'4918'
p11121
S'enhanced'
p11122
sS'4919'
p11123
S'finder'
p11124
sS'4916'
p11125
S'quick-change'
p11126
sS'4917'
p11127
S'letter'
p11128
sS'4914'
p11129
S'wash'
p11130
sS'4915'
p11131
S'kicking'
p11132
sS'4912'
p11133
S'restringing'
p11134
sS'4913'
p11135
S'cordless'
p11136
sS'4910'
p11137
S'h1'
p11138
sS'4911'
p11139
S'prefers'
p11140
sS'5173'
p11141
S'backwards'
p11142
sS'5172'
p11143
S'sheraton'
p11144
sS'5171'
p11145
S'335'
p11146
sS'5170'
p11147
S'exist'
p11148
sS'5177'
p11149
S'stoked'
p11150
sS'5176'
p11151
S'uniform'
p11152
sS'5175'
p11153
S'encountered'
p11154
sS'5174'
p11155
S'dots'
p11156
sS'5179'
p11157
S'jobs'
p11158
sS'5178'
p11159
S'macbook'
p11160
sS'133'
p11161
S'wo'
p11162
sS'132'
p11163
S'people'
p11164
sS'131'
p11165
S'videos'
p11166
sS'130'
p11167
S'youtube'
p11168
sS'137'
p11169
S'cool'
p11170
sS'136'
p11171
S'simple'
p11172
sS'135'
p11173
S'effects'
p11174
sS'134'
p11175
S'included'
p11176
sS'139'
p11177
S'optional'
p11178
sS'138'
p11179
S'switched'
p11180
sS'5339'
p11181
S'enclosure'
p11182
sS'88'
p11183
S'stock'
p11184
sS'89'
p11185
S'tuners'
p11186
sS'82'
p11187
S'squier'
p11188
sS'83'
p11189
S'affinity'
p11190
sS'80'
p11191
S'happy'
p11192
sS'81'
p11193
S'feel'
p11194
sS'86'
p11195
S'drilling'
p11196
sS'87'
p11197
S'holes'
p11198
sS'84'
p11199
S'aware'
p11200
sS'85'
p11201
S'fit'
p11202
sS'3368'
p11203
S'fell'
p11204
sS'1502'
p11205
S'orange'
p11206
sS'1503'
p11207
S'noisy'
p11208
sS'1500'
p11209
S'breeze'
p11210
sS'1501'
p11211
S'wind'
p11212
sS'1506'
p11213
S'silent'
p11214
sS'1507'
p11215
S'cons'
p11216
sS'1504'
p11217
S'levels'
p11218
sS'1505'
p11219
S'hum'
p11220
sS'3085'
p11221
S'draw'
p11222
sS'3084'
p11223
S'trim'
p11224
sS'3087'
p11225
S'multi-effect'
p11226
sS'3086'
p11227
S'retro'
p11228
sS'3081'
p11229
S'fingering'
p11230
sS'3080'
p11231
S'electrified'
p11232
sS'3083'
p11233
S'lively'
p11234
sS'659'
p11235
S'aspect'
p11236
sS'3369'
p11237
S'outlet'
p11238
sS'3885'
p11239
S'consideration'
p11240
sS'3884'
p11241
S'deserves'
p11242
sS'3887'
p11243
S'choices'
p11244
sS'3886'
p11245
S'bringing'
p11246
sS'3881'
p11247
S'rumble'
p11248
sS'3880'
p11249
S'tremendously'
p11250
sS'3883'
p11251
S'preamps'
p11252
sS'3882'
p11253
S'daw'
p11254
sS'3889'
p11255
S"d'addarios"
p11256
sS'3888'
p11257
S'fretted'
p11258
sS'2484'
p11259
S'imagination'
p11260
sS'1291'
p11261
S'affect'
p11262
sS'1296'
p11263
S'odd'
p11264
sS'1297'
p11265
S'remained'
p11266
sS'995'
p11267
S'nut'
p11268
sS'994'
p11269
S'offer'
p11270
sS'997'
p11271
S'reset'
p11272
sS'996'
p11273
S'rush'
p11274
sS'991'
p11275
S'quarter'
p11276
sS'990'
p11277
S'34'
p11278
sS'993'
p11279
S'stability'
p11280
sS'992'
p11281
S'pleased'
p11282
sS'999'
p11283
S'completely'
p11284
sS'998'
p11285
S'gap'
p11286
sS'5098'
p11287
S'cutaway'
p11288
sS'5099'
p11289
S'baggie'
p11290
sS'3579'
p11291
S'wrapped'
p11292
sS'3578'
p11293
S'dust'
p11294
sS'5090'
p11295
S'le'
p11296
sS'3574'
p11297
S'shoe'
p11298
sS'5092'
p11299
S'humming'
p11300
sS'5093'
p11301
S'array'
p11302
sS'5094'
p11303
S'judging'
p11304
sS'5095'
p11305
S'kala'
p11306
sS'5096'
p11307
S'silvertone'
p11308
sS'5097'
p11309
S'220'
p11310
sS'4497'
p11311
S'gut'
p11312
sS'4496'
p11313
S'presence'
p11314
sS'4495'
p11315
S'finest'
p11316
sS'4494'
p11317
S'spanish'
p11318
sS'4493'
p11319
S'instrumental'
p11320
sS'4492'
p11321
S'th-2000-s'
p11322
sS'4491'
p11323
S'connectivity'
p11324
sS'4490'
p11325
S'fostex'
p11326
sS'4499'
p11327
S'sparkle'
p11328
sS'4498'
p11329
S'sennheisers'
p11330
sS'2938'
p11331
S'pronounced'
p11332
sS'2939'
p11333
S'clarity'
p11334
sS'2936'
p11335
S'miles'
p11336
sS'2937'
p11337
S'twisted'
p11338
sS'2934'
p11339
S'policy'
p11340
sS'1397'
p11341
S'admittedly'
p11342
sS'2932'
p11343
S'refund'
p11344
sS'2933'
p11345
S'retailer'
p11346
sS'2930'
p11347
S'offered'
p11348
sS'2931'
p11349
S'partial'
p11350
sS'5326'
p11351
S'10-46'
p11352
sS'5327'
p11353
S'fusion'
p11354
sS'5324'
p11355
S'waxing'
p11356
sS'5325'
p11357
S'homework'
p11358
sS'5322'
p11359
S'vt999'
p11360
sS'5323'
p11361
S'seeking'
p11362
sS'5320'
p11363
S'fyi'
p11364
sS'5321'
p11365
S'brighten'
p11366
sS'3799'
p11367
S'jf-01'
p11368
sS'5328'
p11369
S'snips'
p11370
sS'5329'
p11371
S'solely'
p11372
sS'3797'
p11373
S'era'
p11374
sS'1839'
p11375
S'bends'
p11376
sS'2161'
p11377
S'replicate'
p11378
sS'3168'
p11379
S'mediums'
p11380
sS'3169'
p11381
S'miniature'
p11382
sS'3166'
p11383
S'winter'
p11384
sS'3167'
p11385
S'core'
p11386
sS'3164'
p11387
S'mellow'
p11388
sS'3165'
p11389
S'skin'
p11390
sS'3162'
p11391
S'offers'
p11392
sS'3163'
p11393
S'ancient'
p11394
sS'3160'
p11395
S'balanced'
p11396
sS'3161'
p11397
S'equivalent'
p11398
sS'2154'
p11399
S'dirt'
p11400
sS'2155'
p11401
S'team'
p11402
sS'2404'
p11403
S'processors'
p11404
sS'731'
p11405
S'reasons'
p11406
sS'730'
p11407
S'knowledge'
p11408
sS'733'
p11409
S'blue'
p11410
sS'2405'
p11411
S'acoustical'
p11412
sS'735'
p11413
S'rock'
p11414
sS'734'
p11415
S'classic'
p11416
sS'737'
p11417
S'importantly'
p11418
sS'736'
p11419
S'beat'
p11420
sS'739'
p11421
S'send'
p11422
sS'2402'
p11423
S'extraneous'
p11424
sS'2151'
p11425
S'avoid'
p11426
sS'4987'
p11427
S'shrink'
p11428
sS'2401'
p11429
S'blame'
p11430
sS'2006'
p11431
S'fifteen'
p11432
sS'1274'
p11433
S'reverse'
p11434
sS'4707'
p11435
S'winds'
p11436
sS'4706'
p11437
S'pulls'
p11438
sS'4705'
p11439
S'excels'
p11440
sS'4704'
p11441
S'drying'
p11442
sS'4703'
p11443
S'ridiculously'
p11444
sS'4702'
p11445
S'express'
p11446
sS'2325'
p11447
S'hissing'
p11448
sS'4700'
p11449
S'booklet'
p11450
sS'2329'
p11451
S'defective'
p11452
sS'2328'
p11453
S'studios'
p11454
sS'4709'
p11455
S'savings'
p11456
sS'2009'
p11457
S'print'
p11458
sS'3760'
p11459
S'stronger'
p11460
sS'3761'
p11461
S'greasy'
p11462
sS'3762'
p11463
S'row'
p11464
sS'3763'
p11465
S'wedgie'
p11466
sS'3764'
p11467
S'hardest'
p11468
sS'3765'
p11469
S'manufacturing'
p11470
sS'3766'
p11471
S'wise'
p11472
sS'3767'
p11473
S'shubb'
p11474
sS'3768'
p11475
S'inferior'
p11476
sS'3769'
p11477
S'sizing'
p11478
sS'1292'
p11479
S'increases'
p11480
sS'1792'
p11481
S'chassis'
p11482
sS'1293'
p11483
S'concerned'
p11484
sS'1290'
p11485
S'usage'
p11486
sS'2499'
p11487
S'served'
p11488
sS'2498'
p11489
S'lined'
p11490
sS'4648'
p11491
S'priceless'
p11492
sS'4649'
p11493
S'swivel'
p11494
sS'4642'
p11495
S'vibrant'
p11496
sS'4643'
p11497
S'faithful'
p11498
sS'4640'
p11499
S'cordoba'
p11500
sS'4641'
p11501
S'justice'
p11502
sS'4646'
p11503
S'conveniently'
p11504
sS'4647'
p11505
S'dings'
p11506
sS'4644'
p11507
S'brightest'
p11508
sS'4645'
p11509
S'discreet'
p11510
sS'1294'
p11511
S'damaged'
p11512
sS'1295'
p11513
S'discovered'
p11514
sS'5159'
p11515
S'ts808'
p11516
sS'5158'
p11517
S'sag'
p11518
sS'5151'
p11519
S'2010'
p11520
sS'5150'
p11521
S'light-weight'
p11522
sS'5153'
p11523
S'ol'
p11524
sS'5152'
p11525
S'tho'
p11526
sS'5155'
p11527
S'estimate'
p11528
sS'5154'
p11529
S'800'
p11530
sS'5157'
p11531
S'crisper'
p11532
sS'5156'
p11533
S'benefits'
p11534
sS'115'
p11535
S'heavier'
p11536
sS'114'
p11537
S'amazing'
p11538
sS'117'
p11539
S'chosen'
p11540
sS'116'
p11541
S'player'
p11542
sS'111'
p11543
S'impressed'
p11544
sS'110'
p11545
S'constructed'
p11546
sS'113'
p11547
S'documentation'
p11548
sS'112'
p11549
S'packaging'
p11550
sS'3244'
p11551
S'pushed'
p11552
sS'119'
p11553
S'wonderful'
p11554
sS'118'
p11555
S'channel'
p11556
sS'1748'
p11557
S'seated'
p11558
sS'1749'
p11559
S'standing'
p11560
sS'1744'
p11561
S'well-constructed'
p11562
sS'1745'
p11563
S'minor'
p11564
sS'1746'
p11565
S'gripes'
p11566
sS'1747'
p11567
S'dim'
p11568
sS'1740'
p11569
S'tall'
p11570
sS'1741'
p11571
S'lining'
p11572
sS'1742'
p11573
S'port'
p11574
sS'1743'
p11575
S'shortest'
p11576
sS'3308'
p11577
S'multi'
p11578
sS'3309'
p11579
S'owners'
p11580
sS'5494'
p11581
S'sprays'
p11582
sS'5495'
p11583
S'assorted'
p11584
sS'3304'
p11585
S'shame'
p11586
sS'3305'
p11587
S'nowadays'
p11588
sS'5490'
p11589
S'fc4'
p11590
sS'5491'
p11591
S'mat'
p11592
sS'1568'
p11593
S'75'
p11594
sS'1569'
p11595
S'breakage'
p11596
sS'1298'
p11597
S'properly'
p11598
sS'1299'
p11599
S'clips'
p11600
sS'5492'
p11601
S'pdf'
p11602
sS'1560'
p11603
S'tipping'
p11604
sS'1561'
p11605
S'stem'
p11606
sS'1562'
p11607
S'appearance'
p11608
sS'1563'
p11609
S'accessible'
p11610
sS'1564'
p11611
S'table'
p11612
sS'1565'
p11613
S'tablet'
p11614
sS'1566'
p11615
S'27'
p11616
sS'1567'
p11617
S'scale'
p11618
sS'5638'
p11619
S'muss'
p11620
sS'5639'
p11621
S'understood'
p11622
sS'5634'
p11623
S'switchable'
p11624
sS'5635'
p11625
S'm68'
p11626
sS'5636'
p11627
S'non-locking'
p11628
sS'5637'
p11629
S'rose'
p11630
sS'5630'
p11631
S'coloring'
p11632
sS'5631'
p11633
S'tote'
p11634
sS'5632'
p11635
S'pedal-'
p11636
sS'5633'
p11637
S'uni-vibe'
p11638
s.