(dp0
S'344'
p1
(lp2
S'79'
p3
aS'153'
p4
aS'481'
p5
aS'731'
p6
aS'877'
p7
aS'933'
p8
asS'0'
p9
(lp10
S'0'
p11
aS'778'
p12
aS'834'
p13
aS'886'
p14
aS'1017'
p15
aS'1216'
p16
aS'1337'
p17
aS'1360'
p18
aS'1374'
p19
asS'346'
p20
(lp21
S'166'
p22
aS'219'
p23
aS'577'
p24
aS'606'
p25
aS'917'
p26
aS'983'
p27
aS'1141'
p28
asS'347'
p29
(lp30
S'81'
p31
aS'417'
p32
aS'582'
p33
aS'1041'
p34
aS'1056'
p35
aS'1354'
p36
asS'340'
p37
(lp38
S'77'
p39
aS'213'
p40
aS'402'
p41
aS'418'
p42
aS'595'
p43
aS'980'
p44
aS'1427'
p45
asS'341'
p46
(lp47
S'78'
p48
aS'84'
p49
aS'85'
p50
aS'119'
p51
aS'134'
p52
aS'158'
p53
aS'322'
p54
aS'349'
p55
aS'362'
p56
aS'538'
p57
aS'542'
p58
aS'635'
p59
aS'658'
p60
aS'681'
p61
aS'814'
p62
aS'936'
p63
aS'954'
p64
aS'955'
p65
aS'990'
p66
aS'1021'
p67
aS'1112'
p68
aS'1174'
p69
aS'1214'
p70
aS'1257'
p71
aS'1258'
p72
asS'342'
p73
(lp74
g48
aS'281'
p75
aS'282'
p76
aS'614'
p77
aS'944'
p78
aS'1054'
p79
asS'343'
p80
(lp81
S'302'
p82
aS'776'
p83
asS'810'
p84
(lp85
S'412'
p86
aS'463'
p87
aS'765'
p88
aS'837'
p89
aS'965'
p90
asS'811'
p91
(lp92
S'661'
p93
aS'1004'
p94
aS'1033'
p95
aS'1107'
p96
aS'1371'
p97
asS'812'
p98
(lp99
S'414'
p100
aS'660'
p101
aS'818'
p102
aS'830'
p103
aS'914'
p104
aS'927'
p105
aS'1011'
p106
asS'813'
p107
(lp108
g100
aS'489'
p109
aS'503'
p110
aS'653'
p111
aS'683'
p112
aS'1362'
p113
asS'348'
p114
(lp115
S'82'
p116
aS'713'
p117
aS'869'
p118
aS'1166'
p119
aS'1197'
p120
asS'349'
p121
(lp122
g116
aS'108'
p123
aS'151'
p124
aS'193'
p125
aS'267'
p126
aS'360'
p127
aS'366'
p128
aS'391'
p129
aS'455'
p130
aS'513'
p131
aS'544'
p132
aS'641'
p133
aS'721'
p134
aS'724'
p135
aS'757'
p136
aS'842'
p137
aS'844'
p138
ag118
aS'938'
p139
aS'1196'
p140
aS'1384'
p141
aS'1386'
p142
aS'1397'
p143
asS'816'
p144
(lp145
S'415'
p146
aS'451'
p147
aS'827'
p148
aS'946'
p149
aS'1409'
p150
asS'817'
p151
(lp152
g42
aS'536'
p153
aS'904'
p154
aS'1137'
p155
aS'1287'
p156
asS'595'
p157
(lp158
S'181'
p159
aS'388'
p160
aS'652'
p161
aS'767'
p162
aS'808'
p163
aS'1254'
p164
asS'719'
p165
(lp166
g76
aS'291'
p167
aS'777'
p168
aS'1224'
p169
aS'1285'
p170
asS'718'
p171
(lp172
g76
ag86
aS'571'
p173
aS'784'
p174
aS'1317'
p175
asS'717'
p176
(lp177
S'280'
p178
aS'287'
p179
aS'581'
p180
aS'769'
p181
aS'801'
p182
aS'896'
p183
aS'900'
p184
aS'1035'
p185
aS'1089'
p186
aS'1114'
p187
aS'1241'
p188
asS'716'
p189
(lp190
S'278'
p191
aS'328'
p192
aS'351'
p193
ag111
aS'682'
p194
aS'753'
p195
aS'921'
p196
aS'1426'
p197
asS'715'
p198
(lp199
g191
aS'563'
p200
aS'746'
p201
aS'803'
p202
aS'807'
p203
aS'950'
p204
aS'1074'
p205
aS'1373'
p206
asS'714'
p207
(lp208
S'277'
p209
aS'385'
p210
aS'490'
p211
aS'1079'
p212
ag16
asS'713'
p213
(lp214
g209
aS'341'
p215
aS'781'
p216
aS'1326'
p217
asS'712'
p218
(lp219
g82
aS'435'
p220
aS'1092'
p221
ag175
asS'711'
p222
(lp223
S'273'
p224
aS'867'
p225
aS'878'
p226
aS'985'
p227
aS'1274'
p228
asS'710'
p229
(lp230
S'272'
p231
aS'505'
p232
aS'1399'
p233
asS'606'
p234
(lp235
S'240'
p236
aS'1081'
p237
aS'1177'
p238
aS'1315'
p239
asS'594'
p240
(lp241
S'180'
p242
aS'346'
p243
aS'437'
p244
ag5
aS'523'
p245
aS'976'
p246
aS'1138'
p247
aS'1250'
p248
aS'1307'
p249
ag97
asS'736'
p250
(lp251
S'301'
p252
aS'306'
p253
aS'371'
p254
aS'456'
p255
aS'662'
p256
aS'734'
p257
ag12
aS'787'
p258
aS'895'
p259
aS'940'
p260
aS'1071'
p261
asS'619'
p262
(lp263
S'196'
p264
aS'667'
p265
aS'1119'
p266
asS'298'
p267
(lp268
S'65'
p269
aS'293'
p270
ag211
ag96
ag97
asS'299'
p271
(lp272
g269
aS'143'
p273
ag53
aS'163'
p274
ag159
aS'242'
p275
aS'312'
p276
aS'327'
p277
aS'422'
p278
aS'648'
p279
aS'772'
p280
aS'1140'
p281
aS'1218'
p282
aS'1393'
p283
aS'1394'
p284
asS'296'
p285
(lp286
S'64'
p287
aS'352'
p288
aS'1270'
p289
ag239
asS'297'
p290
(lp291
S'66'
p292
aS'96'
p293
aS'308'
p294
aS'613'
p295
aS'673'
p296
aS'722'
p297
aS'947'
p298
aS'949'
p299
ag96
aS'1200'
p300
aS'1229'
p301
aS'1235'
p302
aS'1298'
p303
aS'1363'
p304
asS'294'
p305
(lp306
g287
ag273
aS'168'
p307
aS'220'
p308
aS'233'
p309
aS'374'
p310
aS'419'
p311
aS'450'
p312
aS'543'
p313
aS'574'
p314
aS'598'
p315
aS'694'
p316
aS'714'
p317
aS'748'
p318
ag102
aS'942'
p319
asS'295'
p320
(lp321
g287
aS'118'
p322
aS'311'
p323
ag129
ag200
aS'793'
p324
ag139
ag65
aS'977'
p325
ag282
aS'1252'
p326
asS'292'
p327
(lp328
g287
ag123
aS'204'
p329
aS'329'
p330
aS'479'
p331
ag258
aS'811'
p332
aS'1002'
p333
ag35
aS'1133'
p334
ag303
aS'1330'
p335
aS'1398'
p336
asS'293'
p337
(lp338
g287
aS'123'
p339
ag191
aS'397'
p340
ag312
aS'488'
p341
aS'507'
p342
ag314
aS'744'
p343
aS'1311'
p344
asS'290'
p345
(lp346
S'221'
p347
aS'395'
p348
ag211
aS'685'
p349
aS'1076'
p350
asS'291'
p351
(lp352
g287
ag39
ag293
aS'449'
p353
aS'663'
p354
aS'934'
p355
ag96
ag233
asS'591'
p356
(lp357
S'178'
p358
aS'375'
p359
aS'521'
p360
aS'621'
p361
ag316
asS'590'
p362
(lp363
g358
aS'201'
p364
aS'317'
p365
aS'423'
p366
aS'547'
p367
aS'703'
p368
aS'865'
p369
aS'1029'
p370
aS'1156'
p371
aS'1239'
p372
aS'1419'
p373
asS'593'
p374
(lp375
S'179'
p376
ag100
aS'619'
p377
aS'677'
p378
aS'782'
p379
aS'864'
p380
asS'592'
p381
(lp382
g376
aS'411'
p383
ag255
aS'615'
p384
aS'790'
p385
ag380
aS'1060'
p386
ag281
aS'1148'
p387
ag238
asS'199'
p388
(lp389
S'39'
p390
aS'262'
p391
aS'398'
p392
aS'991'
p393
aS'1237'
p394
aS'1320'
p395
aS'1378'
p396
asS'198'
p397
(lp398
g390
ag307
aS'189'
p399
aS'1025'
p400
aS'1077'
p401
asS'597'
p402
(lp403
g163
aS'905'
p404
aS'1146'
p405
asS'596'
p406
(lp407
g159
aS'361'
p408
aS'363'
p409
aS'496'
p410
aS'656'
p411
ag265
aS'1053'
p412
aS'1312'
p413
aS'1424'
p414
asS'195'
p415
(lp416
g390
aS'70'
p417
aS'105'
p418
aS'230'
p419
ag253
ag254
ag353
ag147
aS'468'
p420
aS'508'
p421
aS'583'
p422
ag59
aS'644'
p423
aS'696'
p424
aS'700'
p425
ag368
aS'866'
p426
ag63
aS'948'
p427
aS'1039'
p428
aS'1163'
p429
aS'1208'
p430
aS'1300'
p431
aS'1356'
p432
aS'1413'
p433
asS'194'
p434
(lp435
g390
ag358
ag408
aS'486'
p436
ag153
aS'567'
p437
aS'573'
p438
ag111
aS'750'
p439
aS'762'
p440
aS'799'
p441
aS'1047'
p442
aS'1327'
p443
asS'197'
p444
(lp445
g390
aS'57'
p446
aS'100'
p447
aS'110'
p448
aS'148'
p449
ag124
aS'228'
p450
aS'253'
p451
aS'261'
p452
ag179
aS'295'
p453
ag252
aS'332'
p454
ag129
ag100
aS'477'
p455
ag436
ag109
aS'512'
p456
aS'545'
p457
ag33
aS'588'
p458
aS'611'
p459
ag354
aS'717'
p460
aS'723'
p461
ag181
aS'774'
p462
aS'805'
p463
aS'846'
p464
ag35
aS'1083'
p465
aS'1099'
p466
aS'1100'
p467
aS'1102'
p468
aS'1131'
p469
aS'1203'
p470
aS'1227'
p471
aS'1260'
p472
aS'1314'
p473
aS'1342'
p474
aS'1380'
p475
aS'1390'
p476
aS'1410'
p477
asS'196'
p478
(lp479
g390
ag418
aS'218'
p480
asS'191'
p481
(lp482
g390
aS'122'
p483
aS'176'
p484
aS'177'
p485
ag178
aS'406'
p486
ag100
aS'424'
p487
aS'465'
p488
aS'593'
p489
ag43
aS'654'
p490
aS'715'
p491
aS'747'
p492
aS'855'
p493
ag139
aS'959'
p494
aS'989'
p495
aS'1024'
p496
aS'1094'
p497
aS'1121'
p498
aS'1183'
p499
aS'1191'
p500
ag471
aS'1236'
p501
aS'1262'
p502
ag170
ag17
asS'190'
p503
(lp504
S'182'
p505
aS'183'
p506
aS'353'
p507
aS'444'
p508
aS'533'
p509
aS'618'
p510
aS'916'
p511
aS'925'
p512
ag395
aS'1329'
p513
aS'1355'
p514
asS'193'
p515
(lp516
g390
aS'91'
p517
ag4
aS'198'
p518
aS'382'
p519
aS'1113'
p520
asS'192'
p521
(lp522
g390
aS'263'
p523
aS'674'
p524
ag102
ag370
aS'1353'
p525
asS'270'
p526
(lp527
S'56'
p528
aS'73'
p529
aS'215'
p530
ag13
aS'1265'
p531
asS'271'
p532
(lp533
g446
aS'59'
p534
aS'223'
p535
aS'475'
p536
ag457
aS'579'
p537
aS'813'
p538
aS'1178'
p539
asS'272'
p540
(lp541
g446
ag49
aS'90'
p542
aS'149'
p543
ag307
ag484
aS'292'
p544
aS'381'
p545
ag41
aS'630'
p546
ag368
aS'758'
p547
aS'861'
p548
aS'961'
p549
aS'1043'
p550
ag248
ag396
asS'273'
p551
(lp552
S'58'
p553
aS'174'
p554
aS'217'
p555
aS'622'
p556
ag355
aS'998'
p557
ag499
asS'274'
p558
(lp559
g534
aS'172'
p560
aS'290'
p561
aS'393'
p562
aS'476'
p563
aS'688'
p564
ag368
ag512
aS'1115'
p565
aS'1417'
p566
asS'275'
p567
(lp568
g534
aS'225'
p569
ag340
aS'442'
p570
ag421
ag33
ag201
ag547
aS'759'
p571
ag426
ag512
ag35
ag205
aS'1145'
p572
asS'276'
p573
(lp574
S'625'
p575
aS'971'
p576
aS'997'
p577
aS'1080'
p578
ag233
asS'277'
p579
(lp580
S'60'
p581
ag560
aS'191'
p582
aS'260'
p583
aS'318'
p584
aS'504'
p585
ag265
aS'898'
p586
ag355
aS'1031'
p587
ag120
aS'1309'
p588
asS'278'
p589
(lp590
g581
aS'154'
p591
aS'171'
p592
ag54
aS'531'
p593
ag200
aS'695'
p594
aS'786'
p595
ag69
asS'279'
p596
(lp597
S'62'
p598
aS'256'
p599
aS'603'
p600
ag228
aS'1428'
p601
asS'738'
p602
(lp603
g82
aS'549'
p604
ag140
aS'1222'
p605
asS'524'
p606
(lp607
g273
aS'367'
p608
ag509
ag135
ag393
ag501
asS'525'
p609
(lp610
g273
aS'483'
p611
ag102
aS'1232'
p612
aS'1361'
p613
asS'526'
p614
(lp615
g273
ag6
ag162
ag163
aS'840'
p616
ag106
asS'527'
p617
(lp618
S'144'
p619
aS'209'
p620
aS'705'
p621
ag155
aS'1147'
p622
aS'1160'
p623
aS'1195'
p624
asS'520'
p625
(lp626
S'140'
p627
aS'670'
p628
aS'1278'
p629
asS'521'
p630
(lp631
S'142'
p632
ag40
aS'227'
p633
aS'590'
p634
ag547
asS'522'
p635
(lp636
g273
aS'146'
p637
ag399
aS'283'
p638
ag33
aS'775'
p639
ag463
aS'858'
p640
aS'876'
p641
aS'978'
p642
ag227
aS'1090'
p643
ag469
ag499
aS'1420'
p644
asS'523'
p645
(lp646
g273
ag252
aS'535'
p647
ag161
ag7
aS'1055'
p648
aS'1217'
p649
asS'599'
p650
(lp651
g506
aS'285'
p652
aS'452'
p653
aS'480'
p654
ag360
aS'646'
p655
aS'668'
p656
aS'702'
p657
ag12
ag148
aS'859'
p658
aS'901'
p659
ag511
ag512
ag319
ag120
aS'1290'
p660
asS'528'
p661
(lp662
g619
aS'344'
p663
aS'1030'
p664
ag513
ag514
asS'529'
p665
(lp666
g619
aS'248'
p667
ag621
aS'725'
p668
aS'826'
p669
aS'999'
p670
aS'1045'
p671
asS'449'
p672
(lp673
S'115'
p674
ag523
ag310
aS'720'
p675
aS'735'
p676
ag202
aS'881'
p677
ag185
aS'1366'
p678
aS'1408'
p679
asS'448'
p680
(lp681
S'114'
p682
aS'139'
p683
ag449
ag454
aS'394'
p684
ag58
ag315
aS'730'
p685
asS'443'
p686
(lp687
S'113'
p688
aS'208'
p689
ag634
aS'687'
p690
ag369
aS'1101'
p691
aS'1318'
p692
aS'1344'
p693
asS'442'
p694
(lp695
S'111'
p696
aS'147'
p697
aS'428'
p698
aS'669'
p699
ag6
aS'902'
p700
aS'968'
p701
aS'1210'
p702
aS'1266'
p703
ag476
asS'441'
p704
(lp705
g696
ag698
ag354
ag6
aS'1016'
p706
aS'1184'
p707
aS'1207'
p708
asS'440'
p709
(lp710
g448
aS'471'
p711
aS'478'
p712
aS'602'
p713
aS'771'
p714
aS'850'
p715
ag494
asS'447'
p716
(lp717
g682
aS'458'
p718
ag585
ag200
aS'794'
p719
aS'845'
p720
aS'890'
p721
aS'1061'
p722
ag498
ag164
asS'446'
p723
(lp724
S'364'
p725
aS'553'
p726
aS'561'
p727
aS'647'
p728
ag101
aS'732'
p729
ag700
asS'445'
p730
(lp731
g688
ag4
ag518
ag255
aS'464'
p732
ag153
ag728
ag547
aS'937'
p733
ag27
ag248
asS'444'
p734
(lp735
g688
aS'313'
p736
aS'448'
p737
aS'556'
p738
aS'751'
p739
aS'822'
p740
aS'891'
p741
ag36
asS'108'
p742
(lp743
S'19'
p744
ag390
ag529
aS'165'
p745
aS'910'
p746
ag430
aS'1388'
p747
asS'109'
p748
(lp749
g744
aS'403'
p750
aS'825'
p751
ag34
asS'102'
p752
(lp753
S'18'
p754
aS'32'
p755
aS'72'
p756
ag449
ag543
aS'167'
p757
aS'170'
p758
ag399
aS'232'
p759
ag209
ag652
ag561
ag454
aS'373'
p760
ag100
aS'445'
p761
aS'497'
p762
aS'550'
p763
aS'712'
p764
ag675
aS'754'
p765
aS'755'
p766
ag547
aS'760'
p767
ag203
ag259
aS'912'
p768
ag204
aS'962'
p769
ag576
aS'1008'
p770
ag386
ag465
aS'1098'
p771
ag188
ag431
aS'1305'
p772
aS'1319'
p773
aS'1331'
p774
aS'1350'
p775
ag525
ag233
ag45
asS'103'
p776
(lp777
g754
ag128
ag255
ag699
ag203
ag576
aS'984'
p778
aS'1010'
p779
ag28
aS'1248'
p780
aS'1306'
p781
asS'100'
p782
(lp783
S'17'
p784
aS'34'
p785
aS'93'
p786
aS'591'
p787
ag384
ag6
ag538
ag261
aS'1249'
p788
aS'1286'
p789
ag113
ag475
asS'101'
p790
(lp791
S'604'
p792
ag343
aS'1124'
p793
ag474
ag113
asS'106'
p794
(lp795
g754
ag322
aS'150'
p796
ag307
aS'212'
p797
aS'239'
p798
ag252
aS'303'
p799
ag323
ag663
ag383
aS'467'
p800
aS'558'
p801
aS'693'
p802
ag621
aS'707'
p803
aS'718'
p804
ag325
aS'995'
p805
aS'1000'
p806
ag664
aS'1032'
p807
ag185
ag643
aS'1093'
p808
ag623
aS'1325'
p809
aS'1376'
p810
asS'107'
p811
(lp812
S'461'
p813
ag656
aS'819'
p814
aS'882'
p815
ag670
ag622
aS'1291'
p816
asS'104'
p817
(lp818
g754
aS'560'
p819
aS'851'
p820
aS'871'
p821
asS'105'
p822
(lp823
g754
aS'43'
p824
aS'75'
p825
aS'125'
p826
aS'164'
p827
ag569
ag451
aS'324'
p828
ag519
aS'416'
p829
ag42
aS'466'
p830
ag109
ag421
ag604
ag315
ag713
ag59
aS'659'
p831
ag524
aS'690'
p832
ag729
aS'749'
p833
ag571
aS'795'
p834
aS'804'
p835
aS'817'
p836
aS'863'
p837
ag821
aS'884'
p838
ag511
ag63
ag778
ag393
aS'1044'
p839
ag237
aS'1087'
p840
ag467
ag68
aS'1242'
p841
ag472
aS'1279'
p842
aS'1336'
p843
aS'1425'
p844
asS'39'
p845
(lp846
S'6'
p847
aS'29'
p848
ag755
aS'45'
p849
aS'49'
p850
aS'69'
p851
aS'109'
p852
aS'117'
p853
aS'133'
p854
aS'136'
p855
aS'138'
p856
aS'152'
p857
ag125
ag667
aS'249'
p858
ag561
ag454
aS'336'
p859
aS'348'
p860
ag56
ag254
aS'401'
p861
aS'439'
p862
ag312
aS'454'
p863
ag800
ag536
aS'501'
p864
aS'534'
p865
aS'540'
p866
ag600
ag459
aS'624'
p867
aS'628'
p868
aS'665'
p869
aS'675'
p870
ag194
ag349
ag201
ag440
ag203
ag102
ag751
aS'829'
p871
ag464
aS'857'
p872
ag641
aS'885'
p873
aS'903'
p874
ag104
aS'915'
p875
ag139
aS'957'
p876
ag769
aS'1012'
p877
aS'1067'
p878
ag520
aS'1135'
p879
ag429
ag499
aS'1190'
p880
aS'1201'
p881
aS'1212'
p882
ag471
aS'1267'
p883
ag660
aS'1389'
p884
aS'1395'
p885
asS'38'
p886
(lp887
g847
ag856
aS'194'
p888
aS'436'
p889
aS'499'
p890
aS'737'
p891
ag835
ag669
ag874
aS'1009'
p892
ag106
ag394
aS'1349'
p893
aS'1400'
p894
asS'33'
p895
(lp896
S'5'
p897
aS'493'
p898
aS'502'
p899
ag548
asS'32'
p900
(lp901
g897
ag784
ag785
aS'52'
p902
aS'89'
p903
aS'92'
p904
aS'131'
p905
ag449
aS'160'
p906
ag125
ag264
aS'210'
p907
aS'214'
p908
aS'216'
p909
aS'241'
p910
aS'243'
p911
aS'252'
p912
aS'264'
p913
ag231
aS'335'
p914
ag859
aS'386'
p915
ag41
ag383
aS'426'
p916
ag761
ag410
aS'515'
p917
aS'516'
p918
ag367
aS'566'
p919
ag33
ag422
ag458
ag634
ag792
aS'605'
p920
ag25
aS'607'
p921
aS'610'
p922
ag111
ag354
aS'666'
p923
ag265
aS'684'
p924
ag117
ag891
ag439
aS'756'
p925
aS'780'
p926
ag835
aS'823'
p927
ag103
ag464
aS'860'
p928
aS'872'
p929
ag677
ag838
aS'888'
p930
ag104
ag511
aS'918'
p931
aS'941'
p932
aS'956'
p933
aS'958'
p934
ag549
aS'963'
p935
aS'972'
p936
aS'975'
p937
ag66
aS'996'
p938
aS'1014'
p939
ag15
aS'1038'
p940
ag428
ag550
aS'1064'
p941
ag465
ag840
aS'1091'
p942
aS'1117'
p943
ag266
aS'1120'
p944
aS'1122'
p945
ag879
ag281
ag28
aS'1164'
p946
aS'1168'
p947
aS'1181'
p948
aS'1182'
p949
ag708
ag649
ag248
aS'1284'
p950
aS'1297'
p951
aS'1301'
p952
aS'1313'
p953
ag473
ag113
aS'1379'
p954
ag476
aS'1405'
p955
ag477
aS'1421'
p956
ag601
asS'31'
p957
(lp958
g897
aS'53'
p959
aS'766'
p960
aS'838'
p961
aS'841'
p962
ag576
ag770
aS'1188'
p963
ag788
ag473
asS'30'
p964
(lp965
g897
ag784
ag785
aS'40'
p966
ag786
aS'257'
p967
aS'268'
p968
aS'340'
p969
ag865
ag27
ag789
aS'1338'
p970
ag113
asS'37'
p971
(lp972
g847
aS'9'
p973
aS'16'
p974
aS'22'
p975
ag390
aS'51'
p976
ag581
ag598
ag825
ag31
ag50
aS'94'
p977
aS'95'
p978
ag123
ag688
ag51
ag856
ag627
aS'141'
p979
ag449
ag543
ag745
ag757
ag505
ag399
aS'192'
p980
ag888
aS'224'
p981
ag633
ag450
aS'236'
p982
aS'245'
p983
ag667
aS'250'
p984
aS'255'
p985
aS'259'
p986
ag523
aS'276'
p987
ag167
ag544
aS'297'
p988
aS'323'
p989
aS'333'
p990
ag193
ag128
aS'377'
p991
aS'378'
p992
aS'392'
p993
ag340
ag383
ag100
ag32
ag244
ag862
ag353
ag255
aS'459'
p994
ag711
ag455
ag410
ag342
aS'532'
p995
aS'570'
p996
ag438
ag537
ag43
aS'601'
p997
ag510
ag868
aS'629'
p998
aS'631'
p999
aS'633'
p1000
aS'639'
p1001
aS'650'
p1002
ag161
aS'680'
p1003
ag657
aS'706'
p1004
aS'708'
p1005
aS'710'
p1006
aS'711'
p1007
ag491
aS'742'
p1008
ag440
ag639
ag385
aS'796'
p1009
aS'798'
p1010
ag182
aS'809'
p1011
ag836
aS'828'
p1012
aS'832'
p1013
ag13
aS'836'
p1014
ag493
ag225
ag641
ag196
ag105
ag319
ag298
aS'960'
p1015
ag701
ag937
ag778
aS'1027'
p1016
aS'1037'
p1017
aS'1046'
p1018
ag771
ag466
ag467
aS'1110'
p1019
ag266
ag281
aS'1155'
p1020
aS'1157'
p1021
ag119
ag539
aS'1205'
p1022
aS'1220'
p1023
ag612
ag248
ag531
ag703
aS'1271'
p1024
aS'1277'
p1025
aS'1310'
p1026
aS'1321'
p1027
ag678
aS'1367'
p1028
ag476
ag143
aS'1412'
p1029
ag433
ag414
asS'36'
p1030
(lp1031
S'254'
p1032
aS'380'
p1033
aS'951'
p1034
ag266
asS'35'
p1035
(lp1036
g897
ag825
aS'86'
p1037
ag599
aS'298'
p1038
ag507
ag41
ag813
ag655
ag460
aS'768'
p1039
aS'1263'
p1040
asS'34'
p1041
(lp1042
g897
aS'13'
p1043
ag581
aS'106'
p1044
ag632
ag449
ag827
aS'199'
p1045
aS'207'
p1046
ag275
aS'266'
p1047
aS'270'
p1048
ag544
aS'326'
p1049
ag914
ag993
ag761
ag147
ag420
aS'522'
p1050
ag920
aS'686'
p1051
ag257
aS'745'
p1052
aS'764'
p1053
ag203
ag332
ag871
ag1014
ag226
ag104
aS'939'
p1054
ag934
aS'981'
p1055
aS'992'
p1056
aS'1034'
p1057
aS'1118'
p1058
aS'1154'
p1059
ag881
ag882
ag471
ag228
aS'1334'
p1060
ag775
aS'1351'
p1061
ag233
asS'641'
p1062
(lp1063
S'316'
p1064
ag663
ag898
aS'862'
p1065
aS'1075'
p1066
aS'1303'
p1067
ag36
asS'640'
p1068
(lp1069
S'206'
p1070
ag689
aS'657'
p1071
ag425
ag136
aS'821'
p1072
aS'1015'
p1073
ag1066
asS'643'
p1074
(lp1075
g1046
aS'288'
p1076
ag830
ag440
asS'642'
p1077
(lp1078
g1046
ag994
ag656
ag6
ag225
ag248
ag143
ag433
asS'645'
p1079
(lp1080
g620
aS'238'
p1081
ag1032
aS'389'
p1082
ag890
ag349
aS'709'
p1083
ag571
aS'1063'
p1084
ag1024
ag19
ag142
asS'644'
p1085
(lp1086
g689
aS'491'
p1087
aS'1243'
p1088
aS'1335'
p1089
ag36
asS'438'
p1090
(lp1091
g905
ag265
ag668
aS'1268'
p1092
aS'1346'
p1093
asS'439'
p1094
(lp1095
g448
ag270
ag253
ag1004
ag318
ag493
ag106
ag475
asS'436'
p1096
(lp1097
S'107'
p1098
ag1000
ag815
aS'929'
p1099
aS'1085'
p1100
aS'1299'
p1101
asS'437'
p1102
(lp1103
g1098
ag905
aS'156'
p1104
ag264
ag910
ag146
ag25
ag668
aS'797'
p1105
ag511
aS'1023'
p1106
aS'1068'
p1107
ag350
aS'1149'
p1108
ag1092
ag413
asS'434'
p1109
(lp1110
g418
aS'116'
p1111
ag858
aS'314'
p1112
aS'529'
p1113
ag925
aS'1001'
p1114
ag1066
ag28
ag963
ag36
aS'1387'
p1115
asS'435'
p1116
(lp1117
g1098
ag1033
ag160
aS'1211'
p1118
ag809
asS'432'
p1119
(lp1120
g307
ag125
ag1046
ag797
ag126
aS'269'
p1121
ag252
ag82
aS'410'
p1122
ag220
aS'440'
p1123
aS'576'
p1124
ag803
ag174
aS'994'
p1125
ag1073
aS'1108'
p1126
ag623
aS'1176'
p1127
aS'1198'
p1128
ag780
aS'1357'
p1129
aS'1359'
p1130
ag810
ag142
asS'433'
p1131
(lp1132
g418
ag688
ag725
aS'472'
p1133
ag57
ag656
aS'894'
p1134
aS'922'
p1135
aS'993'
p1136
aS'1066'
p1137
ag387
asS'430'
p1138
(lp1139
S'103'
p1140
aS'833'
p1141
ag807
aS'1324'
p1142
ag284
asS'431'
p1143
(lp1144
S'104'
p1145
aS'284'
p1146
ag323
ag277
ag210
ag832
aS'697'
p1147
ag118
ag512
aS'943'
p1148
ag78
ag722
aS'1103'
p1149
ag572
ag120
ag1130
asS'339'
p1150
(lp1151
g39
aS'234'
p1152
aS'421'
p1153
ag244
aS'727'
p1154
aS'1069'
p1155
ag266
ag36
asS'338'
p1156
(lp1157
g39
ag592
ag968
aS'587'
p1158
ag316
ag201
ag1013
asS'335'
p1159
(lp1160
S'76'
p1161
ag124
ag179
aS'514'
p1162
aS'597'
p1163
ag174
ag550
ag412
ag947
asS'334'
p1164
(lp1165
g825
aS'155'
p1166
ag331
aS'699'
p1167
ag1009
ag936
asS'337'
p1168
(lp1169
g888
aS'600'
p1170
ag490
ag547
ag300
asS'336'
p1171
(lp1172
g1161
ag759
ag1053
aS'800'
p1173
ag874
ag44
asS'331'
p1174
(lp1175
g825
ag718
aS'460'
p1176
aS'487'
p1177
aS'733'
p1178
ag1072
aS'1036'
p1179
asS'330'
p1180
(lp1181
g825
ag987
ag340
ag1005
aS'853'
p1182
aS'923'
p1183
aS'1128'
p1184
aS'1293'
p1185
asS'333'
p1186
(lp1187
g825
aS'97'
p1188
ag75
ag813
aS'506'
p1189
aS'952'
p1190
ag936
ag400
ag679
ag566
asS'332'
p1191
(lp1192
g825
ag124
ag1081
ag873
ag806
ag237
ag1025
asS'744'
p1193
(lp1194
S'309'
p1195
ag728
ag27
ag706
ag1016
asS'745'
p1196
(lp1197
S'310'
p1198
ag54
ag340
ag835
ag64
ag466
aS'1175'
p1199
ag471
aS'1259'
p1200
ag344
asS'854'
p1201
(lp1202
g1162
ag876
ag937
ag1058
asS'818'
p1203
(lp1204
g42
ag647
aS'594'
p1205
ag920
ag1009
ag939
ag706
ag940
ag649
ag248
aS'1416'
p1206
asS'856'
p1207
(lp1208
g593
ag195
ag595
aS'849'
p1209
ag67
ag771
ag72
asS'857'
p1210
(lp1211
g771
ag71
asS'850'
p1212
(lp1213
S'509'
p1214
ag1162
aS'617'
p1215
ag879
ag473
asS'851'
p1216
(lp1217
S'511'
p1218
ag279
ag317
ag805
ag333
ag1155
aS'1292'
p1219
asS'852'
p1220
(lp1221
g1218
ag24
aS'578'
p1222
aS'585'
p1223
ag386
aS'1186'
p1224
asS'345'
p1225
(lp1226
g3
aS'235'
p1227
ag830
aS'623'
p1228
ag616
ag8
aS'1003'
p1229
ag405
ag387
ag476
ag150
asS'858'
p1230
(lp1231
g647
ag1205
ag405
aS'1276'
p1232
ag473
ag239
asS'859'
p1233
(lp1234
g153
ag1222
aS'676'
p1235
ag440
ag203
ag511
ag427
aS'964'
p1236
ag1137
ag401
ag844
asS'748'
p1237
(lp1238
g323
ag353
ag315
ag414
asS'6'
p1239
(lp1240
S'1'
p1241
aS'21'
p1242
aS'41'
p1243
ag825
ag903
ag448
aS'120'
p1244
ag273
ag449
aS'161'
p1245
aS'251'
p1246
ag486
ag42
ag5
ag647
aS'562'
p1247
ag161
ag835
aS'1050'
p1248
ag187
aS'1193'
p1249
ag649
ag113
aS'1403'
p1250
asS'848'
p1251
(lp1252
g864
aS'789'
p1253
ag227
ag1179
ag1249
asS'99'
p1254
(lp1255
g784
ag979
ag985
aS'495'
p1256
ag6
ag1179
ag169
ag644
asS'98'
p1257
(lp1258
g784
ag902
aS'620'
p1259
ag834
ag961
asS'844'
p1260
(lp1261
g1087
ag313
ag726
ag935
ag90
ag95
ag212
ag96
ag1224
asS'91'
p1262
(lp1263
g974
ag563
ag814
aS'893'
p1264
ag468
asS'90'
p1265
(lp1266
g974
ag417
ag756
ag904
ag688
ag483
aS'124'
p1267
ag449
ag543
ag376
ag1227
ag983
ag667
ag523
aS'279'
p1268
ag179
ag1064
ag1049
ag128
ag608
ag100
ag761
ag147
ag436
ag153
aS'546'
p1269
aS'592'
p1270
ag921
ag459
ag1259
ag575
ag1001
ag728
ag524
aS'692'
p1271
aS'704'
p1272
aS'726'
p1273
aS'729'
p1274
aS'736'
p1275
ag318
ag216
ag385
ag641
ag139
ag876
ag577
ag770
ag1017
aS'1049'
p1276
aS'1150'
p1277
aS'1162'
p1278
ag429
ag882
ag188
ag660
ag613
ag476
ag955
asS'93'
p1279
(lp1280
g974
ag688
ag967
aS'539'
p1281
ag1135
ag266
ag476
asS'92'
p1282
(lp1283
g974
ag390
aS'54'
p1284
ag529
ag825
ag786
ag293
ag124
aS'356'
p1285
aS'409'
p1286
ag767
ag1173
ag872
aS'879'
p1287
ag15
ag141
ag197
asS'95'
p1288
(lp1289
g974
ag824
ag54
ag861
ag370
ag878
aS'1126'
p1290
ag371
aS'1228'
p1291
ag476
asS'94'
p1292
(lp1293
g974
ag908
ag1114
ag249
asS'97'
p1294
(lp1295
g784
ag1284
ag825
ag786
ag979
ag449
aS'197'
p1296
ag620
ag913
ag252
aS'307'
p1297
ag276
ag128
ag653
ag899
ag604
ag33
ag315
aS'612'
p1298
ag556
ag1228
ag1002
ag111
ag60
ag101
ag349
ag690
ag621
ag297
aS'763'
p1299
aS'806'
p1300
ag203
ag225
ag1134
aS'913'
p1301
aS'926'
p1302
ag648
ag187
ag1027
aS'1365'
p1303
ag1029
asS'96'
p1304
(lp1305
g6
ag174
ag931
aS'1130'
p1306
asS'814'
p1307
(lp1308
g916
ag509
aS'889'
p1309
ag1137
asS'815'
p1310
(lp1311
g146
ag296
ag134
ag807
ag120
ag1291
ag1115
asS'740'
p1312
(lp1313
S'304'
p1314
aS'609'
p1315
ag492
ag549
ag702
asS'741'
p1316
(lp1317
S'305'
p1318
aS'569'
p1319
aS'907'
p1320
aS'930'
p1321
ag106
asS'742'
p1322
(lp1323
g1297
aS'319'
p1324
ag215
ag1301
asS'743'
p1325
(lp1326
g1195
ag341
ag538
aS'815'
p1327
ag793
asS'559'
p1328
(lp1329
g1166
aS'321'
p1330
aS'510'
p1331
aS'831'
p1332
asS'558'
p1333
(lp1334
g1166
ag76
aS'359'
p1335
aS'1073'
p1336
asS'746'
p1337
(lp1338
g1198
ag41
ag839
ag1084
ag186
asS'747'
p1339
(lp1340
g323
ag562
ag721
aS'1116'
p1341
ag623
asS'555'
p1342
(lp1343
g591
ag907
aS'470'
p1344
aS'967'
p1345
aS'1106'
p1346
aS'1171'
p1347
ag70
asS'554'
p1348
(lp1349
g4
aS'347'
p1350
aS'899'
p1351
ag8
ag549
ag780
asS'557'
p1352
(lp1353
g591
aS'173'
p1354
aS'572'
p1355
aS'791'
p1356
ag1327
ag872
ag1264
aS'973'
p1357
ag393
aS'1153'
p1358
aS'1169'
p1359
ag1347
ag170
asS'556'
p1360
(lp1361
g591
aS'906'
p1362
ag104
ag67
asS'551'
p1363
(lp1364
g124
ag78
ag807
aS'1199'
p1365
asS'550'
p1366
(lp1367
g796
aS'244'
p1368
ag323
aS'640'
p1369
aS'678'
p1370
ag547
ag779
ag119
asS'553'
p1371
(lp1372
g857
ag555
ag547
aS'1316'
p1373
asS'552'
p1374
(lp1375
g857
ag758
ag486
aS'453'
p1376
ag732
aS'518'
p1377
aS'541'
p1378
aS'932'
p1379
ag934
ag935
ag892
ag946
ag881
asS'238'
p1380
(lp1381
S'50'
p1382
ag778
aS'1142'
p1383
aS'1341'
p1384
ag206
asS'239'
p1385
(lp1386
g1382
ag627
ag40
ag738
ag1235
aS'839'
p1387
ag104
ag770
aS'1020'
p1388
ag28
asS'234'
p1389
(lp1390
S'48'
p1391
ag1284
ag903
ag977
aS'128'
p1392
ag484
ag582
aS'331'
p1393
ag310
ag1286
ag368
aS'847'
p1394
ag700
aS'987'
p1395
ag333
ag572
ag1200
asS'235'
p1396
(lp1397
g1391
ag417
ag447
ag1098
ag854
ag307
ag484
ag264
ag907
ag909
ag910
ag1064
ag365
aS'369'
p1398
ag340
ag508
ag200
ag919
ag422
aS'586'
p1399
ag489
ag315
ag25
ag868
ag265
ag564
aS'802'
p1400
ag202
ag538
ag511
aS'986'
p1401
aS'1070'
p1402
ag1019
ag1108
ag1200
aS'1261'
p1403
aS'1372'
p1404
aS'1404'
p1405
ag477
aS'1414'
p1406
asS'236'
p1407
(lp1408
g850
aS'299'
p1409
ag192
ag32
ag311
ag109
ag1269
ag867
ag112
ag1005
ag491
ag1154
ag1039
ag183
aS'1040'
p1410
aS'1151'
p1411
ag1022
aS'1226'
p1412
ag394
aS'1253'
p1413
ag197
asS'237'
p1414
(lp1415
g902
ag1270
ag764
ag834
aS'1062'
p1416
aS'1332'
p1417
asS'230'
p1418
(lp1419
S'46'
p1420
ag347
ag1318
ag1223
ag787
ag111
ag6
ag720
ag549
ag96
aS'1185'
p1421
aS'1288'
p1422
asS'231'
p1423
(lp1424
S'47'
p1425
ag688
ag367
ag1215
ag1089
asS'232'
p1426
(lp1427
g1425
aS'68'
p1428
ag652
asS'233'
p1429
(lp1430
g1391
ag49
ag51
ag52
ag591
ag55
ag341
ag764
ag815
ag1395
ag495
ag68
ag70
ag476
asS'1'
p1431
(lp1432
g11
ag959
ag273
aS'229'
p1433
ag595
ag669
aS'835'
p1434
aS'1215'
p1435
asS'614'
p1436
(lp1437
g125
ag33
ag377
ag832
aS'1375'
p1438
asS'146'
p1439
(lp1440
S'33'
p1441
ag583
ag889
ag801
asS'147'
p1442
(lp1443
S'27'
p1444
ag307
ag330
aS'434'
p1445
ag1376
aS'982'
p1446
aS'1028'
p1447
ag1088
ag170
ag1067
ag1089
asS'144'
p1448
(lp1449
S'26'
p1450
ag1441
aS'36'
p1451
ag674
ag22
ag633
aS'271'
p1452
aS'350'
p1453
aS'368'
p1454
ag562
aS'407'
p1455
aS'616'
p1456
ag877
ag664
ag221
aS'1136'
p1457
aS'1206'
p1458
ag1118
aS'1231'
p1459
aS'1233'
p1460
aS'1296'
p1461
aS'1422'
p1462
asS'145'
p1463
(lp1464
g1450
ag620
ag252
ag311
asS'142'
p1465
(lp1466
g1450
ag959
ag236
ag82
ag42
aS'430'
p1467
ag761
ag800
ag1124
ag1083
ag102
ag671
aS'1256'
p1468
aS'1304'
p1469
aS'1369'
p1470
asS'143'
p1471
(lp1472
g1450
ag82
ag1113
ag721
ag671
ag1127
ag336
asS'140'
p1473
(lp1474
S'343'
p1475
ag111
ag297
ag246
ag1405
asS'141'
p1476
(lp1477
g1450
aS'552'
p1478
ag924
ag497
asS'612'
p1479
(lp1480
g125
ag82
aS'433'
p1481
ag604
aS'883'
p1482
ag1155
aS'1078'
p1483
ag808
ag1358
ag470
asS'613'
p1484
(lp1485
g125
ag215
ag220
ag131
ag227
asS'610'
p1486
(lp1487
g125
ag82
ag1482
ag1125
ag1358
asS'611'
p1488
(lp1489
g125
ag41
ag120
ag477
asS'616'
p1490
(lp1491
S'195'
p1492
aS'286'
p1493
ag923
ag1302
aS'1194'
p1494
ag883
asS'617'
p1495
(lp1496
g365
aS'740'
p1497
aS'779'
p1498
ag578
asS'148'
p1499
(lp1500
g1444
ag309
ag921
aS'645'
p1501
ag879
asS'149'
p1502
(lp1503
g1444
ag1049
aS'494'
p1504
ag378
ag316
ag1275
ag871
ag1034
ag1114
ag467
ag281
aS'1246'
p1505
aS'1282'
p1506
asS'768'
p1507
(lp1508
S'330'
p1509
ag962
ag319
ag466
aS'1411'
p1510
asS'689'
p1511
(lp1512
g1246
ag1400
ag281
ag36
ag336
asS'688'
p1513
(lp1514
g667
ag638
ag921
ag377
ag148
ag103
ag466
ag468
ag955
aS'1418'
p1515
ag844
asS'685'
p1516
(lp1517
S'247'
p1518
ag667
ag653
ag200
aS'655'
p1519
ag524
ag925
asS'684'
p1520
(lp1521
g1518
ag490
ag1275
aS'812'
p1522
ag138
ag929
aS'1042'
p1523
ag1022
ag1142
ag1093
asS'687'
p1524
(lp1525
g1518
aS'358'
p1526
ag90
ag706
ag941
ag96
ag1417
asS'686'
p1527
(lp1528
g1518
ag86
aS'691'
p1529
ag6
ag693
asS'681'
p1530
(lp1531
g1368
ag194
ag1167
ag671
asS'680'
p1532
(lp1533
g911
ag828
aS'438'
p1534
ag462
aS'810'
p1535
asS'683'
p1536
(lp1537
S'246'
p1538
aS'342'
p1539
ag410
ag1302
ag36
asS'682'
p1540
(lp1541
g1538
aS'517'
p1542
ag1222
ag1400
ag13
ag7
ag355
ag892
ag96
asS'458'
p1543
(lp1544
g1335
aS'554'
p1545
ag200
asS'819'
p1546
(lp1547
g42
ag699
ag6
ag940
aS'1302'
p1548
asS'622'
p1549
(lp1550
g1296
aS'203'
p1551
ag915
ag1133
aS'524'
p1552
ag1446
ag1417
asS'133'
p1553
(lp1554
S'24'
p1555
ag417
ag82
aS'420'
p1556
ag763
ag315
ag1456
ag467
ag1277
ag1291
ag1413
ag1200
asS'132'
p1557
(lp1558
g1555
ag449
aS'396'
p1559
ag315
ag876
aS'979'
p1560
aS'1247'
p1561
asS'131'
p1562
(lp1563
g273
ag1409
ag1065
asS'130'
p1564
(lp1565
S'23'
p1566
ag1046
ag1350
ag1087
ag1162
ag1001
ag728
ag1272
ag740
ag641
ag1309
ag104
ag1276
aS'1170'
p1567
aS'1385'
p1568
asS'137'
p1569
(lp1570
S'25'
p1571
ag969
ag1321
ag1388
ag96
aS'1219'
p1572
asS'136'
p1573
(lp1574
g1571
ag902
ag264
ag689
aS'537'
p1575
ag628
aS'856'
p1576
ag931
ag227
ag781
aS'1407'
p1577
asS'135'
p1578
(lp1579
g1555
ag1441
ag236
aS'627'
p1580
ag547
ag36
asS'134'
p1581
(lp1582
g1555
ag825
aS'338'
p1583
ag425
aS'752'
p1584
ag94
ag206
aS'1391'
p1585
asS'494'
p1586
(lp1587
g1076
ag255
ag728
ag1014
asS'495'
p1588
(lp1589
g905
ag1104
ag264
ag907
ag146
ag916
ag508
aS'530'
p1590
ag919
ag437
ag1399
ag564
ag668
ag1105
ag838
ag511
ag495
ag1106
ag1402
ag350
ag942
ag266
ag1108
ag1199
ag1403
ag1092
aS'1289'
p1591
ag175
ag954
aS'1406'
p1592
ag1510
asS'139'
p1593
(lp1594
g1571
aS'672'
p1595
ag8
ag937
ag266
ag1591
asS'138'
p1596
(lp1597
g1571
ag1382
ag989
ag653
ag203
ag1015
ag227
aS'1179'
p1598
ag304
aS'1364'
p1599
ag233
asS'490'
p1600
(lp1601
g1392
ag242
ag698
ag6
ag404
ag96
ag1548
asS'491'
p1602
(lp1603
g697
ag359
aS'920'
p1604
ag807
asS'492'
p1605
(lp1606
S'129'
p1607
ag858
aS'315'
p1608
ag1162
ag1576
ag937
aS'1152'
p1609
aS'1295'
p1610
asS'493'
p1611
(lp1612
g1607
aS'135'
p1613
ag399
ag667
ag992
ag866
ag1378
ag769
ag1438
asS'24'
p1614
(lp1615
S'4'
p1616
ag976
ag340
ag1147
ag281
aS'1172'
p1617
ag1459
asS'25'
p1618
(lp1619
g1616
ag446
ag534
ag903
ag591
ag759
ag1048
ag1049
ag1453
ag193
ag654
ag341
ag575
aS'698'
p1620
ag440
ag639
ag168
ag871
ag1576
ag149
ag557
aS'1019'
p1621
aS'1095'
p1622
ag691
aS'1245'
p1623
ag1185
ag773
ag142
ag476
asS'26'
p1624
(lp1625
g1616
ag1451
ag849
ag1037
aS'101'
p1626
aS'102'
p1627
ag51
ag339
ag619
ag745
ag307
ag1354
ag554
ag391
ag1048
aS'289'
p1628
ag561
ag1324
ag990
ag288
aS'355'
p1629
ag991
aS'379'
p1630
ag487
aS'429'
p1631
ag1445
ag147
ag654
aS'485'
p1632
ag436
ag57
ag457
aS'565'
p1633
ag996
aS'580'
p1634
ag1158
ag43
ag315
ag459
ag1298
ag999
aS'632'
p1635
aS'651'
p1636
ag256
aS'664'
p1637
ag524
ag594
ag491
ag685
ag1008
aS'743'
p1638
ag201
ag833
aS'761'
p1639
ag714
aS'783'
p1640
ag385
ag1009
ag1173
ag62
ag836
ag102
aS'824'
p1641
ag751
aS'875'
p1642
ag1309
ag721
ag659
ag1379
ag778
ag1395
ag94
ag237
ag1358
aS'1165'
p1643
aS'1187'
p1644
ag1494
aS'1202'
p1645
aS'1209'
p1646
ag882
ag1023
ag301
aS'1234'
p1647
aS'1238'
p1648
ag883
ag950
ag170
ag1373
ag773
ag395
aS'1348'
p1649
ag525
ag1438
ag747
ag894
ag1515
asS'27'
p1650
(lp1651
g796
aS'222'
p1652
ag131
ag835
aS'924'
p1653
ag1073
aS'1057'
p1654
aS'1109'
p1655
asS'20'
p1656
(lp1657
S'3'
p1658
ag966
ag1391
ag1047
ag968
aS'404'
p1659
ag1235
ag928
ag1276
ag412
ag1654
ag1644
ag789
asS'21'
p1660
(lp1661
g1658
ag529
ag50
ag688
ag968
ag830
aS'564'
p1662
ag1259
ag999
ag1016
aS'1383'
p1663
asS'22'
p1664
(lp1665
S'296'
p1666
aS'643'
p1667
ag6
aS'1022'
p1668
ag539
ag1028
asS'23'
p1669
(lp1670
g1616
ag908
ag1229
ag120
ag36
asS'28'
p1671
(lp1672
g897
ag287
ag786
ag980
ag1551
ag308
ag911
ag340
ag1286
ag32
ag341
ag866
ag24
ag1636
ag564
ag729
ag343
ag746
ag770
ag500
ag1663
asS'29'
p1673
(lp1674
g897
aS'28'
p1675
ag1392
ag1475
ag1631
ag255
aS'557'
p1676
ag492
ag203
ag404
ag1321
aS'1013'
p1677
ag465
aS'1129'
p1678
ag469
aS'1294'
p1679
aS'1370'
p1680
asS'407'
p1681
(lp1682
g293
ag449
ag274
aS'205'
p1683
ag981
ag275
ag160
ag383
ag890
ag33
ag349
ag657
ag766
ag641
ag642
aS'1007'
p1684
aS'1104'
p1685
ag943
ag629
ag36
asS'406'
p1686
(lp1687
g293
ag1286
ag1320
asS'405'
p1688
(lp1689
g757
aS'190'
p1690
ag359
ag109
ag1189
ag1158
ag1648
asS'404'
p1691
(lp1692
g977
ag1538
aS'638'
p1693
ag676
ag225
ag468
ag1347
ag1435
ag477
asS'403'
p1694
(lp1695
g977
ag980
ag1045
ag561
ag310
ag993
aS'427'
p1696
aS'446'
p1697
ag420
aS'500'
p1698
ag459
ag296
ag524
ag1083
ag765
ag767
ag1065
ag1264
aS'897'
p1699
aS'1058'
p1700
ag1137
aS'1105'
p1701
ag499
ag1494
aS'1240'
p1702
aS'1255'
p1703
ag531
ag772
aS'1333'
p1704
ag525
ag143
ag197
asS'402'
p1705
(lp1706
g977
ag449
ag642
ag1647
asS'401'
p1707
(lp1708
g786
aS'126'
p1709
ag1198
ag737
ag385
ag835
ag778
asS'400'
p1710
(lp1711
g786
ag867
asS'629'
p1712
(lp1713
S'200'
p1714
aS'275'
p1715
ag997
ag586
ag27
aS'1125'
p1716
ag248
ag335
asS'409'
p1717
(lp1718
g293
ag277
ag131
ag138
aS'868'
p1719
ag1401
ag16
aS'1225'
p1720
asS'408'
p1721
(lp1722
g293
ag340
ag255
ag1228
aS'843'
p1723
ag400
asS'628'
p1724
(lp1725
g1714
ag1631
aS'469'
p1726
ag1545
ag24
ag298
ag401
asS'758'
p1727
(lp1728
g1064
ag1509
ag604
ag1560
ag670
asS'379'
p1729
(lp1730
g903
ag542
ag339
ag918
aS'626'
p1731
aS'728'
p1732
ag343
ag1253
ag13
ag138
ag768
ag104
ag1383
ag841
ag883
asS'378'
p1733
(lp1734
g903
ag1081
ag1184
ag1623
asS'829'
p1735
(lp1736
S'441'
p1737
ag728
ag238
ag789
asS'828'
p1738
(lp1739
g244
ag1667
ag349
ag368
ag766
ag225
ag875
ag228
aS'1368'
p1740
asS'371'
p1741
(lp1742
g903
ag124
aS'187'
p1743
ag908
ag1146
ag859
aS'337'
p1744
ag1454
ag132
ag604
ag719
ag498
aS'1167'
p1745
aS'1230'
p1746
ag816
aS'1322'
p1747
ag36
asS'370'
p1748
(lp1749
g903
ag745
aS'334'
p1750
ag746
ag35
ag1359
ag1412
ag613
asS'373'
p1751
(lp1752
g903
ag916
aS'637'
p1753
ag1006
ag937
ag79
asS'372'
p1754
(lp1755
g903
ag1493
ag323
ag131
ag720
aS'892'
p1756
ag404
ag1301
ag805
ag1057
aS'1340'
p1757
ag45
asS'375'
p1758
(lp1759
g903
ag1354
ag988
ag132
ag1327
ag872
aS'931'
p1760
ag1357
ag1358
asS'374'
p1761
(lp1762
g903
ag55
ag341
ag342
ag1638
ag62
ag815
ag1388
ag69
ag1199
asS'377'
p1763
(lp1764
g903
ag1046
ag1583
ag487
ag547
ag462
ag260
aS'969'
p1765
ag185
ag1024
ag1585
asS'376'
p1766
(lp1767
g903
ag786
ag309
ag153
ag315
aS'928'
p1768
ag139
ag1384
asS'708'
p1769
(lp1770
g1121
ag508
ag200
ag996
ag59
ag289
asS'709'
p1771
(lp1772
g1121
ag383
ag961
aS'908'
p1773
ag319
ag45
asS'704'
p1774
(lp1775
g391
ag487
ag1028
asS'705'
p1776
(lp1777
g255
aS'741'
p1778
aS'880'
p1779
ag95
ag1126
aS'1280'
p1780
ag1610
ag1384
ag150
asS'706'
p1781
(lp1782
g126
ag1315
ag134
ag149
ag227
ag1700
ag1457
ag120
ag16
ag1757
asS'707'
p1783
(lp1784
g968
ag1659
aS'599'
p1785
ag492
ag1654
asS'700'
p1786
(lp1787
g986
ag340
ag130
ag1676
ag1434
asS'618'
p1788
(lp1789
g264
ag909
ag910
ag1590
ag1399
ag265
ag668
ag1105
ag1402
ag350
ag942
ag266
ag413
ag1093
asS'702'
p1790
(lp1791
g583
ag1398
ag656
ag721
ag333
ag95
ag1025
asS'703'
p1792
(lp1793
g1452
ag658
ag1483
ag1655
asS'393'
p1794
(lp1795
g904
ag297
aS'974'
p1796
asS'392'
p1797
(lp1798
g904
ag347
ag831
ag117
ag90
asS'88'
p1799
(lp1800
g974
ag287
aS'320'
p1801
ag295
ag1523
ag1609
aS'1221'
p1802
ag302
ag335
asS'89'
p1803
(lp1804
g974
aS'71'
p1805
ag1646
ag951
aS'1323'
p1806
asS'397'
p1807
(lp1808
g786
ag1632
ag1662
ag422
ag1001
ag1336
ag1359
asS'396'
p1809
(lp1810
g786
ag264
ag23
ag1632
ag110
ag659
asS'395'
p1811
(lp1812
g242
ag1319
ag6
aS'909'
p1813
asS'394'
p1814
(lp1815
g904
ag447
ag366
ag1813
ag442
asS'82'
p1816
(lp1817
S'15'
p1818
ag446
ag978
ag1244
ag192
ag1634
ag547
ag595
ag385
ag493
ag1236
ag248
ag335
ag1060
ag373
ag844
asS'83'
p1819
(lp1820
g1818
ag850
ag1227
ag340
ag1162
ag922
ag440
ag181
ag401
ag16
ag1561
ag248
asS'80'
p1821
(lp1822
S'14'
p1823
ag51
ag530
ag60
ag1638
ag118
ag142
asS'398'
p1824
(lp1825
g786
ag123
ag1744
ag1453
ag340
ag353
ag1256
ag1552
ag1676
ag1270
ag1272
ag676
aS'870'
p1826
ag641
ag183
ag1773
ag932
aS'1005'
p1827
ag1494
ag1645
aS'1283'
p1828
ag395
ag443
ag678
asS'86'
p1829
(lp1830
g1818
aS'608'
p1831
ag1274
ag13
ag1249
ag156
asS'87'
p1832
(lp1833
g323
ag200
ag1148
ag325
aS'1189'
p1834
ag1459
asS'84'
p1835
(lp1836
g1818
ag848
ag3
ag49
ag854
ag309
ag453
ag1038
ag192
aS'339'
p1837
ag991
ag545
ag160
ag1286
ag100
ag1697
ag420
ag509
ag1355
ag1315
ag575
ag1731
ag423
ag1003
ag112
ag1272
ag1732
ag547
ag1640
ag836
ag873
ag874
ag875
aS'919'
p1838
ag204
aS'988'
p1839
ag1700
aS'1123'
p1840
ag1290
ag1643
ag300
ag169
aS'1269'
p1841
ag1591
ag1027
aS'1328'
p1842
ag143
asS'85'
p1843
(lp1844
g1818
ag534
ag1702
ag413
asS'797'
p1845
(lp1846
g991
ag1163
ag871
ag72
asS'796'
p1847
(lp1848
g727
ag1446
aS'1143'
p1849
asS'795'
p1850
(lp1851
S'376'
p1852
ag244
aS'498'
p1853
ag807
ag247
ag1142
ag233
asS'794'
p1854
(lp1855
g1852
ag1556
ag1445
ag1545
ag200
ag295
asS'793'
p1856
(lp1857
g760
ag440
ag659
ag427
asS'792'
p1858
(lp1859
g889
aS'473'
p1860
ag437
ag295
ag1000
ag815
aS'1006'
p1861
asS'791'
p1862
(lp1863
S'370'
p1864
ag310
ag385
ag474
asS'790'
p1865
(lp1866
g1864
ag916
ag676
ag462
ag691
ag266
asS'799'
p1867
(lp1868
g1033
ag13
ag929
ag875
asS'798'
p1869
(lp1870
g1630
ag42
ag1247
ag675
ag1704
ag525
ag1250
ag433
asS'7'
p1871
(lp1872
g1241
ag785
aS'88'
p1873
ag627
ag449
aS'175'
p1874
aS'186'
p1875
ag981
ag450
ag252
ag1393
ag243
ag383
aS'431'
p1876
ag918
ag647
ag411
ag1003
ag1271
ag6
ag891
ag439
ag925
ag440
ag1010
ag835
ag203
aS'945'
p1877
aS'970'
p1878
ag938
aS'1059'
p1879
ag1840
ag1059
ag170
ag156
ag809
ag893
ag1115
aS'1402'
p1880
ag433
asS'601'
p1881
(lp1882
S'185'
p1883
ag1330
ag1331
ag1275
aS'770'
p1884
ag7
ag1248
ag96
ag708
ag113
ag433
ag956
asS'607'
p1885
(lp1886
g1690
ag440
ag63
ag370
aS'1082'
p1887
asS'586'
p1888
(lp1889
g1874
ag1227
ag294
ag1542
ag1545
ag634
ag203
aS'874'
p1890
ag298
aS'1134'
p1891
ag951
ag336
asS'587'
p1892
(lp1893
g1874
ag179
ag1409
ag924
aS'1097'
p1894
ag1224
asS'584'
p1895
(lp1896
g1354
ag988
ag1001
ag135
aS'816'
p1897
ag1306
ag1358
asS'585'
p1898
(lp1899
g455
ag741
ag1179
aS'1088'
p1900
ag120
aS'1275'
p1901
asS'582'
p1902
(lp1903
g592
ag195
ag932
ag68
asS'583'
p1904
(lp1905
g560
ag813
ag563
aS'935'
p1906
ag1446
ag670
ag1149
ag810
ag1880
asS'580'
p1907
(lp1908
S'169'
p1909
ag125
aS'354'
p1910
ag916
ag147
ag255
ag134
aS'785'
p1911
aS'792'
p1912
ag412
aS'1382'
p1913
asS'581'
p1914
(lp1915
g758
aS'596'
p1916
ag1580
ag260
ag113
ag1206
asS'588'
p1917
(lp1918
g484
ag329
ag278
aS'519'
p1919
ag1826
asS'589'
p1920
(lp1921
g485
ag582
ag561
ag519
aS'399'
p1922
ag1696
ag436
ag109
ag360
aS'551'
p1923
ag537
ag1634
ag1667
ag111
ag676
ag925
ag547
aS'820'
p1924
ag369
ag1826
ag259
ag875
ag393
ag1410
ag1644
ag882
ag248
ag473
ag395
aS'1377'
p1925
ag1515
ag601
asS'245'
p1926
(lp1927
g976
aS'80'
p1928
aS'127'
p1929
ag22
ag1875
ag633
aS'325'
p1930
ag1454
ag254
ag210
ag1455
ag220
ag1860
aS'484'
p1931
aS'520'
p1932
aS'555'
p1933
aS'575'
p1934
aS'584'
p1935
ag384
ag411
ag61
ag802
ag134
ag168
ag1924
ag1756
ag154
ag1099
ag227
ag1827
ag1016
ag205
ag1457
ag119
ag1745
ag1617
ag1458
aS'1223'
p1936
ag1460
ag326
aS'1281'
p1937
ag1461
ag1101
ag1404
ag1462
aS'1423'
p1938
asS'244'
p1939
(lp1940
g976
ag529
aS'157'
p1941
ag392
ag1122
ag656
ag803
ag512
ag578
ag387
ag36
asS'247'
p1942
(lp1943
g976
ag910
ag340
ag920
ag332
ag89
ag929
ag260
ag881
asS'246'
p1944
(lp1945
g976
ag50
ag697
aS'188'
p1946
aS'265'
p1947
ag736
aS'400'
p1948
ag916
ag898
ag153
ag1147
ag1884
ag740
aS'1339'
p1949
asS'241'
p1950
(lp1951
g1382
ag287
ag292
ag124
ag294
ag1285
ag255
ag1542
ag1113
ag1545
ag1315
ag203
ag1351
ag1136
ag807
ag1654
ag387
ag1609
ag476
asS'240'
p1952
(lp1953
g1382
ag365
ag1545
ag298
ag1802
asS'243'
p1954
(lp1955
g976
ag39
ag903
ag786
ag977
ag682
ag826
ag1929
ag637
ag449
ag124
ag827
ag484
ag1690
ag667
ag858
ag984
ag451
ag561
ag1409
ag1750
ag991
ag1630
ag1697
ag420
ag109
ag1189
ag918
aS'526'
p1956
ag647
ag1269
ag200
ag1634
ag1158
aS'589'
p1957
ag1270
ag315
ag922
ag490
ag1272
ag1004
ag440
ag1039
ag639
ag202
ag1641
ag751
ag871
ag962
ag640
ag641
ag677
ag26
ag1183
ag63
ag642
ag778
ag495
ag496
ag1447
ag185
aS'1096'
p1958
ag1894
ag1701
ag1019
ag944
aS'1158'
p1959
ag948
ag499
ag471
ag1702
aS'1251'
p1960
ag1703
ag950
ag335
ag474
ag1028
aS'1392'
p1961
aS'1415'
p1962
ag644
asS'242'
p1963
(lp1964
g976
ag1928
ag1744
aS'405'
p1965
ag921
ag1890
ag1779
ag1827
asS'615'
p1966
(lp1967
g888
ag1046
ag452
ag544
ag315
ag835
asS'249'
p1968
(lp1969
g976
ag959
ag633
ag1744
aS'365'
p1970
ag1454
ag254
ag1122
ag411
ag134
ag1498
ag1604
ag227
ag877
ag671
ag1458
ag1118
ag1460
aS'1264'
p1971
ag1461
ag1404
asS'248'
p1972
(lp1973
g976
ag1267
ag857
ag1104
ag307
ag633
ag991
aS'384'
p1974
ag993
ag353
ag509
aS'548'
p1975
ag200
ag438
ag315
ag999
ag729
ag1584
ag1379
ag1084
ag497
ag691
ag1108
aS'1180'
p1976
ag881
ag502
ag1828
ag217
asS'519'
p1977
(lp1978
g683
ag1492
ag1526
ag1335
ag932
ag774
ag1029
asS'518'
p1979
(lp1980
g683
ag1081
ag82
aS'525'
p1981
ag265
ag1155
asS'511'
p1982
(lp1983
S'137'
p1984
ag913
aS'300'
p1985
ag409
ag1467
ag368
ag751
ag1125
ag79
ag1468
ag19
asS'510'
p1986
(lp1987
g855
ag736
ag1935
ag1190
ag1127
asS'513'
p1988
(lp1989
g1984
ag1492
ag146
ag226
aS'1052'
p1990
asS'512'
p1991
(lp1992
g1984
ag449
ag592
ag264
ag1629
ag265
aS'671'
p1993
ag1224
aS'1396'
p1994
asS'515'
p1995
(lp1996
g856
ag449
ag1046
ag861
ag917
ag921
ag1015
ag1028
asS'514'
p1997
(lp1998
g1984
ag310
aS'492'
p1999
ag571
ag324
ag426
ag183
ag693
ag477
asS'517'
p2000
(lp2001
g1837
ag1876
ag385
ag1303
asS'516'
p2002
(lp2003
g856
ag982
ag524
ag1620
ag440
ag227
ag68
ag949
ag747
asS'623'
p2004
(lp2005
g1296
ag1076
ag1454
ag353
ag246
ag212
ag1346
ag120
ag679
asS'459'
p2006
(lp2007
g51
ag800
ag763
ag557
ag1622
ag96
ag1277
asS'621'
p2008
(lp2009
g1296
ag831
ag6
ag7
ag1411
asS'620'
p2010
(lp2011
g264
aS'457'
p2012
ag1176
ag266
ag1610
asS'627'
p2013
(lp2014
g518
ag294
ag87
ag899
ag918
ag367
aS'568'
p2015
ag1039
ag1506
ag781
asS'626'
p2016
(lp2017
g518
ag1189
aS'739'
p2018
aS'887'
p2019
aS'1345'
p2020
asS'625'
p2021
(lp2022
g518
ag365
ag872
ag369
ag1623
ag1206
asS'624'
p2023
(lp2024
g1087
ag548
ag1958
ag1591
asS'450'
p2025
(lp2026
g674
ag288
ag1356
ag1887
ag467
asS'451'
p2027
(lp2028
g1111
ag359
ag706
ag266
asS'452'
p2029
(lp2030
g1111
aS'383'
p2031
aS'387'
p2032
aS'447'
p2033
ag1676
ag111
ag226
ag106
ag96
ag413
ag414
asS'453'
p2034
(lp2035
g853
ag1133
ag1545
ag379
ag44
asS'454'
p2036
(lp2037
g853
ag103
ag1054
ag1668
aS'1127'
p2038
asS'455'
p2039
(lp2040
g322
ag796
ag634
ag671
ag1900
asS'456'
p2041
(lp2042
g322
ag323
ag1100
ag498
aS'1159'
p2043
ag373
asS'457'
p2044
(lp2045
g322
ag264
aS'1308'
p2046
asS'185'
p2047
(lp2048
g215
ag1335
ag1922
ag41
ag311
ag1269
ag296
ag766
ag1826
ag1609
ag1358
ag1291
ag303
ag239
ag217
ag476
asS'179'
p2049
(lp2050
g785
ag364
ag1330
ag649
ag233
asS'178'
p2051
(lp2052
g785
aS'63'
p2053
ag1167
ag96
ag301
asS'177'
p2054
(lp2055
g785
aS'294'
p2056
ag916
ag87
ag647
ag1205
ag161
ag1796
ag648
ag433
asS'176'
p2057
(lp2058
g785
ag903
ag480
aS'226'
p2059
ag561
ag1974
ag353
ag436
ag1214
ag1923
ag24
ag1222
ag1634
ag33
ag315
ag1001
ag924
ag740
ag493
ag1236
ag1701
ag1058
aS'1192'
p2060
ag1960
ag473
ag1470
ag1925
ag885
asS'175'
p2061
(lp2062
g785
ag1873
ag647
ag835
ag233
asS'174'
p2063
(lp2064
g785
ag924
ag1838
ag1413
ag1925
ag885
asS'173'
p2065
(lp2066
g785
ag1805
ag529
ag1873
aS'98'
p2067
ag632
ag543
ag518
ag480
ag224
ag1715
ag365
ag1801
ag989
ag653
ag5
ag436
ag918
ag1050
ag245
aS'528'
p2068
ag1676
ag1785
ag922
ag111
ag101
ag656
aS'689'
p2069
aS'701'
p2070
ag439
ag547
ag138
ag1351
ag64
ag1765
ag27
ag1125
aS'1018'
p2071
ag1716
ag247
ag281
aS'1204'
p2072
ag248
ag164
ag1806
ag432
ag304
ag1599
asS'172'
p2073
(lp2074
g785
ag87
ag1189
ag1215
ag999
aS'642'
p2075
ag595
ag2019
ag741
ag931
ag706
aS'1347'
p2076
ag113
asS'171'
p2077
(lp2078
g785
ag555
ag1947
ag224
ag1082
ag570
ag147
ag656
ag493
ag184
ag1700
ag1107
ag841
ag950
ag233
asS'170'
p2079
(lp2080
g785
ag297
ag1585
asS'656'
p2081
(lp2082
g308
ag1608
ag353
ag563
ag436
ag110
ag111
ag1637
ag183
ag1648
ag473
asS'657'
p2083
(lp2084
g308
ag409
ag1534
ag1590
ag1957
ag1008
ag318
aS'788'
p2085
ag1723
ag1084
ag881
ag1470
ag1880
asS'654'
p2086
(lp2087
g480
ag1985
ag1394
ag873
ag932
ag1290
asS'182'
p2088
(lp2089
S'35'
p2090
ag124
ag620
ag798
ag409
ag1860
ag634
ag804
ag134
ag1778
ag833
ag325
ag605
ag1971
ag951
ag1469
ag1757
ag1938
asS'183'
p2091
(lp2092
g1451
ag1140
ag1218
ag153
ag547
aS'873'
p2093
ag1901
ag1591
ag1115
asS'180'
p2094
(lp2095
g785
ag42
asS'181'
p2096
(lp2097
g785
aS'38'
p2098
ag553
ag756
ag1145
ag449
ag1492
ag985
ag1195
ag608
ag2031
ag383
ag862
ag488
ag995
ag1676
ag819
ag438
ag33
ag1163
ag1785
ag556
ag728
ag1002
ag1636
aS'679'
p2099
ag1083
ag833
ag765
ag547
ag1010
ag441
ag1011
ag1535
ag1434
ag226
ag1838
ag196
ag1839
ag1056
ag187
ag2038
ag469
aS'1132'
p2100
aS'1161'
p2101
ag539
ag1023
ag395
ag335
ag1061
ag18
ag283
asS'186'
p2102
(lp2103
S'37'
p2104
ag167
ag799
ag342
ag715
ag820
ag266
asS'187'
p2105
(lp2106
g2104
ag264
ag1911
ag17
asS'184'
p2107
(lp2108
g1451
ag483
aS'130'
p2109
aS'357'
p2110
ag1445
ag1853
ag1298
ag1005
ag1264
ag1345
ag937
ag142
ag1585
asS'598'
p2111
(lp2112
g505
ag55
ag829
ag1726
ag996
ag787
aS'738'
p2113
ag833
ag63
ag1523
ag643
ag1346
ag2100
ag120
ag1412
ag1373
asS'886'
p2114
(lp2115
g1620
ag104
asS'652'
p2116
(lp2117
g530
ag990
ag232
ag88
ag227
ag692
ag36
asS'188'
p2118
(lp2119
g2098
ag756
ag1215
ag1746
ag36
ag1130
asS'189'
p2120
(lp2121
g2098
ag825
ag855
ag485
ag392
ag111
ag656
ag511
ag1379
ag428
ag34
asS'658'
p2122
(lp2123
g347
ag1526
ag348
ag340
ag728
ag88
ag303
ag1405
asS'653'
p2124
(lp2125
g480
ag1970
ag1726
ag1498
ag1912
asS'650'
p2126
(lp2127
g908
ag1189
ag153
ag728
ag1716
asS'651'
p2128
(lp2129
g530
ag126
ag545
ag1753
ag820
ag1309
ag670
ag1100
ag1459
ag1067
ag36
asS'764'
p2130
(lp2131
g1970
aS'636'
p2132
ag821
ag1089
asS'11'
p2133
(lp2134
g1104
ag691
ag1567
ag1610
ag952
asS'10'
p2135
(lp2136
g1241
ag447
ag1538
ag277
ag993
ag1631
ag492
ag1264
ag943
ag809
asS'13'
p2137
(lp2138
S'2'
p2139
ag1145
ag1519
ag587
aS'1144'
p2140
ag120
ag1461
asS'12'
p2141
(lp2142
g2139
ag269
aS'211'
p2143
aS'258'
p2144
ag583
ag2033
ag1177
ag153
ag713
ag117
ag1178
ag547
ag148
ag1826
ag370
ag1179
aS'1051'
p2145
ag708
ag1088
ag1937
ag1422
asS'15'
p2146
(lp2147
g2139
ag959
ag1177
ag1000
ag227
ag648
asS'14'
p2148
(lp2149
g2139
ag974
ag517
aS'99'
p2150
ag1743
ag633
ag245
ag1222
ag537
ag33
ag111
ag1167
ag547
ag930
ag937
ag393
ag442
ag186
ag334
ag1567
ag1644
ag500
ag1413
ag1040
ag953
ag45
asS'17'
p2151
(lp2152
g1658
ag554
ag288
ag1377
ag997
ag111
ag1620
ag891
ag440
ag928
ag225
ag1773
ag949
ag18
ag894
asS'16'
p2153
(lp2154
g1658
ag1571
aS'30'
p2155
ag2090
ag976
ag902
ag1284
ag287
ag417
ag50
aS'87'
p2156
ag786
ag978
ag682
ag339
ag856
ag627
ag449
ag543
ag124
ag857
ag274
ag22
ag307
ag592
ag484
ag582
ag1070
ag480
ag633
ag450
ag1268
ag179
ag561
ag167
ag544
ag1985
ag1195
ag1198
ag828
ag1393
ag914
ag1285
aS'372'
p2157
ag760
ag993
ag1559
ag861
ag486
ag829
ag32
aS'443'
p2158
ag863
ag830
ag436
ag109
ag410
ag864
ag342
ag313
ag1269
ag1923
ag1478
ag200
ag1634
ag33
ag1158
ag458
ag1270
ag489
ag600
ag998
ag1001
ag1501
ag1636
ag256
ag296
ag1272
ag2018
ag343
ag195
ag547
ag767
ag1039
ag181
ag1009
ag1535
ag927
ag103
ag464
aS'848'
p2159
ag493
ag1287
ag930
ag1264
ag104
ag875
ag511
ag1877
ag1015
ag577
ag496
ag1276
ag1879
ag386
ag1416
ag465
ag943
ag1840
ag793
ag1184
ag1678
ag1891
ag281
ag1020
ag1278
ag947
ag1127
ag499
ag1702
ag248
ag1413
ag703
ag1024
ag1828
ag431
ag953
ag395
ag1704
ag1649
ag206
ag336
ag477
ag1029
ag373
asS'19'
p2160
(lp2161
g1658
ag974
ag347
ag455
ag1575
ag999
ag1135
ag169
ag1025
asS'18'
p2162
(lp2163
g1658
aS'31'
p2164
ag1873
ag633
ag986
ag1153
ag354
ag227
ag1127
ag1249
ag120
asS'863'
p2165
(lp2166
g1676
ag349
ag937
ag1684
ag1668
ag467
ag788
asS'862'
p2167
(lp2168
g726
ag24
ag922
ag492
ag216
ag1912
ag1190
ag473
ag1115
asS'865'
p2169
(lp2170
g265
ag266
asS'864'
p2171
(lp2172
g1633
ag2113
ag932
ag692
asS'867'
p2173
(lp2174
g24
ag1039
ag1677
ag212
ag284
ag1405
ag956
asS'866'
p2175
(lp2176
g173
aS'1048'
p2177
ag1806
ag36
asS'884'
p2178
(lp2179
g1235
ag1642
ag1236
ag16
ag780
ag1206
asS'659'
p2180
(lp2181
g1652
ag913
ag799
ag1659
ag1726
ag1025
ag1027
ag1599
ag1028
asS'883'
p2182
(lp2183
g870
ag1052
ag960
ag938
aS'1213'
p2184
ag19
asS'568'
p2185
(lp2186
g1852
ag915
aS'408'
p2187
ag1853
ag2075
ag302
asS'881'
p2188
(lp2189
g677
ag113
asS'880'
p2190
(lp2191
g728
aS'719'
p2192
ag720
aS'852'
p2193
ag15
asS'887'
p2194
(lp2195
g317
ag643
ag565
ag816
asS'831'
p2196
(lp2197
g737
ag867
ag778
ag495
aS'1072'
p2198
asS'885'
p2199
(lp2200
g594
ag1887
ag565
ag120
ag1422
asS'752'
p2201
(lp2202
g1112
ag556
aS'1065'
p2203
ag1406
asS'62'
p2204
(lp2205
S'10'
p2206
ag1243
ag1873
ag1140
ag480
ag450
ag384
ag111
ag60
ag924
ag739
ag1300
ag102
ag1401
ag106
ag1958
ag944
ag1780
aS'1381'
p2207
ag45
asS'888'
p2208
(lp2209
g491
ag1826
ag1379
aS'1086'
p2210
ag1834
asS'756'
p2211
(lp2212
g1608
ag1167
ag2192
ag372
asS'809'
p2213
(lp2214
g899
ag1215
ag225
ag1609
asS'322'
p2215
(lp2216
g529
aS'121'
p2217
ag1683
ag798
ag41
ag1860
ag1331
ag295
ag1778
ag815
ag643
ag1128
ag16
ag1468
ag810
ag1913
asS'323'
p2218
(lp2219
g529
ag688
ag826
ag854
ag484
ag913
ag968
ag243
ag863
ag153
ag315
ag1228
ag728
ag923
ag690
ag2070
ag368
ag343
ag714
ag1173
ag27
ag520
ag430
ag970
ag396
ag1663
asS'320'
p2220
(lp2221
g529
ag561
ag422
ag78
ag1960
asS'321'
p2222
(lp2223
g529
ag1433
ag750
ag57
ag1731
ag256
ag194
ag135
ag1897
ag495
ag69
aS'1244'
p2224
ag842
ag18
asS'326'
p2225
(lp2226
S'74'
p2227
ag1498
ag1016
ag2076
ag1680
asS'327'
p2228
(lp2229
g2227
ag1037
ag340
ag917
ag2099
ag1183
ag1018
ag2072
ag113
asS'324'
p2230
(lp2231
g529
ag922
ag111
ag1137
ag1834
ag233
asS'325'
p2232
(lp2233
g1297
aS'482'
p2234
ag898
ag1746
ag588
asS'328'
p2235
(lp2236
g2227
ag447
ag2069
ag616
ag720
ag2020
ag97
asS'329'
p2237
(lp2238
g125
ag1481
ag1981
ag1125
ag140
asS'562'
p2239
(lp2240
g25
ag1108
asS'201'
p2241
(lp2242
g390
ag391
ag1189
ag656
ag396
asS'200'
p2243
(lp2244
g390
ag1875
ag911
ag359
ag698
asS'203'
p2245
(lp2246
g390
ag633
ag419
ag2056
ag109
ag58
ag1975
ag437
ag867
ag378
ag216
ag875
ag511
ag1379
asS'202'
p2247
(lp2248
g390
ag2056
ag509
ag935
ag531
asS'205'
p2249
(lp2250
g966
ag888
ag689
ag1864
ag1053
ag1012
ag1468
asS'204'
p2251
(lp2252
g22
aS'202'
p2253
ag732
ag436
ag111
ag2192
ag714
ag1253
ag369
aS'911'
p2254
ag106
ag428
ag878
ag266
ag1306
ag780
asS'207'
p2255
(lp2256
g966
ag40
ag103
ag1644
asS'206'
p2257
(lp2258
g966
ag888
ag1071
ag925
ag1012
ag495
asS'209'
p2259
(lp2260
g1243
ag449
ag111
ag940
ag703
asS'208'
p2261
(lp2262
g1243
ag632
ag535
ag5
ag634
ag111
ag136
ag258
ag13
ag733
ag36
asS'779'
p2263
(lp2264
S'345'
p2265
ag1852
ag295
ag807
ag1523
ag1802
ag1142
asS'778'
p2266
(lp2267
g1475
ag1853
ag1785
ag1215
ag820
ag807
ag1645
asS'889'
p2268
(lp2269
g135
ag1356
ag872
ag1358
asS'77'
p2270
(lp2271
g1823
ag754
ag553
ag581
ag417
ag517
ag977
ag1267
ag449
ag827
ag1946
ag759
ag1268
ag178
ag179
ag1985
ag276
ag409
ag1559
ag331
ag762
ag1377
ag2068
ag995
ag153
ag58
ag1269
ag459
ag2099
ag1005
ag547
ag926
ag385
ag182
ag2193
ag1768
ag1395
ag577
ag779
ag706
ag1016
ag1057
ag442
ag466
ag1685
ag944
ag2100
ag1383
ag946
ag1976
ag841
ag248
ag1841
ag1026
ag1704
ag1649
ag2207
ag1961
ag885
ag566
asS'76'
p2272
(lp2273
g1043
ag553
ag1928
aS'132'
p2274
ag554
ag984
ag209
ag1628
ag276
ag828
ag608
ag100
ag800
ag436
ag410
ag762
ag995
ag1634
ag459
ag2099
ag1299
ag960
ag280
ag835
ag1011
ag332
ag1072
ag1434
ag1182
ag640
ag875
ag319
ag1877
ag576
ag1056
ag938
ag577
ag1017
ag1879
ag691
ag880
ag431
ag1026
ag773
ag1061
ag525
ag283
ag1994
asS'75'
p2275
(lp2276
g1043
ag535
ag56
ag128
ag916
ag58
ag835
ag138
ag1745
ag1841
ag884
ag284
asS'74'
p2277
(lp2278
g786
ag1044
ag1098
aS'112'
p2279
ag980
ag667
ag2144
ag252
ag323
ag1453
ag2110
ag1631
ag1504
ag1956
aS'527'
p2280
ag995
ag996
ag377
ag279
ag870
ag1083
ag1584
ag440
ag835
ag1013
ag1394
ag1054
ag937
ag1055
ag227
ag66
ag805
ag1879
ag1900
ag266
ag2100
ag247
ag1059
ag1959
ag882
ag2184
ag16
ag883
ag843
ag1470
ag283
ag233
ag1405
asS'73'
p2281
(lp2282
S'12'
p2283
ag978
ag628
ag1129
asS'72'
p2284
(lp2285
g2283
aS'67'
p2286
ag51
ag856
ag555
ag1324
ag1910
ag312
ag147
ag611
ag1504
ag1919
ag200
ag1638
ag1642
ag746
ag393
ag205
ag1894
ag1126
ag1277
aS'1173'
p2287
ag531
aS'1272'
p2288
ag1842
ag36
ag336
ag1029
asS'71'
p2289
(lp2290
g2283
ag903
ag1693
ag961
ag928
ag932
ag937
ag502
ag170
ag443
asS'70'
p2291
(lp2292
g2283
ag517
ag2217
ag1047
ag864
ag996
ag1034
ag1505
ag1469
asS'655'
p2293
(lp2294
g480
ag1947
aS'274'
p2295
ag653
ag1050
ag726
ag656
ag1720
ag248
asS'79'
p2296
(lp2297
g1823
ag696
ag1006
aS'953'
p2298
ag1765
ag1839
ag520
ag945
ag789
ag476
asS'78'
p2299
(lp2300
g1823
ag1450
ag1675
ag124
ag323
ag129
ag562
ag1519
ag1595
ag1911
ag1912
ag154
ag572
ag780
ag1747
asS'2'
p2301
(lp2302
g11
ag1163
ag657
ag961
ag1276
ag233
asS'805'
p2303
(lp2304
g1659
ag32
ag1189
ag726
ag616
asS'804'
p2305
(lp2306
g1122
ag173
ag1051
ag720
asS'669'
p2307
(lp2308
g419
ag359
ag366
ag787
ag1912
ag1114
ag1403
asS'668'
p2309
(lp2310
g419
ag1121
ag1453
ag1910
ag918
ag819
ag111
ag869
ag296
ag134
ag961
ag945
ag1411
asS'667'
p2311
(lp2312
g1433
ag1344
ag890
ag60
ag67
ag239
asS'666'
p2313
(lp2314
g633
ag331
ag1378
ag1535
ag837
ag205
ag1118
asS'665'
p2315
(lp2316
g2059
ag860
ag13
ag805
ag1483
ag1089
asS'664'
p2317
(lp2318
g2059
ag1025
ag774
ag36
asS'663'
p2319
(lp2320
g569
ag1666
ag1170
ag1001
aS'854'
p2321
ag1358
ag1646
asS'662'
p2322
(lp2323
g981
ag667
ag1831
ag998
ag1007
asS'661'
p2324
(lp2325
g535
ag2158
ag1023
ag502
asS'660'
p2326
(lp2327
g1652
ag652
ag2158
ag109
ag881
ag1994
asS'769'
p2328
(lp2329
g1509
ag1176
ag1595
ag1099
ag816
aS'1358'
p2330
asS'692'
p2331
(lp2332
g912
ag561
ag916
ag109
ag867
ag378
ag1306
ag879
asS'693'
p2333
(lp2334
g912
ag161
ag549
ag1347
ag1435
asS'690'
p2335
(lp2336
g1247
ag708
ag233
ag1206
ag644
asS'691'
p2337
(lp2338
g912
ag1302
ag1060
ag1925
asS'696'
p2339
(lp2340
g1032
ag1445
ag1935
ag925
ag511
ag1229
asS'697'
p2341
(lp2342
g1071
ag1021
ag1747
asS'694'
p2343
(lp2344
g1698
ag875
ag27
asS'695'
p2345
(lp2346
g451
ag13
aS'1026'
p2347
ag1406
asS'698'
p2348
(lp2349
g599
ag1082
ag314
ag317
ag1642
asS'699'
p2350
(lp2351
g967
ag452
ag1014
ag1184
asS'542'
p2352
(lp2353
g449
ag128
ag132
ag1170
ag556
ag804
ag134
ag1911
ag658
ag64
ag1416
ag643
ag1108
ag141
ag1592
asS'543'
p2354
(lp2355
g449
ag100
ag1001
ag2018
ag511
asS'540'
p2356
(lp2357
g449
ag102
ag2100
ag188
asS'541'
p2358
(lp2359
g449
ag985
ag408
ag366
ag1698
ag1271
ag460
ag769
ag937
ag186
ag841
ag248
ag1704
ag893
asS'546'
p2360
(lp2361
g449
ag1697
ag1256
ag13
ag404
ag1388
ag465
ag2101
ag949
ag1027
ag373
asS'547'
p2362
(lp2363
g449
ag1124
ag1877
ag1990
ag2203
ag948
asS'544'
p2364
(lp2365
g449
ag365
ag989
ag1583
ag739
asS'545'
p2366
(lp2367
g449
ag1245
ag42
ag647
ag1248
ag649
ag1250
asS'8'
p2368
(lp2369
g1241
ag1425
ag904
ag2067
ag543
ag365
ag1330
ag486
ag1545
ag1247
ag1205
ag920
ag354
ag1884
ag2085
ag1009
ag1387
ag700
ag355
ag1190
ag1796
ag15
ag940
aS'1084'
p2370
ag405
ag371
ag708
ag372
aS'1273'
p2371
ag952
ag2076
ag1585
ag1250
asS'548'
p2372
(lp2373
g543
ag732
ag1124
ag384
ag960
ag7
ag934
ag405
ag2072
ag248
ag883
ag476
asS'549'
p2374
(lp2375
g543
ag161
ag1253
asS'68'
p2376
(lp2377
S'11'
p2378
ag1985
ag456
aS'559'
p2379
ag33
ag1264
ag139
ag1190
ag937
ag1560
ag648
ag371
ag2371
ag884
asS'869'
p2380
(lp2381
g792
ag676
ag7
ag259
ag205
ag2060
aS'1352'
p2382
asS'868'
p2383
(lp2384
g1529
ag1497
ag700
aS'1139'
p2385
ag249
ag476
asS'120'
p2386
(lp2387
g1242
ag2187
ag1223
aS'634'
p2388
ag1906
ag1365
asS'121'
p2389
(lp2390
g1242
ag6
ag1275
ag7
ag1248
ag708
ag113
asS'122'
p2391
(lp2392
g1392
ag273
ag1227
ag340
ag634
ag111
ag933
ag2071
ag96
ag1598
ag1088
ag170
aS'1401'
p2393
ag1880
asS'123'
p2394
(lp2395
g975
ag399
ag1297
ag1731
ag685
ag395
ag18
asS'124'
p2396
(lp2397
g975
ag835
ag13
ag1290
ag281
ag883
asS'125'
p2398
(lp2399
g975
aS'61'
p2400
ag1037
ag423
ag1003
ag368
ag2330
asS'126'
p2401
(lp2402
g975
ag825
ag903
ag418
ag264
ag907
ag908
ag1152
ag983
ag1297
ag1064
ag32
ag366
ag916
ag1376
ag1698
ag200
ag1633
ag25
ag377
ag1635
ag1753
ag923
ag316
ag425
ag368
ag1154
ag439
ag385
ag720
ag838
ag1309
ag511
ag935
ag936
ag779
ag400
ag350
ag266
ag1108
ag430
ag501
ag1591
ag1610
ag1026
ag175
ag335
ag970
ag432
ag954
ag233
ag1577
asS'127'
p2403
(lp2404
g1566
ag2295
ag915
ag1956
ag173
ag835
ag937
asS'128'
p2405
(lp2406
g1566
ag2279
ag410
ag741
ag96
asS'129'
p2407
(lp2408
g1566
ag785
ag519
ag100
ag110
ag424
ag547
ag648
ag945
asS'765'
p2409
(lp2410
g1049
ag804
ag1358
asS'259'
p2411
(lp2412
g111
ag1595
ag369
ag260
ag96
ag476
asS'414'
p2413
(lp2414
g1188
ag857
ag307
ag1268
ag1666
ag828
ag2187
ag916
ag421
ag1050
ag546
ag258
ag260
ag1878
ag1621
ag1019
ag1020
ag1976
ag2184
ag477
asS'415'
p2415
(lp2416
g1188
ag1064
ag1631
ag367
ag726
ag1753
ag297
ag547
ag1796
ag1677
ag1506
asS'416'
p2417
(lp2418
g2067
ag2059
ag864
ag918
ag509
ag819
ag438
ag490
ag962
ag2298
ag937
ag44
ag945
ag2060
ag844
asS'417'
p2419
(lp2420
g2067
ag348
ag6
ag1022
ag2020
asS'410'
p2421
(lp2422
g293
ag2032
ag1467
ag2015
ag226
asS'411'
p2423
(lp2424
g293
ag1111
ag294
ag2031
ag2032
ag1545
ag2015
ag1235
ag6
ag1778
ag203
ag1604
ag1839
ag469
ag233
asS'412'
p2425
(lp2426
g293
ag1714
ag1445
ag1545
ag872
ag1136
ag1849
ag303
ag1806
ag304
ag476
asS'413'
p2427
(lp2428
g293
ag1259
ag867
ag1622
ag946
ag395
ag1962
asS'498'
p2429
(lp2430
g2274
ag124
ag1875
ag410
ag2379
ag924
ag440
ag379
ag2101
ag2288
ag955
asS'418'
p2431
(lp2432
g696
ag1984
aS'162'
p2433
ag1970
ag359
ag1852
ag153
ag1319
ag741
ag1780
ag2076
ag2207
asS'419'
p2434
(lp2435
g2150
ag22
aS'649'
p2436
ag1421
asS'776'
p2437
(lp2438
g215
ag5
ag89
ag1125
ag1405
asS'499'
p2439
(lp2440
g854
ag560
ag1070
ag247
ag660
asS'319'
p2441
(lp2442
g756
ag52
ag1699
ag227
ag550
ag1622
ag771
ag206
ag1438
asS'318'
p2443
(lp2444
g1368
ag2144
ag584
ag392
ag1123
ag803
ag1026
asS'313'
p2445
(lp2446
g851
ag2265
ag2032
ag726
ag1545
ag787
ag1235
ag138
ag700
asS'312'
p2447
(lp2448
g851
ag450
ag1393
ag2032
ag1467
ag1519
ag924
ag2113
ag138
ag1276
ag96
ag692
ag476
asS'311'
p2449
(lp2450
g483
ag1941
ag23
ag1608
ag828
ag2187
ag315
ag1861
asS'310'
p2451
(lp2452
g1428
ag599
ag1539
ag1270
ag676
ag1648
ag894
asS'317'
p2453
(lp2454
g1805
ag1145
ag1941
ag1445
ag889
ag317
ag2321
ag2254
ag1136
ag497
ag1609
ag1959
ag1646
ag17
ag2330
asS'316'
p2455
(lp2456
g1805
ag904
ag1392
ag347
ag1318
ag365
ag340
ag1501
ag6
ag13
ag1446
ag2071
ag96
ag1219
asS'315'
p2457
(lp2458
g1928
ag991
ag865
ag1636
ag884
ag1880
asS'314'
p2459
(lp2460
g851
ag529
ag1909
ag1330
ag699
ag6
ag548
ag404
ag94
ag939
ag1679
asS'861'
p2461
(lp2462
g604
ag1167
ag1039
ag282
ag789
asS'496'
p2463
(lp2464
g1105
ag511
ag934
asS'832'
p2465
(lp2466
g653
ag787
ag1529
ag205
ag372
ag2224
ag2076
asS'833'
p2467
(lp2468
S'462'
p2469
ag1001
ag1235
ag1065
ag139
ag1765
ag261
ag1894
ag1027
ag19
ag1962
asS'830'
p2470
(lp2471
g761
ag604
ag1223
ag1182
ag1906
ag465
ag2287
ag336
asS'497'
p2472
(lp2473
g2274
aS'159'
p2474
ag1874
ag376
ag1946
ag1652
ag1048
ag1478
ag1370
ag1173
ag2385
ag1088
ag566
ag45
asS'836'
p2475
(lp2476
g813
ag456
ag1590
ag998
ag1635
ag1723
ag96
ag1976
ag16
ag885
asS'837'
p2477
(lp2478
g488
ag296
ag1154
ag201
ag103
ag1264
asS'834'
p2479
(lp2480
g130
ag2132
ag1621
ag2145
ag588
ag513
asS'835'
p2481
(lp2482
g718
ag1860
ag384
ag2132
ag227
asS'838'
p2483
(lp2484
g1726
ag789
ag303
ag1303
asS'839'
p2485
(lp2486
g2234
ag1189
ag1039
ag462
ag404
ag1018
ag1958
ag500
ag843
asS'808'
p2487
(lp2488
g2187
ag154
ag120
ag605
ag883
asS'3'
p2489
(lp2490
g11
ag41
ag2280
ag509
ag490
ag181
ag1416
ag2382
asS'725'
p2491
(lp2492
g2056
ag760
ag342
ag2280
ag63
ag1585
asS'368'
p2493
(lp2494
g2279
ag729
ag2085
ag706
ag809
asS'369'
p2495
(lp2496
g903
ag1354
ag1141
ag872
ag1264
ag746
ag934
ag1643
asS'366'
p2497
(lp2498
g1873
ag852
ag979
aS'231'
p2499
ag523
ag913
ag1047
ag231
ag178
ag1666
ag1583
ag255
ag712
ag611
ag922
ag690
ag802
ag135
ag385
ag13
ag2193
ag1320
ag104
ag1796
ag938
ag2287
ag948
ag1249
ag1435
ag302
ag1505
ag629
ag1303
ag1028
ag373
asS'367'
p2500
(lp2501
g1873
ag1929
ag236
ag511
ag1248
asS'364'
p2502
(lp2503
g2156
ag903
ag542
ag339
ag2253
ag608
ag392
ag737
ag547
ag1015
ag779
ag793
ag300
ag1842
asS'365'
p2504
(lp2505
g1873
ag40
ag1350
ag549
ag1891
asS'362'
p2506
(lp2507
g2156
ag820
ag576
ag839
ag951
ag525
asS'363'
p2508
(lp2509
g2156
ag255
ag456
ag13
ag1388
ag2038
ag1644
ag2207
asS'360'
p2510
(lp2511
g1037
ag991
ag1327
ag1412
asS'361'
p2512
(lp2513
g330
ag2379
ag1355
ag621
ag1760
ag1357
asS'882'
p2514
(lp2515
g1637
ag181
ag1379
ag1108
asS'380'
p2516
(lp2517
g903
ag570
ag1218
ag593
ag1668
ag120
asS'381'
p2518
(lp2519
g903
ag904
ag632
ag1133
ag1497
ag1813
asS'382'
p2520
(lp2521
g903
ag564
ag1008
ag937
asS'383'
p2522
(lp2523
g486
ag42
ag161
ag656
ag699
ag6
ag1884
ag2085
ag1248
ag648
ag405
ag233
ag433
asS'384'
p2524
(lp2525
g542
ag231
ag1876
ag410
ag343
ag1877
ag778
ag970
asS'385'
p2526
(lp2527
g1153
ag2012
ag594
ag281
ag120
asS'386'
p2528
(lp2529
g517
aS'716'
p2530
ag201
ag1345
ag1949
asS'387'
p2531
(lp2532
g517
ag1033
ag1981
aS'773'
p2533
ag808
asS'388'
p2534
(lp2535
g517
ag392
ag1481
ag1981
ag2533
ag1482
ag605
asS'389'
p2536
(lp2537
g517
ag33
ag226
ag659
ag1838
ag2038
asS'784'
p2538
(lp2539
g1629
ag653
ag720
ag1849
asS'785'
p2540
(lp2541
g1285
ag366
ag1697
ag281
ag1842
asS'786'
p2542
(lp2543
g366
ag779
asS'787'
p2544
(lp2545
g1526
ag1640
ag741
ag706
asS'780'
p2546
(lp2547
g733
ag1548
ag1680
asS'781'
p2548
(lp2549
g243
ag1453
ag563
ag491
ag2093
ag648
ag1341
ag155
ag1937
ag36
asS'782'
p2550
(lp2551
g1344
ag2015
ag67
ag70
asS'783'
p2552
(lp2553
g507
ag127
ag132
ag1301
ag333
ag808
asS'788'
p2554
(lp2555
g1970
ag1737
ag1853
ag728
ag706
asS'789'
p2556
(lp2557
g1454
ag803
ag1148
ag36
asS'860'
p2558
(lp2559
g57
ag1001
ag740
ag1185
asS'151'
p2560
(lp2561
g1608
ag989
ag1456
ag62
ag807
ag1107
ag248
asS'579'
p2562
(lp2563
g757
ag1082
ag203
ag1302
ag937
ag188
ag474
asS'578'
p2564
(lp2565
g22
ag340
ag153
ag1163
ag1147
ag2254
ag400
ag1925
asS'604'
p2566
(lp2567
g1368
ag455
ag201
asS'573'
p2568
(lp2569
g827
ag2143
ag638
ag799
ag767
ag431
asS'572'
p2570
(lp2571
g969
ag255
ag1552
ag1548
ag477
ag45
asS'571'
p2572
(lp2573
g2433
ag358
ag1319
ag1916
ag510
ag212
ag1199
ag248
asS'570'
p2574
(lp2575
g2433
ag667
ag359
ag698
ag1999
ag6
ag1141
ag106
ag96
ag1849
asS'577'
p2576
(lp2577
g22
ag243
ag726
ag1545
ag741
ag788
asS'576'
p2578
(lp2579
g22
ag340
ag1556
ag2033
ag211
ag349
ag6
ag440
ag1912
ag203
ag933
ag770
ag1716
ag1598
ag780
ag1971
ag883
ag170
ag693
ag2076
ag1740
ag1405
asS'575'
p2580
(lp2581
g22
ag1526
aS'432'
p2582
ag255
ag111
ag6
ag88
asS'574'
p2583
(lp2584
g23
ag288
ag1001
ag194
ag659
ag934
ag1704
asS'60'
p2585
(lp2586
g2206
ag2155
ag339
ag667
ag1330
ag1629
ag2012
ag1575
ag200
ag2015
ag490
ag60
ag257
ag168
ag1300
ag1522
ag1065
ag139
ag1034
ag1668
ag1365
ag206
asS'61'
p2587
(lp2588
g2206
ag1690
ag916
ag732
ag26
ag64
ag18
asS'258'
p2589
(lp2590
g959
ag583
ag127
ag56
ag718
ag1999
ag342
ag2379
ag461
ag1756
ag227
ag587
ag2145
aS'1111'
p2591
ag1060
ag1913
asS'63'
p2592
(lp2593
g2206
ag1737
ag647
ag161
ag1052
ag648
ag944
asS'64'
p2594
(lp2595
g2378
ag1318
ag86
ag1133
ag1522
asS'65'
p2596
(lp2597
g2378
ag347
ag348
ag1039
ag1190
ag248
asS'66'
p2598
(lp2599
g2378
ag688
ag1392
ag1909
ag1475
ag653
ag899
ag1189
ag727
ag713
ag924
ag1529
ag203
ag1604
ag941
ag266
ag247
ag708
asS'67'
p2600
(lp2601
g2378
ag2067
ag2150
ag2279
ag242
ag1526
ag1970
ag2582
ag1737
ag153
ag728
ag6
ag1497
ag1498
ag720
ag2019
ag1320
ag931
ag1229
ag706
ag2072
ag788
ag781
asS'252'
p2602
(lp2603
g902
ag517
ag179
ag244
ag1163
ag90
ag937
ag2177
ag2288
asS'69'
p2604
(lp2605
g785
ag48
ag1045
ag1534
ag233
asS'250'
p2606
(lp2607
g976
ag1873
ag4
ag1883
ag691
ag249
asS'251'
p2608
(lp2609
g976
ag2143
ag455
ag1768
ag1469
asS'256'
p2610
(lp2611
g959
ag853
ag423
ag279
ag343
ag929
ag873
ag1302
ag185
ag1107
ag266
ag1232
asS'257'
p2612
(lp2613
g959
ag1455
ag1394
ag227
asS'254'
p2614
(lp2615
g959
ag1284
ag1455
ag1935
ag1456
ag1719
ag154
ag2210
ag1617
ag1460
ag1462
asS'255'
p2616
(lp2617
g959
ag2469
ag295
ag621
ag803
ag1778
ag1779
ag1125
asS'603'
p2618
(lp2619
g179
ag1076
ag561
ag1409
ag365
ag1556
ag353
ag147
ag1639
ag493
ag183
ag1906
ag885
ag1994
asS'602'
p2620
(lp2621
g1883
ag1227
ag728
ag923
ag1009
ag464
ag1264
ag494
ag805
ag186
ag1894
ag394
asS'731'
p2622
(lp2623
g1038
ag2157
ag1033
ag698
ag1853
ag792
ag699
ag6
ag162
ag227
ag106
ag939
ag2071
ag96
ag281
ag1421
ag1022
ag1780
ag1679
asS'730'
p2624
(lp2625
g1001
ag873
ag1577
asS'733'
p2626
(lp2627
g1985
ag923
ag424
ag1327
ag186
asS'732'
p2628
(lp2629
g193
ag862
ag421
ag1072
ag820
ag873
ag1184
ag624
asS'735'
p2630
(lp2631
g1985
ag1205
ag699
ag2192
ag1332
ag706
ag940
ag879
ag1232
ag473
ag113
asS'734'
p2632
(lp2633
g1985
ag41
ag563
ag1039
asS'508'
p2634
(lp2635
g855
ag242
ag653
ag511
ag933
ag36
asS'509'
p2636
(lp2637
g855
ag376
ag54
ag192
ag243
ag87
ag349
ag424
ag1007
ag547
ag746
ag1906
ag35
ag1834
ag1702
ag841
ag248
ag2207
ag1994
ag679
ag45
asS'506'
p2638
(lp2639
g1613
ag653
ag384
ag1051
ag462
ag102
ag1072
ag1236
ag578
ag28
ag372
ag414
asS'507'
p2640
(lp2641
g1613
ag2469
ag463
ag227
asS'504'
p2642
(lp2643
g854
ag264
ag910
ag361
ag838
ag511
ag934
ag1106
ag1402
ag266
ag413
ag175
ag1093
ag954
asS'505'
p2644
(lp2645
g52
ag995
ag739
ag875
ag775
asS'502'
p2646
(lp2647
g854
ag543
ag997
ag265
ag149
asS'503'
p2648
(lp2649
g854
ag1245
ag231
ag130
ag1585
asS'500'
p2650
(lp2651
g854
ag310
ag732
ag711
ag714
ag943
ag947
ag955
asS'501'
p2652
(lp2653
g854
ag667
ag1399
ag564
ag1106
asS'630'
p2654
(lp2655
g1714
ag2234
ag297
ag13
ag1841
ag893
asS'631'
p2656
(lp2657
g364
ag649
ag788
aS'1343'
p2658
asS'632'
p2659
(lp2660
g1551
ag1662
ag265
ag296
ag343
ag715
ag1576
ag149
ag1609
ag473
ag1663
asS'633'
p2661
(lp2662
g191
ag1453
ag1974
ag340
ag1552
ag1113
ag920
ag384
ag1301
ag27
ag1200
ag113
asS'469'
p2663
(lp2664
g51
ag1452
ag104
ag65
ag1395
ag266
ag501
ag2224
ag289
asS'468'
p2665
(lp2666
g51
ag288
ag1638
ag1641
asS'636'
p2667
(lp2668
g912
ag1281
ag2132
ag1639
ag248
ag1405
ag1577
asS'637'
p2669
(lp2670
g1683
ag323
ag2157
ag232
ag93
ag118
ag2658
asS'465'
p2671
(lp2672
g51
ag1433
ag194
ag595
ag1362
ag1704
asS'464'
p2673
(lp2674
g51
ag712
ag595
ag67
ag71
asS'467'
p2675
(lp2676
g51
ag968
ag288
ag128
ag57
ag669
ag1362
asS'466'
p2677
(lp2678
g51
ag910
ag1017
ag1277
ag1828
asS'461'
p2679
(lp2680
g51
ag797
ag312
ag110
ag102
ag624
ag72
asS'460'
p2681
(lp2682
g51
ag2217
ag1071
ag764
ag62
asS'463'
p2683
(lp2684
g51
ag969
ag312
ag1344
ag425
ag835
ag68
asS'462'
p2685
(lp2686
g51
ag52
ag591
ag592
ag1583
ag1662
ag161
ag835
ag1209
ag771
ag68
ag71
asS'168'
p2687
(lp2688
g1441
ag903
ag266
asS'169'
p2689
(lp2690
g1382
ag436
ag1853
ag1552
ag547
ag162
ag511
ag227
ag939
ag96
ag266
ag233
asS'164'
p2691
(lp2692
g902
ag307
ag980
ag909
ag987
ag738
ag332
ag149
ag1015
ag66
ag1958
asS'165'
p2693
(lp2694
g1441
ag2059
ag858
ag1930
ag1509
ag1475
ag898
ag726
ag489
ag134
ag13
ag1826
ag873
ag512
ag227
ag671
ag1716
ag36
ag1585
ag150
asS'166'
p2695
(lp2696
g1441
ag683
ag82
ag323
ag1481
ag604
ag605
asS'167'
p2697
(lp2698
g1441
ag292
ag851
ag904
ag1874
ag242
ag480
ag308
ag2295
ag1715
ag1801
ag340
ag436
ag1552
ag1676
ag1319
ag1785
ag922
ag1298
ag728
ag101
ag1529
ag6
ag925
ag547
ag1253
ag404
ag511
ag1321
ag1015
ag939
ag1016
ag1716
ag1678
ag281
ag2287
ag1645
ag1572
ag1720
ag1422
ag1404
ag1568
ag1115
ag2393
ag566
asS'160'
p2699
(lp2700
g2164
ag785
ag22
ag1714
ag1947
ag330
ag1526
ag5
ag1177
ag1189
ag1545
ag1501
ag2070
ag6
ag1890
ag246
ag706
ag1388
ag941
ag692
ag2020
ag97
ag475
asS'161'
p2701
(lp2702
g2098
ag75
ag829
ag194
ag1327
ag511
asS'162'
p2703
(lp2704
g755
ag124
ag505
ag506
ag983
ag1452
ag561
ag340
ag1377
ag57
ag1273
ag1299
ag1300
ag2254
ag105
ag2370
ag1644
ag882
ag1060
ag775
asS'163'
p2705
(lp2706
g755
ag2227
ag31
ag1613
ag181
ag1535
ag927
ag13
ag873
ag892
ag1668
ag465
ag96
ag945
ag1040
asS'600'
p2707
(lp2708
S'184'
p2709
ag167
ag1559
ag916
ag385
ag324
ag1961
asS'878'
p2710
(lp2711
g1369
ag621
ag805
ag1149
asS'879'
p2712
(lp2713
g133
ag2075
ag929
ag701
ag473
ag477
asS'876'
p2714
(lp2715
g1731
ag96
ag679
asS'877'
p2716
(lp2717
g1731
ag1693
ag139
ag497
ag1291
asS'874'
p2718
(lp2719
g1259
ag1637
ag2018
ag1560
ag1684
asS'875'
p2720
(lp2721
g361
ag194
ag258
ag1185
ag1027
asS'872'
p2722
(lp2723
g1315
ag1796
ag496
ag1647
ag372
ag780
ag2330
asS'873'
p2724
(lp2725
g77
ag427
ag937
ag1834
asS'870'
p2726
(lp2727
g921
ag83
ag1959
ag531
asS'871'
p2728
(lp2729
g1831
ag1007
ag1704
ag1303
asS'9'
p2730
(lp2731
g1241
ag7
ag1802
ag1925
asS'890'
p2732
(lp2733
g1275
ag2113
ag2177
ag96
ag1411
asS'891'
p2734
(lp2735
g873
ag1760
ag1379
asS'892'
p2736
(lp2737
g136
ag1114
ag1700
ag1066
ag808
ag612
asS'893'
p2738
(lp2739
g1299
ag1446
ag2177
ag707
ag150
asS'894'
p2740
(lp2741
g258
ag835
ag836
ag1838
ag1185
ag747
asS'647'
p2742
(lp2743
g907
ag1176
ag1106
ag942
asS'896'
p2744
(lp2745
g1700
ag1184
ag474
asS'897'
p2746
(lp2747
S'966'
p2748
ag1839
ag1716
ag120
ag1373
ag613
asS'898'
p2749
(lp2750
g1796
ag2198
ag96
ag1421
ag302
ag2393
asS'899'
p2751
(lp2752
g664
ag624
asS'646'
p2753
(lp2754
g667
asS'649'
p2755
(lp2756
S'0'
p2757
asS'648'
p2758
(lp2759
g799
ag295
ag400
ag722
ag470
ag1901
asS'357'
p2760
(lp2761
g49
ag591
ag1081
ag57
ag194
asS'356'
p2762
(lp2763
S'83'
p2764
ag1098
ag916
ag655
ag266
ag1610
ag175
ag19
asS'355'
p2765
(lp2766
g2764
ag619
ag797
ag1860
ag585
ag1545
ag1653
ag227
ag1073
asS'354'
p2767
(lp2768
g2764
ag1145
ag322
ag1744
ag220
ag1934
ag2388
ag317
ag1756
ag780
ag1937
ag36
ag1938
asS'353'
p2769
(lp2770
g2764
ag1178
ag719
ag212
ag221
ag622
asS'352'
p2771
(lp2772
g2764
ag2144
aS'474'
p2773
ag1595
ag1229
ag648
ag1129
asS'351'
p2774
(lp2775
g116
ag1683
ag130
ag2347
ag2591
ag2043
asS'350'
p2776
(lp2777
g116
ag736
ag1123
ag317
ag36
asS'803'
p2778
(lp2779
g340
ag1177
ag922
ag1595
ag1003
ag8
ag266
ag1506
asS'802'
p2780
(lp2781
g993
ag437
ag787
ag1008
asS'801'
p2782
(lp2783
g2031
ag2032
ag2015
ag924
ag349
ag1141
ag106
ag96
asS'800'
p2784
(lp2785
g545
ag1975
ag765
ag1700
ag433
asS'807'
p2786
(lp2787
g265
ag2140
ag120
ag1462
asS'806'
p2788
(lp2789
g1965
ag1456
ag1719
ag427
ag1017
ag326
ag1026
asS'359'
p2790
(lp2791
g1037
ag1493
ag1638
ag2210
asS'358'
p2792
(lp2793
g50
ag1048
ag409
ag1009
ag62
ag1026
asS'216'
p2794
(lp2795
S'42'
p2796
ag2279
ag1318
ag1999
ag1676
ag701
ag1125
ag350
ag1599
asS'217'
p2797
(lp2798
g824
ag358
ag2709
ag829
ag1189
ag546
ag832
ag426
ag404
ag1183
ag260
ag494
ag1137
ag1108
ag1703
ag335
asS'214'
p2799
(lp2800
g2796
ag1244
ag1245
ag647
ag187
ag949
ag473
asS'215'
p2801
(lp2802
g2796
ag855
ag2033
ag1590
ag1336
ag334
ag788
ag781
asS'212'
p2803
(lp2804
g2796
ag1910
ag1153
ag1054
ag336
asS'213'
p2805
(lp2806
g2796
ag124
ag1861
ag1971
asS'210'
p2807
(lp2808
g1243
ag1433
ag275
ag712
ag200
ag1667
ag1637
ag1993
asS'211'
p2809
(lp2810
g1243
ag1425
ag543
ag22
ag2253
ag1198
ag726
ag792
ag2085
ag1990
ag237
ag1685
ag703
ag2288
ag525
asS'762'
p2811
(lp2812
g584
ag1933
ag586
ag587
ag588
asS'763'
p2813
(lp2814
g1330
ag726
ag1640
ag700
ag788
asS'760'
p2815
(lp2816
g365
ag487
ag2068
ag1498
ag1253
ag2193
ag266
ag1040
asS'761'
p2817
(lp2818
g365
ag764
ag1182
ag816
asS'766'
p2819
(lp2820
g192
ag1864
ag1567
ag2382
ag679
asS'767'
p2821
(lp2822
g761
ag1919
ag457
ag1013
ag872
asS'218'
p2823
(lp2824
g824
ag1244
ag449
ag255
ag1662
ag1535
ag7
ag15
ag1093
asS'219'
p2825
(lp2826
S'44'
p2827
ag517
ag210
ag993
ag383
ag368
ag1584
ag928
ag105
ag1015
ag1084
ag1568
asS'289'
p2828
(lp2829
g2053
ag449
ag358
ag980
ag1246
ag486
aS'413'
p2830
ag42
ag1552
ag1247
ag2085
ag814
ag1387
ag369
ag937
ag706
ag1248
ag648
ag350
ag281
ag233
ag433
ag373
asS'288'
p2831
(lp2832
g2053
ag2068
ag706
ag2072
ag1404
asS'4'
p2833
(lp2834
g1043
ag888
ag982
ag799
ag128
ag760
ag992
ag100
ag611
ag2015
ag1222
ag765
ag746
ag557
ag892
ag35
ag1020
ag429
ag1745
ag880
ag893
ag678
ag143
ag414
asS'281'
p2835
(lp2836
g2400
ag293
ag124
ag2157
ag545
ag890
ag870
ag257
ag280
ag1535
ag104
ag1055
asS'280'
p2837
(lp2838
g2400
ag1161
ag51
ag2109
ag888
ag620
ag914
ag1335
ag992
ag200
ag490
ag1993
ag595
ag300
ag842
asS'283'
p2839
(lp2840
g598
ag633
ag599
ag128
ag863
ag924
ag141
asS'282'
p2841
(lp2842
g2400
ag1985
ag1335
ag100
asS'285'
p2843
(lp2844
g449
ag1038
ag173
ag1802
asS'284'
p2845
(lp2846
g598
ag1256
ag93
ag1012
ag775
asS'287'
p2847
(lp2848
g2053
ag1941
ag634
ag1636
ag926
ag837
ag930
ag1701
ag334
ag1020
ag780
ag248
asS'286'
p2849
(lp2850
g2053
ag1981
ag2533
ag1482
ag1358
asS'678'
p2851
(lp2852
g1081
ag1038
ag1395
ag1668
asS'679'
p2853
(lp2854
g911
ag968
ag109
ag421
ag1281
ag866
ag43
ag1637
ag194
ag368
ag460
ag1356
ag1209
ag1877
ag465
ag266
ag1020
ag499
ag1644
ag430
ag477
asS'674'
p2855
(lp2856
g1227
ag153
ag1281
ag24
ag546
asS'675'
p2857
(lp2858
S'237'
p2859
ag861
ag244
ag593
ag1575
ag180
ag2298
ag227
asS'676'
p2860
(lp2861
g2859
ag100
ag1222
ag1100
ag1960
ag885
asS'677'
p2862
(lp2863
g2859
ag1214
ag367
ag379
ag473
asS'670'
p2864
(lp2865
g2499
ag315
ag739
ag1561
asS'671'
p2866
(lp2867
g2499
ag989
ag361
ag491
ag804
ag1699
ag2748
ag205
ag613
asS'672'
p2868
(lp2869
g759
ag2280
ag1259
ag1732
ag6
ag1302
asS'673'
p2870
(lp2871
g1152
ag725
ag441
ag572
ag474
asS'263'
p2872
(lp2873
S'55'
p2874
ag1161
ag903
ag745
ag1071
ag395
asS'262'
p2875
(lp2876
g2874
ag161
ag768
ag63
ag205
ag500
ag885
ag477
asS'261'
p2877
(lp2878
g1284
ag50
ag480
ag547
ag1891
asS'260'
p2879
(lp2880
g1284
ag53
ag505
ag1946
ag1837
ag361
ag1580
ag546
ag248
asS'267'
p2881
(lp2882
g528
ag1368
ag323
ag800
ag257
ag440
ag1276
ag281
ag1936
ag588
asS'266'
p2883
(lp2884
g2874
ag1146
ag1719
ag873
ag14
ag319
ag805
ag2145
ag140
ag326
ag1757
asS'265'
p2885
(lp2886
g2874
ag1344
ag170
asS'264'
p2887
(lp2888
g2874
aS'145'
p2889
ag252
ag1398
ag220
ag2388
ag2436
ag425
ag2530
ag821
ag721
ag1136
ag1861
ag1685
ag1701
ag565
ag2043
ag882
ag1291
ag335
asS'269'
p2890
(lp2891
g528
ag2371
ag1591
asS'268'
p2892
(lp2893
g528
ag1933
ag594
ag1301
asS'701'
p2894
(lp2895
g583
ag990
ag882
ag282
ag1025
asS'59'
p2896
(lp2897
g2206
ag2859
ag1919
ag867
ag103
ag1018
ag1568
ag477
asS'58'
p2898
(lp2899
g754
ag452
ag829
ag1923
ag43
ag194
ag349
ag836
ag1641
ag380
ag1302
ag63
ag106
ag877
ag648
ag237
asS'55'
p2900
(lp2901
g973
ag2090
ag1607
ag485
ag1608
ag1005
ag1840
asS'54'
p2902
(lp2903
g543
ag999
asS'57'
p2904
(lp2905
g973
ag48
ag1922
ag457
ag834
ag227
asS'56'
p2906
(lp2907
g973
ag2090
ag903
ag688
ag986
ag994
ag420
ag1378
ag180
ag868
ag869
ag564
ag1004
ag463
ag1332
ag1362
ag1185
ag413
ag1417
asS'51'
p2908
(lp2909
S'8'
p2910
ag1478
ag1001
ag1274
ag1014
ag1184
asS'50'
p2911
(lp2912
g2910
ag269
ag347
ag2265
ag1526
ag340
ag244
ag726
ag111
ag6
ag184
ag549
ag90
ag1796
ag2198
ag350
ag96
ag1022
asS'53'
p2913
(lp2914
g2910
ag1368
ag1890
ag780
ag693
asS'52'
p2915
(lp2916
g2910
ag1801
ag726
ag2436
ag706
asS'537'
p2917
(lp2918
g582
ag1064
ag1134
ag586
ag588
asS'536'
p2919
(lp2920
g697
ag1632
ag1831
ag349
ag676
asS'535'
p2921
(lp2922
g697
ag295
ag317
ag1066
ag1617
asS'534'
p2923
(lp2924
g697
ag898
ag1065
ag1447
ag1066
ag237
ag36
asS'533'
p2925
(lp2926
g637
ag125
ag83
ag1264
ag1483
asS'532'
p2927
(lp2928
g2889
ag1909
ag663
ag295
ag2388
ag1134
ag227
ag805
ag164
ag1962
asS'531'
p2929
(lp2930
g2889
ag689
ag1112
ag1398
ag146
ag1935
ag137
ag721
ag119
ag36
asS'530'
p2931
(lp2932
g2889
ag1112
ag663
ag1218
ag153
ag656
ag1370
ag547
ag1155
asS'539'
p2933
(lp2934
g449
ag2859
ag991
ag220
ag863
ag1355
ag458
ag997
ag872
ag873
ag1838
ag1302
ag1190
ag774
asS'538'
p2935
(lp2936
g449
ag461
ag493
ag1644
ag248
ag1548
asS'775'
p2937
(lp2938
g969
ag1852
ag698
ag1957
ag1215
ag492
asS'774'
p2939
(lp2940
g1837
ag1923
ag1309
ag502
ag1417
asS'777'
p2941
(lp2942
g1475
ag86
ag1222
ag1831
ag384
ag492
ag548
asS'115'
p2943
(lp2944
S'20'
p2945
ag390
ag1526
ag6
ag706
ag703
asS'114'
p2946
(lp2947
g2945
ag1571
ag785
ag1188
ag674
ag1743
ag518
ag1064
ag1631
ag455
ag917
ag1542
ag1050
ag727
ag924
ag297
ag203
ag138
ag1321
ag701
ag1878
ag1796
ag227
ag670
ag770
ag1677
ag1654
ag1958
ag266
ag1306
ag1506
ag781
ag233
asS'117'
p2948
(lp2949
g2945
ag632
ag313
ag111
ag931
ag706
ag1720
ag1422
asS'116'
p2950
(lp2951
g2945
ag264
ag667
ag355
ag66
ag948
ag150
asS'111'
p2952
(lp2953
g744
ag287
ag2253
ag1452
ag1750
ag1475
ag1970
ag1965
ag813
ag153
ag194
ag134
ag1447
ag1341
ag1127
ag1646
ag1936
asS'110'
p2954
(lp2955
g744
ag1441
ag1451
ag976
ag1284
ag1929
ag307
ag908
ag633
ag253
ag1324
ag1930
ag1750
ag536
ag1931
ag1932
ag1933
ag921
ag1595
ag804
ag1924
ag13
ag512
ag1099
ag1760
ag227
ag333
ag1827
ag1073
ag496
ag2347
ag35
ag1336
ag205
ag1655
ag2385
ag1021
ag1128
ag1458
ag326
ag1780
ag156
ag36
ag1404
ag142
ag1994
ag1510
ag1938
asS'113'
p2956
(lp2957
g2945
ag1714
ag308
ag2234
ag111
ag405
ag248
asS'253'
p2958
(lp2959
g902
ag3
ag449
ag274
ag758
ag828
ag1534
ag732
ag456
ag1306
ag344
ag217
ag1093
ag1470
asS'771'
p2960
(lp2961
g859
ag737
ag1723
ag872
ag821
ag1351
ag1446
ag1057
ag1126
ag1365
ag2224
ag2046
ag679
asS'119'
p2962
(lp2963
g1242
ag1368
ag323
ag255
ag917
ag1693
ag279
ag226
ag511
ag1796
ag1645
ag1506
ag1568
ag1405
asS'118'
p2964
(lp2965
g2150
ag688
ag1122
ag656
ag461
ag1779
ag1018
ag2203
asS'770'
p2966
(lp2967
g859
ag134
ag719
ag820
ag1746
ag443
asS'773'
p2968
(lp2969
g1583
ag436
ag1039
ag511
ag878
ag1585
asS'772'
p2970
(lp2971
g1744
ag1545
ag962
ag14
ag1861
ag2591
ag1457
ag2140
asS'429'
p2972
(lp2973
g1140
ag1714
ag1852
ag1445
ag1545
ag1785
ag226
ag806
ag401
ag96
ag1572
ag1422
ag1949
asS'428'
p2974
(lp2975
g2474
ag518
ag1732
ag440
asS'421'
p2976
(lp2977
g447
ag61
ag1083
ag1011
ag266
ag394
ag289
ag1610
asS'420'
p2978
(lp2979
g2582
ag6
ag1088
ag150
asS'423'
p2980
(lp2981
g1626
ag633
ag2012
ag265
ag658
ag2591
ag120
ag1291
asS'422'
p2982
(lp2983
g1551
ag2075
ag117
ag237
ag301
asS'425'
p2984
(lp2985
g1626
ag1300
ag1184
ag1459
ag1060
ag1303
asS'424'
p2986
(lp2987
g1626
ag51
ag745
ag1273
ag1897
ag141
asS'427'
p2988
(lp2989
g1627
ag347
ag255
ag88
asS'426'
p2990
(lp2991
g1627
ag1883
ag1518
ag1350
ag153
ag111
ag549
ag2393
asS'308'
p2992
(lp2993
g1428
ag31
ag449
ag264
ag667
ag178
ag167
ag991
aS'390'
p2994
ag1176
ag712
ag331
ag1271
ag461
ag1052
ag201
ag714
ag280
ag1332
ag493
ag640
ag154
ag1054
ag1055
ag227
ag1621
ag34
ag2203
ag1958
ag1058
ag2043
ag1092
ag335
ag1704
ag1384
ag373
asS'309'
p2995
(lp2996
g1428
ag53
ag2210
ag186
ag36
asS'855'
p2997
(lp2998
g1050
ag1633
ag831
ag741
ag1016
ag1591
asS'300'
p2999
(lp3000
g359
ag6
ag247
asS'301'
p3001
(lp3002
g292
ag2217
ag1984
ag242
ag1631
ag147
ag830
ag1545
ag1141
ag1301
ag90
ag1229
ag807
ag96
ag1949
ag2393
asS'302'
p3003
(lp3004
g1631
ag761
ag2469
ag1785
ag807
ag1572
ag843
asS'303'
p3005
(lp3006
g2286
ag244
ag1013
ag707
ag1680
asS'304'
p3007
(lp3008
g2286
ag979
ag858
ag278
ag890
ag367
ag33
ag316
ag925
ag1576
ag1264
ag642
ag1560
ag1446
ag1684
ag2370
ag1958
ag707
ag1802
ag2371
ag1093
ag1740
asS'305'
p3009
(lp3010
g2286
ag688
ag826
ag484
ag1064
ag1922
ag255
ag341
ag1331
ag153
ag57
ag43
ag1916
ag1456
ag316
ag461
ag676
ag837
ag281
asS'306'
p3011
(lp3012
g2286
ag1627
ag1044
ag852
ag1874
ag980
ag2253
ag480
ag309
ag453
ag252
ag1539
ag1350
ag1285
ag519
ag684
ag100
ag366
ag916
ag1696
ag1133
ag436
ag232
ag245
ag865
ag153
ag1923
ag314
ag920
ag656
ag628
ag1235
ag378
ag1167
ag368
ag1274
ag685
ag1052
ag926
ag202
ag835
ag1332
ag13
ag380
ag7
ag1773
ag933
ag27
ag939
ag706
ag34
ag237
ag840
ag1900
ag1958
ag1290
ag1383
ag948
ag1249
ag472
ag883
ag1232
ag629
ag249
ag2658
ag1925
ag1515
asS'307'
p3013
(lp3014
g2286
ag1957
ag2530
ag174
ag700
ag473
asS'895'
p3015
(lp3016
g137
ag2210
ag1459
ag513
ag514
asS'825'
p3017
(lp3018
g698
ag653
ag634
ag2530
ag477
asS'824'
p3019
(lp3020
g1696
ag378
ag6
ag1778
ag664
asS'827'
p3021
(lp3022
g1445
ag658
ag187
ag36
asS'847'
p3023
(lp3024
g890
ag510
ag867
ag925
ag1014
asS'846'
p3025
(lp3026
g57
ag457
ag35
ag788
ag1468
asS'845'
p3027
(lp3028
g547
ag873
ag550
ag1567
asS'826'
p3029
(lp3030
g2582
ag728
ag296
ag1497
ag1779
ag246
ag1591
asS'843'
p3031
(lp3032
g1693
ag111
ag196
ag1183
asS'842'
p3033
(lp3034
g109
ag410
ag319
ag642
ag1447
ag1410
ag772
ag414
asS'841'
p3035
(lp3036
g1662
ag1001
ag194
ag639
ag778
asS'840'
p3037
(lp3038
g1931
ag801
ag1298
ag2069
ag139
ag588
ag1510
asS'821'
p3039
(lp3040
S'425'
p3041
ag2773
ag1753
ag802
ag514
asS'853'
p3042
(lp3043
g1653
ag808
ag474
asS'849'
p3044
(lp3045
g342
ag935
ag495
ag71
asS'820'
p3046
(lp3047
g1556
ag916
ag740
ag2321
ag1017
ag289
ag395
ag1649
asS'823'
p3048
(lp3049
g916
ag1344
ag438
ag265
ag61
ag1272
ag83
ag1345
ag1346
ag1347
asS'822'
p3050
(lp3051
g916
ag132
ag1147
ag539
ag36
asS'753'
p3052
(lp3053
g1112
ag1744
ag227
ag805
ag1101
asS'569'
p3054
(lp3055
g2433
ag1045
ag1314
ag6
ag281
ag1088
ag1219
asS'751'
p3056
(lp3057
g276
ag684
ag278
ag738
ag1399
ag1287
ag1056
ag1740
ag206
ag283
asS'750'
p3058
(lp3059
g323
ag1369
ag137
ag708
asS'757'
p3060
(lp3061
g1445
asS'737'
p3062
(lp3063
g82
ag898
ag814
ag2748
ag1646
asS'755'
p3064
(lp3065
g1608
ag438
ag869
ag806
ag79
ag1358
asS'754'
p3066
(lp3067
g1112
ag1123
ag813
ag1459
ag36
asS'560'
p3068
(lp3069
g1166
ag563
ag117
ag467
asS'561'
p3070
(lp3071
g1104
ag1152
ag76
ag153
asS'759'
p3072
(lp3073
g365
ag1376
ag377
ag836
ag2298
ag779
asS'563'
p3074
(lp3075
g2474
ag728
ag2019
ag733
ag956
asS'564'
p3076
(lp3077
g2474
ag2033
ag194
ag1114
ag1100
ag1341
ag470
ag1746
asS'565'
p3078
(lp3079
g2474
ag1948
ag739
ag1773
ag894
asS'566'
p3080
(lp3081
g906
ag1909
ag1715
ag133
ag6
ag266
ag1679
asS'567'
p3082
(lp3083
g906
ag2830
ag1247
ag299
ag233
asS'739'
p3084
(lp3085
g803
ag1128
ag1880
asS'229'
p3086
(lp3087
g1420
ag1993
ag1053
ag1622
asS'228'
p3088
(lp3089
g1420
ag981
ag128
ag872
ag104
ag1302
ag937
ag228
ag1061
asS'227'
p3090
(lp3091
g855
ag697
ag1946
ag634
ag715
ag930
ag932
ag937
ag227
ag96
ag565
ag2330
asS'226'
p3092
(lp3093
g849
ag125
ag3041
ag1060
ag1384
asS'225'
p3094
(lp3095
g849
ag918
ag1635
ag1897
asS'224'
p3096
(lp3097
g849
ag2830
ag1051
ag62
ag2321
ag1017
ag395
ag1649
asS'223'
p3098
(lp3099
g2295
ag1314
ag969
ag2265
ag1033
ag698
ag1753
ag133
ag6
ag163
ag1604
ag299
ag701
ag106
ag939
ag96
ag702
ag1780
asS'222'
p3100
(lp3101
g2827
ag1947
ag1965
ag1167
ag492
ag1357
ag939
ag1913
asS'221'
p3102
(lp3103
g2827
ag632
ag1189
ag437
ag2436
ag925
asS'220'
p3104
(lp3105
g2827
ag484
ag63
asS'391'
p3106
(lp3107
g904
ag2217
ag2109
ag637
ag421
ag801
ag1100
ag1291
asS'726'
p3108
(lp3109
g2056
ag409
ag760
ag1667
ag14
ag1134
asS'727'
p3110
(lp3111
g453
ag1330
ag1916
ag440
ag1401
ag2382
asS'724'
p3112
(lp3113
g270
ag1630
ag1445
ag653
ag295
ag720
ag8
ag1647
asS'390'
p3114
(lp3115
g517
ag697
ag620
ag999
ag1765
ag944
ag660
ag1089
asS'722'
p3116
(lp3117
g561
ag711
ag536
ag654
ag1632
ag792
ag112
ag1006
ag182
ag227
ag186
ag1278
ag344
ag1994
asS'723'
p3118
(lp3119
g270
ag330
ag243
ag1526
ag245
ag2385
ag248
ag473
asS'720'
p3120
(lp3121
g1146
ag323
ag718
ag1662
ag118
ag2093
ag1148
ag1155
ag840
ag1598
ag1913
asS'721'
p3122
(lp3123
g1628
ag392
ag675
ag773
asS'728'
p3124
(lp3125
g365
ag6
ag1135
asS'729'
p3126
(lp3127
g988
ag135
ag12
ag1356
ag746
ag393
ag1643
ag1347
asS'605'
p3128
(lp3129
g1946
ag507
ag801
ag1370
ag1901
ag1026
ag514
asS'150'
p3130
(lp3131
g1444
ag1246
ag100
ag349
ag1838
ag205
asS'153'
p3132
(lp3133
g1675
ag294
ag969
ag6
ag1498
asS'152'
p3134
(lp3135
g1675
ag1451
ag529
ag852
ag2109
ag124
ag906
ag2433
ag1874
ag1743
ag275
ag1538
ag224
ag915
ag761
ag455
ag436
ag410
ag456
ag1934
ag1222
ag180
ag1580
ag655
ag2070
ag2530
ag343
ag1052
ag835
ag1287
ag1779
ag1813
ag104
ag26
ag1838
ag260
ag932
ag298
ag933
ag1560
ag227
ag412
ag1700
ag465
ag497
ag266
ag1678
ag281
ag1505
ag502
ag2046
ag239
ag1061
ag432
ag1129
ag1599
asS'155'
p3136
(lp3137
g848
ag1873
ag786
ag978
ag2274
ag983
ag179
ag270
ag799
ag243
ag608
ag2994
ag1948
ag100
ag829
ag147
ag331
ag436
ag2068
ag509
ag763
ag1662
ag1636
ag490
ag1235
ag1639
ag926
ag1400
ag202
ag103
ag13
ag928
ag768
ag1379
ag1054
ag933
ag549
ag1878
ag15
ag1621
ag1990
ag386
ag237
ag793
ag2101
ag948
ag1249
ag1703
ag170
ag1219
ag335
ag1405
ag955
ag1029
asS'154'
p3138
(lp3139
g848
ag824
ag1607
ag858
ag984
ag987
ag638
ag860
ag1974
ag2158
ag508
ag1975
ag1676
ag1273
ag925
ag258
ag1017
ag1021
ag539
ag1291
ag1373
asS'157'
p3140
(lp3141
g2155
ag2104
ag542
ag1743
ag1539
ag392
ag750
ag100
ag1876
ag761
ag994
ag180
ag922
ag1924
ag13
ag89
ag1387
ag872
ag1056
ag15
ag1016
ag188
ag1561
ag952
ag894
asS'156'
p3142
(lp3143
g2155
ag697
ag232
ag792
ag1693
ag1083
ag729
ag547
ag162
ag932
ag779
ag550
asS'159'
p3144
(lp3145
g2164
ag1441
ag364
ag277
ag146
ag1931
ag360
ag490
ag411
ag1005
ag538
ag1877
ag1359
ag1067
asS'158'
p3146
(lp3147
g2164
ag2104
ag65
ag1108
ag2060
ag1592
asS'112'
p3148
(lp3149
g315
ag1411
ag963
asS'609'
p3150
(lp3151
g125
ag1368
ag813
ag2533
ag1358
asS'608'
p3152
(lp3153
g2143
ag729
ag2385
ag708
ag1406
asS'634'
p3154
(lp3155
g329
ag310
ag1948
ag421
ag400
asS'399'
p3156
(lp3157
g786
ag561
ag100
ag819
ag1785
ag765
ag379
ag1699
ag746
ag778
ag96
ag772
asS'635'
p3158
(lp3159
g329
ag1628
ag1876
ag258
ag385
ag63
ag1347
asS'749'
p3160
(lp3161
g323
ag656
ag803
ag1336
ag470
ag1089
asS'81'
p3162
(lp3163
g1864
ag600
ag497
ag2382
asS'48'
p3164
(lp3165
S'7'
p3166
ag2764
ag855
ag1750
ag1454
ag585
ag1932
ag132
ag1595
ag194
ag804
ag134
ag135
ag1178
ag547
ag324
ag2093
ag1653
ag1768
ag149
ag1447
ag205
ag840
ag221
ag2591
ag1936
ag1841
asS'49'
p3167
(lp3168
g1441
ag796
ag323
ag663
ag383
ag803
ag1422
asS'46'
p3169
(lp3170
g3166
ag124
ag307
ag1714
ag798
ag1121
ag1628
ag127
ag409
ag128
ag562
ag3041
ag130
ag800
ag585
ag153
ag132
ag1662
ag634
ag556
ag832
ag135
ag1394
ag27
ag1149
ag155
ag622
ag605
ag1936
ag156
ag1747
asS'47'
p3171
(lp3172
g3166
ag123
ag1744
ag1860
ag2093
ag1073
ag722
asS'44'
p3173
(lp3174
g3166
ag1392
ag126
ag3041
ag2140
ag531
asS'45'
p3175
(lp3176
g3166
ag959
ag798
ag1930
ag1965
ag570
ag153
ag1934
ag1369
ag815
ag404
ag139
ag325
ag227
ag2347
ag1149
ag1457
ag1938
asS'42'
p3177
(lp3178
g847
ag287
ag825
ag1750
ag101
ag1190
asS'43'
p3179
(lp3180
g966
ag452
ag79
ag2198
ag691
asS'40'
p3181
(lp3182
g847
ag850
ag553
ag417
ag50
ag293
ag1044
ag51
ag449
ag689
ag2499
ag236
ag1538
ag985
ag252
ag294
ag860
ag725
ag128
ag2994
ag129
ag1286
ag916
ag862
ag488
ag1256
ag762
ag1552
ag33
ag315
ag556
ag924
ag1007
ag675
ag1010
ag835
ag927
ag2159
ag1209
ag1302
ag149
ag204
ag778
ag227
ag1056
ag839
ag2370
ag1278
ag429
ag963
ag880
ag2184
ag612
ag1702
ag472
ag1101
ag1704
ag1949
ag1961
ag601
asS'41'
p3183
(lp3184
g847
ag1420
ag1956
ag514
ag1913
asS'638'
p3185
(lp3186
g1683
ag667
ag2773
ag1071
asS'5'
p3187
(lp3188
g1241
ag1215
ag1006
ag1016
ag944
ag1303
asS'639'
p3189
(lp3190
g1070
ag584
ag232
ag1039
ag1066
ag281
ag702
ag1901
asS'489'
p3191
(lp3192
g1392
ag2433
ag159
ag667
ag1314
ag698
ag1545
ag384
ag831
ag6
ag163
ag299
ag350
ag96
ag1548
asS'488'
p3193
(lp3194
g82
ag409
ag1935
ag1993
ag1235
ag261
ag1894
ag289
ag2046
asS'487'
p3195
(lp3196
g1929
ag307
ag399
ag1214
ag502
asS'486'
p3197
(lp3198
g1929
ag554
ag232
ag1005
ag393
ag238
ag502
asS'485'
p3199
(lp3200
g1929
ag2059
ag898
ag1072
ag1655
ag326
ag432
asS'484'
p3201
(lp3202
g1929
ag1066
ag1130
asS'483'
p3203
(lp3204
g1929
ag2069
ag1413
ag842
ag951
asS'482'
p3205
(lp3206
g1929
ag583
ag1932
ag257
ag1522
ag227
ag1179
asS'481'
p3207
(lp3208
g1709
ag569
ag912
ag75
ag1050
ag995
ag1935
ag628
ag104
ag227
ag15
asS'480'
p3209
(lp3210
g1709
ag22
ag2056
ag215
ag148
ag1410
ag1887
ag1403
asS'472'
p3211
(lp3212
g2217
ag855
ag2709
ag453
ag1336
ag2658
asS'473'
p3213
(lp3214
g1538
ag1666
ag2994
ag180
ag93
ag461
ag257
ag1059
ag2060
ag501
asS'470'
p3215
(lp3216
g1493
ag1864
ag644
asS'471'
p3217
(lp3218
g2217
ag77
ag441
ag1137
asS'476'
p3219
(lp3220
g1267
ag2709
ag1195
ag750
ag829
ag653
ag996
ag202
ag1897
ag751
ag820
ag63
ag79
ag1365
ag233
asS'477'
p3221
(lp3222
g826
ag449
ag543
ag1245
ag2110
ag2830
ag1504
ag1205
ag1141
ag7
ag184
ag27
ag386
ag1894
ag1623
ag566
asS'474'
p3223
(lp3224
g339
ag827
ag506
ag667
ag408
ag684
ag1253
ag1009
asS'475'
p3225
(lp3226
g339
ag683
ag1032
ag2773
ag512
ag2748
ag771
ag1358
ag660
ag953
asS'478'
p3227
(lp3228
g826
ag986
ag2038
ag502
asS'479'
p3229
(lp3230
g1709
ag967
ag1006
ag1290
ag1199
ag789
ag175
as.