(dp0
S'200509'
p1
(lp2
S'0.164383561644'
p3
aS'0.219178082192'
p4
aS'0.191780821918'
p5
aS'0.191780821918'
p6
aS'0.232876712329'
p7
asS'200501'
p8
(lp9
S'0.352380952381'
p10
aS'0.142857142857'
p11
aS'0.133333333333'
p12
aS'0.180952380952'
p13
aS'0.190476190476'
p14
asS'200503'
p15
(lp16
S'0.211764705882'
p17
aS'0.2'
p18
aS'0.223529411765'
p19
aS'0.188235294118'
p20
aS'0.176470588235'
p21
asS'201205'
p22
(lp23
S'0.238938053097'
p24
aS'0.19781363873'
p25
aS'0.211348256117'
p26
aS'0.16814159292'
p27
aS'0.183758459136'
p28
asS'201204'
p29
(lp30
S'0.231560891938'
p31
aS'0.15180102916'
p32
aS'0.193396226415'
p33
aS'0.186106346484'
p34
aS'0.237135506003'
p35
asS'201207'
p36
(lp37
S'0.204090706981'
p38
aS'0.192530013339'
p39
aS'0.16851934193'
p40
aS'0.164517563361'
p41
aS'0.270342374389'
p42
asS'201206'
p43
(lp44
S'0.213546566322'
p45
aS'0.152869238006'
p46
aS'0.266227657573'
p47
aS'0.166039510818'
p48
aS'0.201317027281'
p49
asS'201201'
p50
(lp51
S'0.272313296903'
p52
aS'0.140255009107'
p53
aS'0.229508196721'
p54
aS'0.211900425015'
p55
aS'0.146023072253'
p56
asS'201203'
p57
(lp58
S'0.265415549598'
p59
aS'0.143623132899'
p60
aS'0.213711221754'
p61
aS'0.191880505553'
p62
aS'0.185369590195'
p63
asS'201202'
p64
(lp65
S'0.178360655738'
p66
aS'0.120327868852'
p67
aS'0.232459016393'
p68
aS'0.24131147541'
p69
aS'0.227540983607'
p70
asS'201209'
p71
(lp72
S'0.177002583979'
p73
aS'0.169896640827'
p74
aS'0.189599483204'
p75
aS'0.139534883721'
p76
aS'0.323966408269'
p77
asS'201208'
p78
(lp79
S'0.183951196621'
p80
aS'0.190990145472'
p81
aS'0.218207414359'
p82
aS'0.166588456124'
p83
aS'0.240262787424'
p84
asS'201112'
p85
(lp86
S'0.230843840931'
p87
aS'0.162948593598'
p88
aS'0.186226964113'
p89
aS'0.238603297769'
p90
aS'0.181377303589'
p91
asS'201006'
p92
(lp93
S'0.34036939314'
p94
aS'0.134564643799'
p95
aS'0.153034300792'
p96
aS'0.158311345646'
p97
aS'0.213720316623'
p98
asS'200808'
p99
(lp100
S'0.273195876289'
p101
aS'0.154639175258'
p102
aS'0.144329896907'
p103
aS'0.231958762887'
p104
aS'0.19587628866'
p105
asS'200809'
p106
(lp107
S'0.183333333333'
p108
aS'0.183333333333'
p109
aS'0.233333333333'
p110
aS'0.2'
p111
aS'0.2'
p112
asS'200801'
p113
(lp114
S'0.278145695364'
p115
aS'0.211920529801'
p116
aS'0.152317880795'
p117
aS'0.192052980132'
p118
aS'0.165562913907'
p119
asS'200802'
p120
(lp121
S'0.21897810219'
p122
aS'0.226277372263'
p123
aS'0.189781021898'
p124
aS'0.167883211679'
p125
aS'0.197080291971'
p126
asS'200803'
p127
(lp128
S'0.184684684685'
p129
aS'0.324324324324'
p130
aS'0.130630630631'
p131
aS'0.220720720721'
p132
aS'0.13963963964'
p133
asS'200804'
p134
(lp135
S'0.3'
p136
aS'0.157142857143'
p137
aS'0.185714285714'
p138
aS'0.135714285714'
p139
aS'0.221428571429'
p140
asS'200805'
p141
(lp142
S'0.222222222222'
p143
aS'0.248366013072'
p144
aS'0.176470588235'
p145
aS'0.16339869281'
p146
aS'0.18954248366'
p147
asS'200806'
p148
(lp149
S'0.225490196078'
p150
aS'0.166666666667'
p151
aS'0.147058823529'
p152
aS'0.205882352941'
p153
aS'0.254901960784'
p154
asS'200807'
p155
(lp156
S'0.201680672269'
p157
aS'0.134453781513'
p158
aS'0.210084033613'
p159
aS'0.210084033613'
p160
aS'0.243697478992'
p161
asS'200409'
p162
(lp163
S'0.25'
p164
aS'0.202380952381'
p165
aS'0.190476190476'
p166
aS'0.190476190476'
p167
aS'0.166666666667'
p168
asS'200812'
p169
(lp170
S'0.0986193293886'
p171
aS'0.508875739645'
p172
aS'0.143984220907'
p173
aS'0.161735700197'
p174
aS'0.0867850098619'
p175
asS'200811'
p176
(lp177
S'0.190677966102'
p178
aS'0.182203389831'
p179
aS'0.271186440678'
p180
aS'0.152542372881'
p181
aS'0.203389830508'
p182
asS'200810'
p183
(lp184
S'0.223214285714'
p185
aS'0.196428571429'
p186
aS'0.147321428571'
p187
aS'0.232142857143'
p188
aS'0.200892857143'
p189
asS'200412'
p190
(lp191
S'0.197674418605'
p192
aS'0.197674418605'
p193
aS'0.232558139535'
p194
aS'0.186046511628'
p195
aS'0.186046511628'
p196
asS'200411'
p197
(lp198
S'0.0920634920635'
p199
aS'0.0857142857143'
p200
aS'0.0730158730159'
p201
aS'0.415873015873'
p202
aS'0.333333333333'
p203
asS'200710'
p204
(lp205
S'0.169082125604'
p206
aS'0.425120772947'
p207
aS'0.164251207729'
p208
aS'0.115942028986'
p209
aS'0.125603864734'
p210
asS'200711'
p211
(lp212
S'0.136'
p213
aS'0.4'
p214
aS'0.128'
p215
aS'0.2'
p216
aS'0.136'
p217
asS'200712'
p218
(lp219
S'0.220272904483'
p220
aS'0.302144249513'
p221
aS'0.216374269006'
p222
aS'0.12865497076'
p223
aS'0.132553606238'
p224
asS'201308'
p225
(lp226
S'0.214254289485'
p227
aS'0.155301363836'
p228
aS'0.211174659041'
p229
aS'0.195776506819'
p230
aS'0.223493180818'
p231
asS'201309'
p232
(lp233
S'0.225716459549'
p234
aS'0.149125031702'
p235
aS'0.201369515597'
p236
aS'0.200355059599'
p237
aS'0.223433933553'
p238
asS'201304'
p239
(lp240
S'0.228474411836'
p241
aS'0.161532864419'
p242
aS'0.222653407713'
p243
aS'0.211496483143'
p244
aS'0.175842832889'
p245
asS'201305'
p246
(lp247
S'0.332205846823'
p248
aS'0.144479342836'
p249
aS'0.17733752114'
p250
aS'0.183377627446'
p251
aS'0.162599661754'
p252
asS'201306'
p253
(lp254
S'0.254901960784'
p255
aS'0.185496420791'
p256
aS'0.203236850296'
p257
aS'0.166199813259'
p258
aS'0.190164954871'
p259
asS'201307'
p260
(lp261
S'0.237808549067'
p262
aS'0.126128838049'
p263
aS'0.222757375075'
p264
aS'0.203491872366'
p265
aS'0.209813365443'
p266
asS'201301'
p267
(lp268
S'0.232937422443'
p269
aS'0.137564261656'
p270
aS'0.227973763517'
p271
aS'0.223187378124'
p272
aS'0.17833717426'
p273
asS'201302'
p274
(lp275
S'0.246094585919'
p276
aS'0.131607104644'
p277
aS'0.210357372138'
p278
aS'0.228546971967'
p279
aS'0.183393965333'
p280
asS'201303'
p281
(lp282
S'0.259513871839'
p283
aS'0.119813405352'
p284
aS'0.225632212129'
p285
aS'0.190031917506'
p286
aS'0.205008593175'
p287
asS'200610'
p288
(lp289
S'0.178571428571'
p290
aS'0.1875'
p291
aS'0.125'
p292
aS'0.294642857143'
p293
aS'0.214285714286'
p294
asS'200612'
p295
(lp296
S'0.202898550725'
p297
aS'0.188405797101'
p298
aS'0.173913043478'
p299
aS'0.246376811594'
p300
aS'0.188405797101'
p301
asS'200709'
p302
(lp303
S'0.226804123711'
p304
aS'0.185567010309'
p305
aS'0.164948453608'
p306
aS'0.226804123711'
p307
aS'0.19587628866'
p308
asS'200704'
p309
(lp310
S'0.142857142857'
p311
aS'0.203007518797'
p312
aS'0.233082706767'
p313
aS'0.285714285714'
p314
aS'0.135338345865'
p315
asS'200703'
p316
(lp317
S'0.197802197802'
p318
aS'0.241758241758'
p319
aS'0.274725274725'
p320
aS'0.142857142857'
p321
aS'0.142857142857'
p322
asS'200702'
p323
(lp324
S'0.235294117647'
p325
aS'0.176470588235'
p326
aS'0.191176470588'
p327
aS'0.176470588235'
p328
aS'0.220588235294'
p329
asS'200701'
p330
(lp331
S'0.264705882353'
p332
aS'0.176470588235'
p333
aS'0.161764705882'
p334
aS'0.191176470588'
p335
aS'0.205882352941'
p336
asS'201403'
p337
(lp338
S'0.228312228312'
p339
aS'0.121149121149'
p340
aS'0.20223020223'
p341
aS'0.243621243621'
p342
aS'0.204687204687'
p343
asS'201402'
p344
(lp345
S'0.27159432746'
p346
aS'0.117533304684'
p347
aS'0.230124623979'
p348
aS'0.202406532015'
p349
aS'0.178341211861'
p350
asS'201401'
p351
(lp352
S'0.231649626125'
p353
aS'0.150770639402'
p354
aS'0.216389439951'
p355
aS'0.203265679841'
p356
aS'0.19792461468'
p357
asS'201407'
p358
(lp359
S'0.334288443171'
p360
aS'0.119388729704'
p361
aS'0.168576886342'
p362
aS'0.200573065903'
p363
aS'0.177172874881'
p364
asS'201406'
p365
(lp366
S'0.274209989806'
p367
aS'0.113404689093'
p368
aS'0.199541284404'
p369
aS'0.203618756371'
p370
aS'0.209225280326'
p371
asS'201405'
p372
(lp373
S'0.254326166754'
p374
aS'0.112480335606'
p375
aS'0.23308862087'
p376
aS'0.213424226534'
p377
aS'0.186680650236'
p378
asS'201404'
p379
(lp380
S'0.220700765203'
p381
aS'0.135118807894'
p382
aS'0.187474828836'
p383
aS'0.237414418043'
p384
aS'0.219291180024'
p385
asS'201312'
p386
(lp387
S'0.252999586264'
p388
aS'0.153909805544'
p389
aS'0.238932561026'
p390
aS'0.182871328093'
p391
aS'0.171286719073'
p392
asS'201311'
p393
(lp394
S'0.235515779557'
p395
aS'0.117757889779'
p396
aS'0.225859632595'
p397
aS'0.195007065473'
p398
aS'0.225859632595'
p399
asS'201310'
p400
(lp401
S'0.252865812542'
p402
aS'0.1330636098'
p403
aS'0.18790739492'
p404
aS'0.204540346145'
p405
aS'0.221622836592'
p406
asS'201010'
p407
(lp408
S'0.149933065596'
p409
aS'0.176706827309'
p410
aS'0.263721552878'
p411
aS'0.161981258367'
p412
aS'0.24765729585'
p413
asS'201011'
p414
(lp415
S'0.184182015168'
p416
aS'0.160346695558'
p417
aS'0.261105092091'
p418
aS'0.178764897075'
p419
aS'0.215601300108'
p420
asS'201012'
p421
(lp422
S'0.201844262295'
p423
aS'0.160860655738'
p424
aS'0.287909836066'
p425
aS'0.206967213115'
p426
aS'0.142418032787'
p427
asS'201007'
p428
(lp429
S'0.207692307692'
p430
aS'0.212820512821'
p431
aS'0.120512820513'
p432
aS'0.253846153846'
p433
aS'0.205128205128'
p434
asS'200912'
p435
(lp436
S'0.15411558669'
p437
aS'0.273204903678'
p438
aS'0.124343257443'
p439
aS'0.140105078809'
p440
aS'0.30823117338'
p441
asS'201005'
p442
(lp443
S'0.203389830508'
p444
aS'0.176755447942'
p445
aS'0.230024213075'
p446
aS'0.193704600484'
p447
aS'0.19612590799'
p448
asS'201004'
p449
(lp450
S'0.148351648352'
p451
aS'0.325549450549'
p452
aS'0.23489010989'
p453
aS'0.127747252747'
p454
aS'0.163461538462'
p455
asS'201003'
p456
(lp457
S'0.152014652015'
p458
aS'0.309523809524'
p459
aS'0.179487179487'
p460
aS'0.117216117216'
p461
aS'0.241758241758'
p462
asS'201002'
p463
(lp464
S'0.0800744878957'
p465
aS'0.281191806331'
p466
aS'0.186219739292'
p467
aS'0.180633147114'
p468
aS'0.271880819367'
p469
asS'201001'
p470
(lp471
S'0.309338521401'
p472
aS'0.171206225681'
p473
aS'0.145914396887'
p474
aS'0.208171206226'
p475
aS'0.165369649805'
p476
asS'201111'
p477
(lp478
S'0.170625302957'
p479
aS'0.158022297625'
p480
aS'0.181289384392'
p481
aS'0.190984003878'
p482
aS'0.299079011149'
p483
asS'201009'
p484
(lp485
S'0.197152245345'
p486
aS'0.230010952903'
p487
aS'0.157721796276'
p488
aS'0.161007667032'
p489
aS'0.254107338445'
p490
asS'201008'
p491
(lp492
S'0.15987933635'
p493
aS'0.251885369532'
p494
aS'0.190045248869'
p495
aS'0.143288084465'
p496
aS'0.254901960784'
p497
asS'200911'
p498
(lp499
S'0.204620462046'
p500
aS'0.224422442244'
p501
aS'0.122112211221'
p502
aS'0.204620462046'
p503
aS'0.244224422442'
p504
asS'200606'
p505
(lp506
S'0.272727272727'
p507
aS'0.170454545455'
p508
aS'0.215909090909'
p509
aS'0.159090909091'
p510
aS'0.181818181818'
p511
asS'200607'
p512
(lp513
S'0.183098591549'
p514
aS'0.176056338028'
p515
aS'0.133802816901'
p516
aS'0.288732394366'
p517
aS'0.218309859155'
p518
asS'200910'
p519
(lp520
S'0.181818181818'
p521
aS'0.133838383838'
p522
aS'0.275252525253'
p523
aS'0.194444444444'
p524
aS'0.214646464646'
p525
asS'200605'
p526
(lp527
S'0.0878378378378'
p528
aS'0.557432432432'
p529
aS'0.10472972973'
p530
aS'0.0878378378378'
p531
aS'0.162162162162'
p532
asS'200602'
p533
(lp534
S'0.191780821918'
p535
aS'0.287671232877'
p536
aS'0.178082191781'
p537
aS'0.150684931507'
p538
aS'0.191780821918'
p539
asS'200603'
p540
(lp541
S'0.180327868852'
p542
aS'0.180327868852'
p543
aS'0.245901639344'
p544
aS'0.213114754098'
p545
aS'0.180327868852'
p546
asS'200601'
p547
(lp548
S'0.178571428571'
p549
aS'0.178571428571'
p550
aS'0.22619047619'
p551
aS'0.238095238095'
p552
aS'0.178571428571'
p553
asS'201210'
p554
(lp555
S'0.129945222155'
p556
aS'0.208460133901'
p557
aS'0.171637248935'
p558
aS'0.152769324407'
p559
aS'0.337188070603'
p560
asS'201110'
p561
(lp562
S'0.215324165029'
p563
aS'0.16463654224'
p564
aS'0.184282907662'
p565
aS'0.261689587426'
p566
aS'0.174066797642'
p567
asS'201211'
p568
(lp569
S'0.177382875606'
p570
aS'0.171890145396'
p571
aS'0.180613893376'
p572
aS'0.207754442649'
p573
aS'0.262358642973'
p574
asS'200901'
p575
(lp576
S'0.222222222222'
p577
aS'0.134502923977'
p578
aS'0.239766081871'
p579
aS'0.204678362573'
p580
aS'0.198830409357'
p581
asS'200903'
p582
(lp583
S'0.207692307692'
p584
aS'0.146153846154'
p585
aS'0.184615384615'
p586
aS'0.246153846154'
p587
aS'0.215384615385'
p588
asS'200902'
p589
(lp590
S'0.188481675393'
p591
aS'0.193717277487'
p592
aS'0.198952879581'
p593
aS'0.240837696335'
p594
aS'0.178010471204'
p595
asS'200905'
p596
(lp597
S'0.125506072874'
p598
aS'0.194331983806'
p599
aS'0.182186234818'
p600
aS'0.275303643725'
p601
aS'0.222672064777'
p602
asS'200904'
p603
(lp604
S'0.192'
p605
aS'0.168'
p606
aS'0.256'
p607
aS'0.24'
p608
aS'0.144'
p609
asS'200907'
p610
(lp611
S'0.106965174129'
p612
aS'0.388059701493'
p613
aS'0.194029850746'
p614
aS'0.136815920398'
p615
aS'0.174129353234'
p616
asS'200906'
p617
(lp618
S'0.171021377672'
p619
aS'0.465558194774'
p620
aS'0.0855106888361'
p621
aS'0.163895486936'
p622
aS'0.114014251781'
p623
asS'200909'
p624
(lp625
S'0.169772256729'
p626
aS'0.331262939959'
p627
aS'0.223602484472'
p628
aS'0.0910973084886'
p629
aS'0.184265010352'
p630
asS'200908'
p631
(lp632
S'0.153583617747'
p633
aS'0.143344709898'
p634
aS'0.184300341297'
p635
aS'0.276450511945'
p636
aS'0.242320819113'
p637
asS'201212'
p638
(lp639
S'0.23552936224'
p640
aS'0.177436329194'
p641
aS'0.196379709535'
p642
aS'0.173016207114'
p643
aS'0.217638391917'
p644
asS'201108'
p645
(lp646
S'0.20564516129'
p647
aS'0.229334677419'
p648
aS'0.182963709677'
p649
aS'0.193044354839'
p650
aS'0.189012096774'
p651
asS'201109'
p652
(lp653
S'0.216849451645'
p654
aS'0.235294117647'
p655
aS'0.175473579262'
p656
aS'0.195413758724'
p657
aS'0.176969092722'
p658
asS'201106'
p659
(lp660
S'0.146856840993'
p661
aS'0.264659270998'
p662
aS'0.208135235077'
p663
aS'0.131008980454'
p664
aS'0.249339672478'
p665
asS'201107'
p666
(lp667
S'0.162639405204'
p668
aS'0.262081784387'
p669
aS'0.182156133829'
p670
aS'0.17843866171'
p671
aS'0.21468401487'
p672
asS'201104'
p673
(lp674
S'0.129648241206'
p675
aS'0.258291457286'
p676
aS'0.211055276382'
p677
aS'0.158793969849'
p678
aS'0.242211055276'
p679
asS'201105'
p680
(lp681
S'0.265377855888'
p682
aS'0.18014059754'
p683
aS'0.178383128295'
p684
aS'0.133567662566'
p685
aS'0.242530755712'
p686
asS'201102'
p687
(lp688
S'0.17600896861'
p689
aS'0.267376681614'
p690
aS'0.206278026906'
p691
aS'0.147421524664'
p692
aS'0.202914798206'
p693
asS'201103'
p694
(lp695
S'0.226573426573'
p696
aS'0.177622377622'
p697
aS'0.21958041958'
p698
aS'0.158041958042'
p699
aS'0.218181818182'
p700
asS'201101'
p701
(lp702
S'0.255702280912'
p703
aS'0.229891956783'
p704
aS'0.178271308523'
p705
aS'0.116446578631'
p706
aS'0.21968787515'
p707
as.