(dp0
S'yellow'
p1
I41
sS'circuitry'
p2
I19
sS'hanging'
p3
I65
sS'woody'
p4
I5
sS'shure'
p5
I153
sS'swivel'
p6
I39
sS'shielding'
p7
I23
sS'bringing'
p8
I13
sS'stiffness'
p9
I17
sS'disturb'
p10
I6
sS'basics'
p11
I9
sS'internally'
p12
I9
sS'wooden'
p13
I9
sS'woods'
p14
I13
sS'commented'
p15
I17
sS'glassy'
p16
I6
sS'specially'
p17
I8
sS'tired'
p18
I36
sS'scrapes'
p19
I5
sS'elegant'
p20
I8
sS'rusty'
p21
I8
sS'sustaining'
p22
I5
sS'sterile'
p23
I11
sS'bolts'
p24
I10
sS'forgetting'
p25
I5
sS'boogie'
p26
I15
sS'fingers'
p27
I295
sS'increasing'
p28
I8
sS'error'
p29
I23
sS'jasmine'
p30
I23
sS'reported'
p31
I8
sS'chassis'
p32
I6
sS'china'
p33
I65
sS'kids'
p34
I52
sS'addario'
p35
I13
sS'military'
p36
I5
sS'criticism'
p37
I11
sS'golden'
p38
I9
sS'projection'
p39
I8
sS'explained'
p40
I8
sS'replace'
p41
I247
sS'brought'
p42
I33
sS'9s'
p43
I10
sS'unit'
p44
I452
sS'9v'
p45
I132
sS'dna'
p46
I8
sS'music'
p47
I592
sS'distortions'
p48
I18
sS'strike'
p49
I13
sS'holy'
p50
I22
sS'successful'
p51
I5
sS'brings'
p52
I23
sS'hurt'
p53
I45
sS'99'
p54
I19
sS'glass'
p55
I26
sS'90'
p56
I72
sS'hole'
p57
I188
sS'hold'
p58
I577
sS'95'
p59
I9
sS'hola'
p60
I16
sS'circumstances'
p61
I5
sS'locked'
p62
I16
sS'100.00'
p63
I5
sS'sweeter'
p64
I5
sS'organized'
p65
I10
sS'caution'
p66
I8
sS'reviewing'
p67
I13
sS'.to'
p68
I6
sS'absolute'
p69
I17
sS'complaining'
p70
I31
sS'travel'
p71
I86
sS'drying'
p72
I7
sS'feature'
p73
I170
sS'machine'
p74
I67
sS'hot'
p75
I84
sS'well-constructed'
p76
I6
sS'beauty'
p77
I23
sS'modulation'
p78
I26
sS'diagram'
p79
I8
sS'wrong'
p80
I320
sS'that.i'
p81
I6
sS'types'
p82
I104
sS'buzzy'
p83
I11
sS'effective'
p84
I57
sS'wins'
p85
I7
sS'guitalele'
p86
I5
sS'wind'
p87
I63
sS'snugly'
p88
I27
sS'feedback'
p89
I109
sS'vary'
p90
I31
sS'fidelity'
p91
I11
sS'admirably'
p92
I6
sS'fit'
p93
I622
sS'directional'
p94
I9
sS'screaming'
p95
I7
sS'backpack'
p96
I17
sS'hidden'
p97
I18
sS'easier'
p98
I321
sS'virtually'
p99
I40
sS'proco'
p100
I7
sS'workhorse'
p101
I5
sS'songwriter'
p102
I7
sS'effects'
p103
I504
sS'velcro'
p104
I60
sS'silver'
p105
I47
sS'guage'
p106
I13
sS'noticable'
p107
I7
sS'fretless'
p108
I9
sS'financial'
p109
I5
sS'series'
p110
I85
sS'spider'
p111
I48
sS'.and'
p112
I14
sS'mojomojo'
p113
I6
sS'strips'
p114
I10
sS'xp'
p115
I8
sS'dsp'
p116
I5
sS'encourage'
p117
I13
sS'heavy-duty'
p118
I14
sS"'em"
p119
I33
sS'guitarists'
p120
I68
sS'assured'
p121
I5
sS'gretsch'
p122
I9
sS'sheet'
p123
I45
sS'estimate'
p124
I9
sS'metallica'
p125
I14
sS'strats'
p126
I47
sS'sm7'
p127
I6
sS'sm5'
p128
I5
sS'rocksmith'
p129
I17
sS'shipped'
p130
I74
sS'musicians'
p131
I76
sS'sansamp'
p132
I11
sS'loudness'
p133
I7
sS'speeds'
p134
I7
sS'channels'
p135
I76
sS'wash'
p136
I12
sS'spinning'
p137
I8
sS'clarity'
p138
I68
sS'service'
p139
I71
sS'master'
p140
I48
sS'listed'
p141
I16
sS'legs'
p142
I53
sS'ranging'
p143
I9
sS'listen'
p144
I57
sS'collapse'
p145
I5
sS'horrible'
p146
I41
sS'positively'
p147
I6
sS'trem'
p148
I30
sS'tree'
p149
I9
sS'project'
p150
I38
sS'feeling'
p151
I69
sS'spectrum'
p152
I15
sS'dozen'
p153
I47
sS'hub'
p154
I12
sS'person'
p155
I80
sS'responsible'
p156
I6
sS'gripe'
p157
I28
sS'condensers'
p158
I15
sS'metallic'
p159
I17
sS'recommended'
p160
I290
sS'causing'
p161
I31
sS'defiantly'
p162
I6
sS'doors'
p163
I8
sS'grips'
p164
I27
sS'thrilled'
p165
I15
sS'huh'
p166
I5
sS'object'
p167
I5
sS'mouth'
p168
I31
sS'letter'
p169
I11
sS'amps'
p170
I368
sS'retaining'
p171
I14
sS'macbook'
p172
I11
sS'singer'
p173
I22
sS'schallers'
p174
I14
sS'camp'
p175
I6
sS'tweakable'
p176
I5
sS'tech'
p177
I74
sS'ph-3'
p178
I5
sS'scream'
p179
I7
sS'polypropylene'
p180
I5
sS'bomb'
p181
I7
sS'headstocks'
p182
I20
sS'padded'
p183
I99
sS'gauge'
p184
I162
sS'tempted'
p185
I12
sS'cheaply'
p186
I28
sS'lessons'
p187
I27
sS'touches'
p188
I13
sS'busy'
p189
I10
sS'layout'
p190
I5
sS'headline'
p191
I5
sS'menu'
p192
I16
sS'bust'
p193
I5
sS'lube'
p194
I7
sS'touched'
p195
I7
sS'rich'
p196
I93
sS'plate'
p197
I70
sS'too.i'
p198
I7
sS'foremost'
p199
I6
sS'pocket'
p200
I140
sS'cushion'
p201
I11
sS'altogether'
p202
I8
sS'net'
p203
I14
sS'on-board'
p204
I9
sS'nicely'
p205
I216
sS'patch'
p206
I100
sS'release'
p207
I69
sS'respond'
p208
I26
sS'blew'
p209
I11
sS'fair'
p210
I87
sS'sensitivity'
p211
I45
sS'.if'
p212
I13
sS'unexpectedly'
p213
I5
sS'pads'
p214
I56
sS'radius'
p215
I21
sS'result'
p216
I61
sS'fail'
p217
I40
sS'news'
p218
I14
sS'hammer'
p219
I13
sS'.it'
p220
I13
sS'lots'
p221
I117
sS'rings'
p222
I24
sS'score'
p223
I5
sS'preserve'
p224
I6
sS'extend'
p225
I22
sS'nature'
p226
I15
sS'rolled'
p227
I10
sS'tolex'
p228
I6
sS'carbon'
p229
I42
sS'accident'
p230
I9
sS'country'
p231
I41
sS'adapter'
p232
I290
sS'planned'
p233
I7
sS'lookin'
p234
I5
sS'logic'
p235
I14
sS'garageband'
p236
I37
sS'argue'
p237
I13
sS'2nd'
p238
I44
sS'matte'
p239
I20
sS'250'
p240
I11
sS'chrome'
p241
I32
sS'dots'
p242
I5
sS'life'
p243
I221
sS'recomend'
p244
I31
sS'spit'
p245
I7
sS'light-weight'
p246
I7
sS'dave'
p247
I5
sS'lift'
p248
I21
sS'dava'
p249
I28
sS'doubts'
p250
I8
sS'25r'
p251
I8
sS'spin'
p252
I17
sS'gritty'
p253
I10
sS'professionally'
p254
I13
sS'pre-sets'
p255
I7
sS'employ'
p256
I5
sS'bin'
p257
I7
sS'played'
p258
I286
sS'player'
p259
I286
sS'conditioner'
p260
I9
sS'sells'
p261
I32
sS'trusted'
p262
I7
sS'damaged'
p263
I32
sS'price.i'
p264
I12
sS'harmony'
p265
I11
sS'babies'
p266
I10
sS'electro'
p267
I10
sS'fairly'
p268
I201
sS'effortlessly'
p269
I10
sS'inadvertently'
p270
I8
sS'pg58'
p271
I9
sS'tuna'
p272
I5
sS'daddario'
p273
I6
sS'tune'
p274
I763
sS'simulates'
p275
I5
sS'acoustics'
p276
I70
sS'simulated'
p277
I5
sS'opinions'
p278
I8
sS'appropriately'
p279
I5
sS'whatnot'
p280
I6
sS'rotates'
p281
I7
sS'previous'
p282
I60
sS'ease'
p283
I90
sS'emphasis'
p284
I6
sS'easy'
p285
I1442
sS'footswitch'
p286
I37
sS'east'
p287
I5
sS'hat'
p288
I15
sS'keeley'
p289
I15
sS'knock'
p290
I50
sS'solid-state'
p291
I8
sS'satriani'
p292
I20
sS'desire'
p293
I11
sS'remind'
p294
I7
sS'steps'
p295
I16
sS'crowd'
p296
I11
sS'people'
p297
I416
sS'.60mm'
p298
I12
sS'bottom'
p299
I267
sS'rehearse'
p300
I5
sS'creative'
p301
I18
sS'fog'
p302
I12
sS'yoke'
p303
I8
sS'losing'
p304
I37
sS'pliers'
p305
I21
sS'manufacturing'
p306
I13
sS'dollars'
p307
I105
sS'miking'
p308
I5
sS'stoked'
p309
I6
sS'lacked'
p310
I6
sS'raised'
p311
I19
sS'marshall'
p312
I105
sS'tube-like'
p313
I9
sS'son'
p314
I152
sS'wrap'
p315
I25
sS'reducing'
p316
I9
sS'40-50'
p317
I6
sS'fabric'
p318
I22
sS'support'
p319
I118
sS'constantly'
p320
I53
sS'tame'
p321
I6
sS'width'
p322
I48
sS'tele'
p323
I73
sS'happy'
p324
I443
sS'manufacturers'
p325
I40
sS'gripes'
p326
I9
sS'd-35'
p327
I5
sS'inside'
p328
I218
sS'devices'
p329
I53
sS'nicest'
p330
I8
sS'soldering'
p331
I23
sS'palm'
p332
I16
sS'duet'
p333
I9
sS'panels'
p334
I5
sS'150'
p335
I36
sS'proved'
p336
I11
sS'to800'
p337
I6
sS'proven'
p338
I15
sS'exist'
p339
I11
sS'dealer'
p340
I14
sS'floor'
p341
I164
sS'role'
p342
I8
sS'becuase'
p343
I9
sS'smell'
p344
I52
sS'roll'
p345
I43
sS'reggae'
p346
I5
sS'intend'
p347
I14
sS'15w'
p348
I5
sS'models'
p349
I147
sS'ath-m50'
p350
I5
sS'invested'
p351
I8
sS'variable'
p352
I17
sS"'n"
p353
I6
sS'nyxls'
p354
I8
sS'windscreen'
p355
I33
sS'fastened'
p356
I5
sS'rockers'
p357
I5
sS'aroland'
p358
I5
sS'time'
p359
I1511
sS'push'
p360
I95
sS'davas'
p361
I8
sS'equalizer'
p362
I10
sS'newbie'
p363
I15
sS'chain'
p364
I116
sS'reviewers'
p365
I91
sS'activated'
p366
I12
sS'chair'
p367
I21
sS'amplification'
p368
I12
sS'downloading'
p369
I8
sS'olympus'
p370
I5
sS'choice'
p371
I168
sS'stays'
p372
I142
sS'fretting'
p373
I19
sS'exact'
p374
I66
sS'minute'
p375
I33
sS'peg'
p376
I72
sS'solves'
p377
I10
sS'tear'
p378
I33
sS'leave'
p379
I206
sS'solved'
p380
I37
sS'settle'
p381
I23
sS'team'
p382
I6
sS'loads'
p383
I10
sS'unaware'
p384
I5
sS'prevent'
p385
I55
sS'trails'
p386
I6
sS'sign'
p387
I12
sS'headset'
p388
I11
sS'axes'
p389
I8
sS'melt'
p390
I8
sS'current'
p391
I42
sS'300'
p392
I40
sS'falling'
p393
I55
sS'ground'
p394
I49
sS'boost'
p395
I249
sS'plucking'
p396
I12
sS'understanding'
p397
I7
sS'address'
p398
I18
sS'accomplishes'
p399
I6
sS'brilliant'
p400
I17
sS'commonly'
p401
I8
sS'accomplished'
p402
I9
sS'tasks'
p403
I5
sS'love'
p404
I975
sS'prefer'
p405
I283
sS'logical'
p406
I6
sS'marvelous'
p407
I6
sS'fake'
p408
I14
sS'rosewood'
p409
I28
sS'crammed'
p410
I5
sS'luthier'
p411
I13
sS'positive'
p412
I62
sS'tightly'
p413
I21
sS'opposed'
p414
I32
sS'wondering'
p415
I21
sS'sunburst'
p416
I8
sS'loving'
p417
I10
sS'scratched'
p418
I11
sS'afford'
p419
I73
sS'apparent'
p420
I12
sS'visual'
p421
I28
sS'scratches'
p422
I24
sS'easiest'
p423
I29
sS'originally'
p424
I40
sS'believer'
p425
I7
sS'soloing'
p426
I10
sS'zippers'
p427
I15
sS'tri-action'
p428
I17
sS'awesome'
p429
I282
sS'locks'
p430
I201
sS'hides'
p431
I5
sS'echos'
p432
I5
sS'235'
p433
I12
sS'monitoring'
p434
I28
sS'winter'
p435
I16
sS's1'
p436
I7
sS's6'
p437
I21
sS'toneprint'
p438
I7
sS'optimal'
p439
I5
sS'snaps'
p440
I17
sS'rigors'
p441
I5
sS'blasting'
p442
I5
sS'spot'
p443
I169
sS'applications'
p444
I37
sS'improving'
p445
I11
sS'suck'
p446
I41
sS'data'
p447
I12
sS'shockingly'
p448
I6
sS'supersonic'
p449
I5
sS'stress'
p450
I41
sS'sx'
p451
I5
sS'natural'
p452
I106
sS'ss'
p453
I7
sS'puller'
p454
I31
sS'sp'
p455
I18
sS'truck'
p456
I8
sS'sn'
p457
I7
sS'sm'
p458
I21
sS'pulled'
p459
I34
sS'se'
p460
I15
sS'sd'
p461
I15
sS'88-key'
p462
I6
sS'damage'
p463
I109
sS'aquila'
p464
I29
sS'tendency'
p465
I23
sS'jig'
p466
I5
sS'avid'
p467
I6
sS'disconnect'
p468
I13
sS'thumb'
p469
I77
sS'jim'
p470
I36
sS'sixties'
p471
I5
sS'playback'
p472
I29
sS'decades'
p473
I27
sS'no-brainer'
p474
I19
sS'instantly'
p475
I27
sS'matches'
p476
I22
sS'chromatic'
p477
I62
sS'records'
p478
I35
sS'drilling'
p479
I26
sS'maintaining'
p480
I12
sS'matched'
p481
I21
sS'reverb'
p482
I249
sS'quarter'
p483
I15
sS'repaired'
p484
I5
sS'turtle'
p485
I5
sS'square'
p486
I13
sS'canvas'
p487
I6
sS'container'
p488
I18
sS'recording.i'
p489
I5
sS'contained'
p490
I6
sS'internet'
p491
I35
sS'formula'
p492
I10
sS'lubricating'
p493
I5
sS'presets'
p494
I83
sS'possibility'
p495
I15
sS'bumps'
p496
I14
sS'complicated'
p497
I14
sS'emulation'
p498
I7
sS'pyle'
p499
I24
sS'training'
p500
I7
sS'workmanship'
p501
I12
sS'backside'
p502
I7
sS'dunno'
p503
I8
sS'programming'
p504
I6
sS'downsides'
p505
I6
sS'routed'
p506
I5
sS'one.i'
p507
I7
sS'massive'
p508
I14
sS'single-coil'
p509
I7
sS'bassy'
p510
I10
sS'saving'
p511
I25
sS'spoken'
p512
I8
sS'spanish'
p513
I7
sS'ons'
p514
I8
sS'custom'
p515
I113
sS'city'
p516
I8
sS'bite'
p517
I20
sS'2'
p518
I652
sS'uke'
p519
I206
sS'bits'
p520
I8
sS'stompbox'
p521
I21
sS'ableton'
p522
I24
sS'padding'
p523
I134
sS'ridiculous'
p524
I26
sS'fooled'
p525
I16
sS'bored'
p526
I6
sS'x3live'
p527
I7
sS'so-so'
p528
I7
sS'coats'
p529
I6
sS'future'
p530
I78
sS'glossy'
p531
I17
sS'drywall'
p532
I36
sS'nicer'
p533
I64
sS'time.i'
p534
I9
sS'sag'
p535
I5
sS'locations'
p536
I13
sS'sad'
p537
I14
sS'tastes'
p538
I15
sS'sax'
p539
I7
sS'allen'
p540
I5
sS'sat'
p541
I13
sS'note'
p542
I264
sS'altered'
p543
I6
sS'opposite'
p544
I14
sS'buffer'
p545
I14
sS'compress'
p546
I6
sS'printed'
p547
I14
sS'knee'
p548
I9
sS'inserted'
p549
I14
sS'buffed'
p550
I5
sS'average'
p551
I67
sS'drive'
p552
I137
sS'axe'
p553
I29
sS'multitrack'
p554
I6
sS'walking'
p555
I6
sS'us600'
p556
I9
sS'friction'
p557
I33
sS'bright'
p558
I362
sS'aggressive'
p559
I26
sS'imagined'
p560
I10
sS'slot'
p561
I34
sS'slow'
p562
I41
sS'punchy'
p563
I15
sS'recomended'
p564
I9
sS'equipped'
p565
I16
sS'beatles'
p566
I13
sS'c-1u'
p567
I5
sS'tilting'
p568
I8
sS'outlet'
p569
I28
sS'laguna'
p570
I9
sS'originals'
p571
I12
sS'prime'
p572
I28
sS'artist'
p573
I28
sS'hinges'
p574
I15
sS'worried'
p575
I38
sS'fenders'
p576
I26
sS'stratocaster'
p577
I76
sS'worries'
p578
I20
sS'banged'
p579
I8
sS'impressions'
p580
I6
sS'surgery'
p581
I5
sS'clips'
p582
I69
sS'sound-hole'
p583
I8
sS'jumped'
p584
I6
sS'sites'
p585
I12
sS'cs400'
p586
I8
sS'uninstalled'
p587
I5
sS'jobs'
p588
I9
sS'vertical'
p589
I20
sS'smooths'
p590
I6
sS'clayton'
p591
I9
sS'concentrate'
p592
I5
sS'spare'
p593
I64
sS'fretboard'
p594
I110
sS'loudly'
p595
I9
sS'expression'
p596
I17
sS'twin'
p597
I38
sS'boat'
p598
I10
sS'stretch'
p599
I54
sS'mounting'
p600
I59
sS'locally'
p601
I19
sS'breath'
p602
I9
sS'combined'
p603
I25
sS'enable'
p604
I11
sS'sturdily'
p605
I10
sS'readings'
p606
I6
sS'photos'
p607
I10
sS'tightened'
p608
I20
sS'.the'
p609
I39
sS'zippered'
p610
I10
sS'true-bypass'
p611
I5
sS'situation'
p612
I41
sS'ive'
p613
I41
sS'engaged'
p614
I24
sS'reliefs'
p615
I9
sS'pinky'
p616
I6
sS'ambient'
p617
I28
sS'technology'
p618
I25
sS'it..'
p619
I12
sS'verified'
p620
I5
sS'wiring'
p621
I19
sS'visually'
p622
I9
sS'wires'
p623
I43
sS'boosted'
p624
I12
sS'cheers'
p625
I25
sS'bulletproof'
p626
I5
sS'edges'
p627
I52
sS'wired'
p628
I11
sS'hummingbird'
p629
I6
sS'tracking'
p630
I17
sS'it.i'
p631
I35
sS'customized'
p632
I5
sS'costs'
p633
I92
sS'dimension'
p634
I6
sS'summer'
p635
I12
sS'sprayed'
p636
I6
sS'212'
p637
I5
sS'rest'
p638
I127
sS'outboard'
p639
I7
sS'plugged'
p640
I205
sS'weekly'
p641
I10
sS'hofner'
p642
I5
sS'mandolin'
p643
I173
sS'instrument'
p644
I686
sS'aspects'
p645
I8
sS'dark'
p646
I69
sS'snark'
p647
I292
sS'preference'
p648
I56
sS'vacuum'
p649
I6
sS'snare'
p650
I34
sS'satisfaction'
p651
I10
sS'modtone'
p652
I8
sS'pole'
p653
I11
sS'stationary'
p654
I8
sS'satisfactory'
p655
I5
sS'existing'
p656
I20
sS'piezo'
p657
I21
sS'dimensions'
p658
I17
sS'tote'
p659
I7
sS'cavity'
p660
I6
sS'tube'
p661
I505
sS'digitech'
p662
I79
sS'power'
p663
I764
sS'retains'
p664
I8
sS'iconic'
p665
I6
sS'ratios'
p666
I5
sS'standpoint'
p667
I8
sS'stone'
p668
I10
sS'package'
p669
I145
sS'industry'
p670
I21
sS'favorite'
p671
I216
sS'fraying'
p672
I6
sS'us-322'
p673
I6
sS'lively'
p674
I7
sS'parties'
p675
I5
sS'pivot'
p676
I10
sS'technically'
p677
I9
sS'hex'
p678
I7
sS'hey'
p679
I36
sS'sealed'
p680
I18
sS'recommends'
p681
I6
sS'complete'
p682
I46
sS'mics'
p683
I277
sS'beginners'
p684
I58
sS'survived'
p685
I8
sS'clones'
p686
I15
sS'impedance'
p687
I23
sS'buying'
p688
I290
sS'amplify'
p689
I19
sS'abused'
p690
I13
sS'pull'
p691
I101
sS'rush'
p692
I10
sS'rage'
p693
I5
sS'hooray'
p694
I6
sS'dirty'
p695
I72
sS'agree'
p696
I53
sS'rust'
p697
I20
sS'darker'
p698
I34
sS'aa'
p699
I12
sS'ohm'
p700
I6
sS'ac'
p701
I99
sS'ad'
p702
I17
sS'johnny'
p703
I6
sS'ai'
p704
I12
sS'laminated'
p705
I7
sS'ax'
p706
I7
sS'cream'
p707
I10
sS'novice'
p708
I22
sS'tight'
p709
I248
sS'puppy'
p710
I11
sS'spectraflex'
p711
I12
sS'a+'
p712
I8
sS'dented'
p713
I8
sS'gifts'
p714
I9
sS'tricky'
p715
I21
sS'tricks'
p716
I11
sS'mass'
p717
I18
sS'original'
p718
I196
sS'discernible'
p719
I8
sS'caused'
p720
I24
sS'beware'
p721
I17
sS'ceramic'
p722
I6
sS'fairness'
p723
I5
sS'tv'
p724
I19
sS'tail'
p725
I8
sS'alvarez'
p726
I10
sS'smile'
p727
I7
sS'aquilas'
p728
I7
sS'peavey'
p729
I37
sS'tc'
p730
I39
sS'ta'
p731
I41
sS'returned'
p732
I65
sS'manageable'
p733
I7
sS'condition'
p734
I50
sS'4-5'
p735
I7
sS'hooking'
p736
I10
sS'sans'
p737
I5
sS'cable'
p738
I1021
sS'accompanying'
p739
I5
sS'laying'
p740
I30
sS'sand'
p741
I13
sS'adjust'
p742
I226
sS'quicker'
p743
I20
sS'displays'
p744
I16
sS'pass'
p745
I49
sS'investment'
p746
I51
sS'sennheiser'
p747
I19
sS'clock'
p748
I12
sS'method'
p749
I17
sS'contrast'
p750
I16
sS'replaceable'
p751
I5
sS'wuhan'
p752
I8
sS'buzzing'
p753
I33
sS'welded'
p754
I9
sS'experience'
p755
I188
sS'pics'
p756
I40
sS'prior'
p757
I34
sS'pick'
p758
I975
sS'action'
p759
I167
sS'vic'
p760
I9
sS'12-string'
p761
I26
sS'indoors'
p762
I5
sS'full-sized'
p763
I9
sS'pulls'
p764
I9
sS'select'
p765
I37
sS'jf-01'
p766
I5
sS'jf-02'
p767
I10
sS'jf-03'
p768
I5
sS'pearl'
p769
I19
sS'well.the'
p770
I8
sS'6'
p771
I388
sS'firth'
p772
I8
sS'resonator'
p773
I13
sS'teen'
p774
I6
sS'door'
p775
I29
sS'tester'
p776
I8
sS'company'
p777
I109
sS'corrected'
p778
I8
sS'tested'
p779
I80
sS'sizing'
p780
I7
sS'keeping'
p781
I107
sS'science'
p782
I7
sS'delrin'
p783
I10
sS'thickest'
p784
I6
sS'scarlett'
p785
I10
sS'learn'
p786
I104
sS'knocked'
p787
I24
sS'seagull'
p788
I44
sS'male'
p789
I34
sS'beautiful'
p790
I100
sS'prompt'
p791
I13
sS'stated'
p792
I52
sS'suggestions'
p793
I10
sS'accept'
p794
I11
sS'sense'
p795
I78
sS'disliked'
p796
I5
sS'axis'
p797
I5
sS'huge'
p798
I141
sS'enlarge'
p799
I7
sS'elixer'
p800
I9
sS'plans'
p801
I5
sS'waves'
p802
I268
sS'authentic'
p803
I22
sS'flutter'
p804
I5
sS'refuse'
p805
I7
sS'm68'
p806
I5
sS'twisting'
p807
I7
sS'broadcasting'
p808
I7
sS'wrench'
p809
I10
sS'fender'
p810
I903
sS'passages'
p811
I5
sS'mexican'
p812
I9
sS'installed'
p813
I179
sS'attitude'
p814
I5
sS'paper'
p815
I54
sS'signs'
p816
I10
sS'bummed'
p817
I6
sS'licks'
p818
I10
sS'rapidly'
p819
I8
sS'wipe'
p820
I53
sS'ruining'
p821
I6
sS'bummer'
p822
I8
sS'nifty'
p823
I10
sS'travelling'
p824
I6
sS'snobs'
p825
I8
sS'it-'
p826
I5
sS'severely'
p827
I7
sS'sucker'
p828
I5
sS'gadget'
p829
I38
sS'snowball'
p830
I19
sS'sucked'
p831
I11
sS'shopped'
p832
I5
sS'everytime'
p833
I9
sS'floors'
p834
I6
sS'bends'
p835
I27
sS'reduce'
p836
I36
sS'operation'
p837
I34
sS'silky'
p838
I7
sS'missed'
p839
I15
sS'ernie'
p840
I167
sS'soundhole'
p841
I25
sS'hangers'
p842
I36
sS'occurs'
p843
I5
sS'imagine'
p844
I80
sS'bumped'
p845
I19
sS'owners'
p846
I9
sS'ampeg'
p847
I22
sS'multi-pattern'
p848
I5
sS'positioning'
p849
I10
sS'retainer'
p850
I7
sS'delicate'
p851
I20
sS'major'
p852
I64
sS'slipped'
p853
I11
sS'unusable'
p854
I20
sS'humidifiers'
p855
I15
sS'guess'
p856
I193
sS'fuller'
p857
I28
sS'leverage'
p858
I7
sS'jet'
p859
I12
sS'swipe'
p860
I5
sS'moderately'
p861
I10
sS'flimsy'
p862
I66
sS'relationship'
p863
I7
sS'pr-40'
p864
I9
sS'stairs'
p865
I6
sS'grace'
p866
I7
sS'aaa'
p867
I15
sS'vocal'
p868
I96
sS'ohms'
p869
I7
sS'determined'
p870
I8
sS'playability'
p871
I44
sS'defect'
p872
I8
sS'micro-fiber'
p873
I9
sS'sell'
p874
I64
sS'tarnish'
p875
I6
sS'odd'
p876
I31
sS'internal'
p877
I56
sS'knobs'
p878
I260
sS'brace'
p879
I8
sS'play'
p880
I1286
sS'unused'
p881
I8
sS'3x'
p882
I5
sS'plan'
p883
I94
sS'pliable'
p884
I6
sS'fullbore'
p885
I12
sS'exl'
p886
I5
sS'cover'
p887
I139
sS'ext'
p888
I6
sS'exp'
p889
I15
sS'gold'
p890
I92
sS'session'
p891
I39
sS'impact'
p892
I17
sS'indicator'
p893
I17
sS'dd-3'
p894
I5
sS'dd-7'
p895
I8
sS'failed'
p896
I51
sS'cassette'
p897
I8
sS'removable'
p898
I12
sS'factor'
p899
I46
sS'dependent'
p900
I7
sS'beams'
p901
I6
sS'problem.the'
p902
I5
sS'closely'
p903
I12
sS'untreated'
p904
I9
sS'i/o'
p905
I7
sS'sleeve'
p906
I14
sS'cry'
p907
I21
sS'river'
p908
I7
sS'bulky'
p909
I40
sS'set'
p910
I999
sS'ac15c1'
p911
I6
sS'creator'
p912
I5
sS'analog'
p913
I110
sS'baritone'
p914
I20
sS'muted'
p915
I24
sS'movie'
p916
I6
sS'pickup'
p917
I189
sS'nope'
p918
I18
sS'compliment'
p919
I12
sS'mutes'
p920
I8
sS'knowing'
p921
I27
sS'interface'
p922
I176
sS'improved'
p923
I59
sS'harps'
p924
I33
sS'barely'
p925
I68
sS'connection'
p926
I81
sS'improves'
p927
I12
sS'long-term'
p928
I5
sS'pdf'
p929
I5
sS'load'
p930
I33
sS'drunk'
p931
I6
sS'smashing'
p932
I6
sS'community'
p933
I6
sS'hollow'
p934
I16
sS'church'
p935
I56
sS'improvement'
p936
I65
sS'protools'
p937
I6
sS'belt'
p938
I29
sS'worthless'
p939
I16
sS'hitting'
p940
I32
sS'synth'
p941
I12
sS'firm'
p942
I27
sS'resting'
p943
I11
sS'champion'
p944
I7
sS'fire'
p945
I13
sS'casing'
p946
I24
sS'sleeves'
p947
I7
sS'adjustability'
p948
I10
sS'funk'
p949
I12
sS'tweaked'
p950
I12
sS'handling'
p951
I29
sS'reliable'
p952
I102
sS'budget'
p953
I144
sS'receive'
p954
I23
sS'pressed'
p955
I13
sS'reliably'
p956
I7
sS'leaning'
p957
I13
sS'hardshell'
p958
I11
sS'real'
p959
I328
sS'pound'
p960
I12
sS'hoping'
p961
I59
sS'binding'
p962
I10
sS'motu'
p963
I5
sS'triple'
p964
I11
sS'beautifully'
p965
I48
sS'vox'
p966
I125
sS'funny'
p967
I16
sS'mins'
p968
I8
sS'shorted'
p969
I7
sS'fibers'
p970
I6
sS'5.00'
p971
I5
sS'shorter'
p972
I50
sS'rules'
p973
I7
sS'2032'
p974
I5
sS'yeti'
p975
I61
sS'cigar'
p976
I9
sS'makala'
p977
I5
sS'viewing'
p978
I9
sS'levels'
p979
I94
sS'stack'
p980
I37
sS'picky'
p981
I22
sS'picks'
p982
I1246
sS'concrete'
p983
I6
sS'strobe'
p984
I16
sS'clearance'
p985
I8
sS'detract'
p986
I7
sS'hercules'
p987
I52
sS'crackles'
p988
I11
sS'surprises'
p989
I9
sS'chest'
p990
I5
sS'signals'
p991
I9
sS'snappy'
p992
I5
sS'location'
p993
I24
sS'input'
p994
I232
sS'surprised'
p995
I158
sS'shove'
p996
I5
sS'emergency'
p997
I12
sS'format'
p998
I14
sS'couple'
p999
I381
sS'tweaks'
p1000
I11
sS'quest'
p1001
I12
sS'projects'
p1002
I24
sS'chorus'
p1003
I136
sS'continue'
p1004
I64
sS'stylish'
p1005
I6
sS'spins'
p1006
I6
sS'clipping'
p1007
I28
sS'reducer'
p1008
I7
sS'sheraton'
p1009
I19
sS'spring'
p1010
I158
sS'b.'
p1011
I8
sS'bounce'
p1012
I9
sS'mighty'
p1013
I12
sS'sight'
p1014
I8
sS'curious'
p1015
I16
sS'momentary'
p1016
I8
sS'strings.i'
p1017
I14
sS'and/or'
p1018
I34
sS'measurements'
p1019
I7
sS'novelty'
p1020
I8
sS'behave'
p1021
I5
sS'inserting'
p1022
I10
sS'bb'
p1023
I15
sS'bc'
p1024
I7
sS'performed'
p1025
I23
sS'odor'
p1026
I8
sS'bs'
p1027
I6
sS'cranked'
p1028
I41
sS'exaggerated'
p1029
I6
sS'well-built'
p1030
I6
sS'deserves'
p1031
I12
sS'repair'
p1032
I25
sS'garbage'
p1033
I18
sS'no-name'
p1034
I5
sS'span'
p1035
I8
sS'spending'
p1036
I55
sS'u2'
p1037
I8
sS'downloadable'
p1038
I5
sS'suit'
p1039
I30
sS'considerably'
p1040
I15
sS'jacks'
p1041
I77
sS'inches'
p1042
I62
sS'lint'
p1043
I13
sS'buttery'
p1044
I5
sS'link'
p1045
I22
sS'considerable'
p1046
I9
sS'posted'
p1047
I19
sS'fades'
p1048
I5
sS'ur'
p1049
I13
sS'paired'
p1050
I14
sS'uh'
p1051
I6
sS'faded'
p1052
I12
sS'storing'
p1053
I16
sS'defined'
p1054
I16
sS'influence'
p1055
I7
sS'diverse'
p1056
I6
sS'full-size'
p1057
I8
sS'phantom'
p1058
I66
sS'6-string'
p1059
I16
sS'fixing'
p1060
I8
sS'occasional'
p1061
I26
sS'coded'
p1062
I22
sS'jcm'
p1063
I5
sS'elements'
p1064
I9
sS'sided'
p1065
I10
sS'long-lasting'
p1066
I8
sS'cranking'
p1067
I8
sS'ago'
p1068
I219
sS'age'
p1069
I18
sS'holes'
p1070
I169
sS'fresh'
p1071
I35
sS'code'
p1072
I10
sS'partial'
p1073
I14
sS'scooped'
p1074
I17
sS'scratch'
p1075
I59
sS'cobalt'
p1076
I12
sS'enjoyable'
p1077
I10
sS'toggle'
p1078
I24
sS'softer'
p1079
I48
sS'broader'
p1080
I5
sS'flashback'
p1081
I6
sS'quality.i'
p1082
I6
sS'cheapy'
p1083
I5
sS'concerned'
p1084
I55
sS'send'
p1085
I59
sS'cheapo'
p1086
I19
sS'switchcraft'
p1087
I8
sS'dislike'
p1088
I13
sS'indicating'
p1089
I5
sS'uploaded'
p1090
I8
sS'h4n'
p1091
I27
sS'continues'
p1092
I9
sS'mixing'
p1093
I49
sS'continued'
p1094
I5
sS'recorder'
p1095
I81
sS'timely'
p1096
I8
sS'magic'
p1097
I16
sS'transmission'
p1098
I6
sS'experiencing'
p1099
I8
sS'fewer'
p1100
I6
sS'trs'
p1101
I33
sS'rack'
p1102
I114
sS'rickenbacker'
p1103
I6
sS'video'
p1104
I81
sS'dynamics'
p1105
I25
sS'spaghetti'
p1106
I5
sS'asap'
p1107
I6
sS'sweaty'
p1108
I16
sS'consistently'
p1109
I18
sS'to.the'
p1110
I6
sS'led'
p1111
I109
sS'lee'
p1112
I12
sS'leg'
p1113
I37
sS'punch'
p1114
I57
sS'delivering'
p1115
I6
sS'rv600'
p1116
I7
sS'octave'
p1117
I47
sS'consideration'
p1118
I15
sS'invented'
p1119
I7
sS'fifteen'
p1120
I7
sS'engage'
p1121
I21
sS'cts'
p1122
I5
sS'technical'
p1123
I16
sS'involved'
p1124
I12
sS'opinion'
p1125
I165
sS'maker'
p1126
I13
sS'buffered'
p1127
I5
sS'335'
p1128
I10
sS'boxy'
p1129
I9
sS'tools'
p1130
I54
sS'standing'
p1131
I43
sS'confidence'
p1132
I26
sS'zip'
p1133
I8
sS'chording'
p1134
I5
sS'doubt'
p1135
I61
sS'telecasters'
p1136
I12
sS'unplug'
p1137
I21
sS'carrying'
p1138
I50
sS'baby'
p1139
I79
sS'gladly'
p1140
I5
sS'customer'
p1141
I69
sS'balls'
p1142
I30
sS'practicing'
p1143
I69
sS'portability'
p1144
I29
sS'challenge'
p1145
I15
sS'reproduce'
p1146
I6
sS'rubberized'
p1147
I6
sS'thin'
p1148
I214
sS'drill'
p1149
I83
sS'slid'
p1150
I12
sS'weaker'
p1151
I5
sS'gt-10'
p1152
I15
sS'bent'
p1153
I32
sS'pawn'
p1154
I7
sS'process'
p1155
I53
sS'lock'
p1156
I149
sS'slim'
p1157
I12
sS'rode'
p1158
I10
sS'purposes'
p1159
I46
sS'pieces'
p1160
I85
sS'spruce'
p1161
I17
sS'slit'
p1162
I6
sS'on/off'
p1163
I67
sS'bend'
p1164
I120
sS'slip'
p1165
I75
sS'rods'
p1166
I6
sS'trumpet'
p1167
I7
sS'lunchbox'
p1168
I13
sS'delay'
p1169
I327
sS'pair'
p1170
I92
sS'swivels'
p1171
I7
sS're-tune'
p1172
I7
sS'gt-100'
p1173
I5
sS'contraption'
p1174
I5
sS'abrasive'
p1175
I6
sS'blocks'
p1176
I16
sS'11-52'
p1177
I5
sS'tied'
p1178
I10
sS'notebook'
p1179
I6
sS'fits'
p1180
I363
sS'ties'
p1181
I14
sS'racks'
p1182
I7
sS'realized'
p1183
I45
sS'noises'
p1184
I31
sS'redundant'
p1185
I5
sS'element'
p1186
I8
sS'alloy'
p1187
I7
sS'produces'
p1188
I60
sS'volts'
p1189
I10
sS'move'
p1190
I177
sS'produced'
p1191
I26
sS'peavy'
p1192
I6
sS'perfect'
p1193
I727
sS'decay'
p1194
I10
sS'chosen'
p1195
I9
sS'degrees'
p1196
I21
sS'hobby'
p1197
I13
sS'2011'
p1198
I11
sS'2010'
p1199
I19
sS'2013'
p1200
I13
sS'2012'
p1201
I17
sS'designs'
p1202
I9
sS'bat'
p1203
I8
sS'ship'
p1204
I25
sS'dock'
p1205
I5
sS'nady'
p1206
I13
sS'bothering'
p1207
I6
sS'legendary'
p1208
I5
sS'rotation'
p1209
I7
sS'realize'
p1210
I57
sS'clip-on'
p1211
I42
sS'vibrations'
p1212
I32
sS'truth'
p1213
I20
sS'glasses'
p1214
I11
sS'beginner'
p1215
I139
sS'bump'
p1216
I32
sS'ambiance'
p1217
I6
sS'frequency'
p1218
I80
sS'static'
p1219
I29
sS"'"
p1220
I493
sS'boutique'
p1221
I41
sS'valve'
p1222
I11
sS'shut'
p1223
I11
sS'.73mm'
p1224
I8
sS'tempo'
p1225
I29
sS'surely'
p1226
I11
sS'shortest'
p1227
I9
sS'latches'
p1228
I15
sS'david'
p1229
I14
sS'length'
p1230
I163
sS'lanikai'
p1231
I11
sS'assumed'
p1232
I9
sS'great.the'
p1233
I6
sS'repeats'
p1234
I18
sS'r-09'
p1235
I5
sS'lettering'
p1236
I9
sS'touring'
p1237
I13
sS'owned'
p1238
I190
sS'owner'
p1239
I23
sS'blows'
p1240
I17
sS'scent'
p1241
I9
sS'behaves'
p1242
I6
sS'system'
p1243
I176
sS'percussion'
p1244
I11
sS'painful'
p1245
I9
sS'stars'
p1246
I347
sS'seymour'
p1247
I11
sS'adaptor'
p1248
I44
sS'gigbag'
p1249
I6
sS'steel'
p1250
I155
sS'bother'
p1251
I52
sS'appealing'
p1252
I6
sS'reproduction'
p1253
I16
sS'imho'
p1254
I32
sS'collecting'
p1255
I7
sS'counter'
p1256
I11
sS'false'
p1257
I7
sS'j74'
p1258
I5
sS'trusting'
p1259
I5
sS'gently'
p1260
I21
sS'gentle'
p1261
I33
sS'viewed'
p1262
I6
sS'heft'
p1263
I13
sS'soak'
p1264
I11
sS'mechanism'
p1265
I50
sS'soap'
p1266
I11
sS'accuracy'
p1267
I56
sS'regard'
p1268
I19
sS'pitches'
p1269
I8
sS'**'
p1270
I12
sS'device'
p1271
I270
sS'placement'
p1272
I33
sS'stronger'
p1273
I33
sS'mechanical'
p1274
I13
sS'it.so'
p1275
I5
sS'bring'
p1276
I84
sS'bedroom'
p1277
I28
sS'rough'
p1278
I66
sS'decade'
p1279
I11
sS'mute'
p1280
I54
sS'well.i'
p1281
I23
sS'buttons'
p1282
I122
sS'jam'
p1283
I133
sS'tape'
p1284
I96
sS'hope'
p1285
I90
sS'meant'
p1286
I56
sS'handle'
p1287
I133
sS'listened'
p1288
I15
sS'familiar'
p1289
I26
sS'lucky'
p1290
I16
sS'wiggle'
p1291
I6
sS'shaping'
p1292
I11
sS'well..'
p1293
I5
sS'all.the'
p1294
I6
sS'stuff'
p1295
I308
sS'withstand'
p1296
I14
sS'btw'
p1297
I11
sS'frame'
p1298
I16
sS'edition'
p1299
I5
sS'nanowebs'
p1300
I14
sS'packed'
p1301
I29
sS'coils'
p1302
I22
sS'wire'
p1303
I112
sS'quickest'
p1304
I5
sS'email'
p1305
I11
sS'pedal.i'
p1306
I9
sS'hitch'
p1307
I6
sS'at2020'
p1308
I32
sS'shapes'
p1309
I12
sS'configuration'
p1310
I27
sS'figured'
p1311
I109
sS'drum'
p1312
I170
sS'fingerstyle'
p1313
I10
sS'recorders'
p1314
I21
sS'gorgeous'
p1315
I8
sS'adjusted'
p1316
I67
sS'conclude'
p1317
I6
sS'cm-100l'
p1318
I6
sS'cd'
p1319
I32
sS'adjuster'
p1320
I9
sS'cr'
p1321
I5
sS'rougher'
p1322
I6
sS'.one'
p1323
I6
sS'powered'
p1324
I84
sS'rockband'
p1325
I5
sS'waste'
p1326
I38
sS'>'
p1327
I13
sS'graphics'
p1328
I7
sS'cardioid'
p1329
I19
sS'c1'
p1330
I12
sS'laser'
p1331
I10
sS'suppressor'
p1332
I6
sS'podcasts'
p1333
I11
sS'ultra'
p1334
I21
sS've'
p1335
I14
sS'omni'
p1336
I6
sS'2mm'
p1337
I5
sS'insanely'
p1338
I5
sS'lush'
p1339
I16
sS'site'
p1340
I33
sS'hardware'
p1341
I117
sS'counterweight'
p1342
I6
sS'tenor'
p1343
I40
sS'sits'
p1344
I49
sS'pauls'
p1345
I10
sS'digging'
p1346
I18
sS'pickin'
p1347
I5
sS'incorrect'
p1348
I6
sS'ball'
p1349
I235
sS'if/when'
p1350
I5
sS'drink'
p1351
I8
sS'v1'
p1352
I9
sS'v2'
p1353
I5
sS'v5'
p1354
I8
sS'infinite'
p1355
I6
sS'expand'
p1356
I10
sS'pleasantly'
p1357
I34
sS'shotgun'
p1358
I7
sS'colour'
p1359
I7
sS'patterns'
p1360
I17
sS'daw'
p1361
I39
sS'351'
p1362
I9
sS'350'
p1363
I7
sS'audio'
p1364
I292
sS'drawing'
p1365
I8
sS'sandpaper'
p1366
I9
sS'octaves'
p1367
I6
sS'moments'
p1368
I5
sS'crackle'
p1369
I6
sS'paul'
p1370
I219
sS'glue'
p1371
I52
sS'unplugged'
p1372
I26
sS'clipper'
p1373
I10
sS'web'
p1374
I33
sS'generous'
p1375
I5
sS'wee'
p1376
I11
sS'transparent'
p1377
I47
sS'combine'
p1378
I11
sS'clipped'
p1379
I42
sS'crack'
p1380
I16
sS'wimpy'
p1381
I9
sS'increased'
p1382
I22
sS'checking'
p1383
I37
sS'isolators'
p1384
I6
sS'crud'
p1385
I11
sS'haul'
p1386
I7
sS'cedar'
p1387
I16
sS'desk'
p1388
I86
sS'passable'
p1389
I6
sS'bullets'
p1390
I14
sS'crisp'
p1391
I68
sS'garage'
p1392
I47
sS'inexperienced'
p1393
I6
sS'replacement'
p1394
I129
sS'vst'
p1395
I7
sS'daylight'
p1396
I7
sS'choosing'
p1397
I9
sS'flush'
p1398
I16
sS'hissing'
p1399
I19
sS'humming'
p1400
I6
sS'transport'
p1401
I42
sS'literally'
p1402
I53
sS'avoid'
p1403
I56
sS'sustain'
p1404
I209
sS'selecting'
p1405
I10
sS'pressure'
p1406
I91
sS'cordless'
p1407
I7
sS'vs.'
p1408
I10
sS'stage'
p1409
I299
sS'sister'
p1410
I5
sS'krk'
p1411
I5
sS'irig'
p1412
I12
sS'on-stage'
p1413
I14
sS'whistles'
p1414
I12
sS'reproducing'
p1415
I8
sS'9volt'
p1416
I16
sS'software'
p1417
I198
sS'out.i'
p1418
I8
sS'letters'
p1419
I13
sS'screamer'
p1420
I37
sS'retune'
p1421
I12
sS'luna'
p1422
I5
sS'mere'
p1423
I10
sS'housing'
p1424
I40
sS'spots'
p1425
I28
sS'sp-2'
p1426
I5
sS'frustration'
p1427
I9
sS'sanded'
p1428
I8
sS'yrs'
p1429
I5
sS'naturally'
p1430
I17
sS'function'
p1431
I110
sS'no-frills'
p1432
I6
sS'delivery'
p1433
I42
sS'lowered'
p1434
I9
sS'delivers'
p1435
I40
sS'count'
p1436
I20
sS'tossed'
p1437
I9
sS'teles'
p1438
I10
sS'smooth'
p1439
I200
sS'reinforcement'
p1440
I5
sS'books'
p1441
I28
sS'distribution'
p1442
I5
sS'sat800'
p1443
I10
sS'irish'
p1444
I6
sS'recognize'
p1445
I16
sS'at2035'
p1446
I5
sS'ins'
p1447
I14
sS'compared'
p1448
I228
sS'variety'
p1449
I118
sS'compares'
p1450
I15
sS'thermoplastic'
p1451
I14
sS'repeat'
p1452
I17
sS'outlets'
p1453
I9
sS'chance'
p1454
I81
sS'badass'
p1455
I9
sS'coloration'
p1456
I12
sS'lasted'
p1457
I49
sS'rule'
p1458
I17
sS'compete'
p1459
I8
sS'hd-28'
p1460
I5
sS'searched'
p1461
I10
sS'straploks'
p1462
I7
sS'kysers'
p1463
I5
sS'saver'
p1464
I15
sS'saves'
p1465
I38
sS'saved'
p1466
I35
sS'worth'
p1467
I546
sS'blanket'
p1468
I5
sS'distort'
p1469
I8
sS'sellers'
p1470
I8
sS'progression'
p1471
I5
sS'pinch'
p1472
I29
sS'humidity'
p1473
I53
sS'phones'
p1474
I27
sS'specs'
p1475
I31
sS'machines'
p1476
I12
sS'+'
p1477
I51
sS'neat'
p1478
I31
sS'told'
p1479
I59
sS'crunch'
p1480
I95
sS'simultaneously'
p1481
I16
sS'protection'
p1482
I67
sS'textured'
p1483
I16
sS'studs'
p1484
I17
sS'kudos'
p1485
I5
sS'daughter'
p1486
I58
sS'items'
p1487
I63
sS'study'
p1488
I13
sS'itunes'
p1489
I7
sS'smoke'
p1490
I7
sS'gls'
p1491
I37
sS'akg'
p1492
I16
sS'diameter'
p1493
I35
sS'secure'
p1494
I122
sS'highly'
p1495
I437
sS'sparkling'
p1496
I9
sS'glance'
p1497
I12
sS'total'
p1498
I51
sS'experimentation'
p1499
I7
sS'.well'
p1500
I5
sS'gloss'
p1501
I8
sS'negative'
p1502
I78
sS'bundled'
p1503
I8
sS'abusing'
p1504
I7
sS'snarks'
p1505
I39
sS'haha'
p1506
I18
sS'aware'
p1507
I61
sS'1990'
p1508
I5
sS'word'
p1509
I52
sS'wore'
p1510
I12
sS'worn'
p1511
I27
sS'era'
p1512
I7
sS'mechanic'
p1513
I7
sS'elbow'
p1514
I5
sS'violin'
p1515
I144
sS'ukes'
p1516
I32
sS'provide'
p1517
I127
sS'verify'
p1518
I6
sS'chameleon'
p1519
I6
sS'nuts'
p1520
I32
sS'disappoint'
p1521
I14
sS'ordinary'
p1522
I12
sS'beach'
p1523
I11
sS'pizza'
p1524
I8
sS'firebox'
p1525
I7
sS'reamer'
p1526
I9
sS'earlier'
p1527
I32
sS'lab'
p1528
I15
sS'lay'
p1529
I20
sS'0.60mm'
p1530
I6
sS'law'
p1531
I5
sS'lap'
p1532
I9
sS'rogue'
p1533
I30
sS'green'
p1534
I82
sS'fan'
p1535
I93
sS'office'
p1536
I13
sS'satisfied'
p1537
I98
sS'fab'
p1538
I39
sS'6.5'
p1539
I7
sS'slimmer'
p1540
I5
sS'blown'
p1541
I35
sS'pricier'
p1542
I6
sS'production'
p1543
I24
sS'workable'
p1544
I10
sS'split'
p1545
I12
sS'versus'
p1546
I23
sS'eventually'
p1547
I60
sS'coffee'
p1548
I8
sS'safe'
p1549
I62
sS'break'
p1550
I270
sS'band'
p1551
I258
sS'bang'
p1552
I37
sS'fear'
p1553
I19
sS'bank'
p1554
I31
sS'pegs'
p1555
I88
sS'rocks'
p1556
I31
sS'reasonable'
p1557
I88
sS'dings'
p1558
I6
sS'logo'
p1559
I48
sS'pickguard'
p1560
I51
sS'hooked'
p1561
I53
sS'forty'
p1562
I5
sS'sliding'
p1563
I30
sS'gigged'
p1564
I11
sS'oskar'
p1565
I7
sS'tops'
p1566
I16
sS'standard'
p1567
I369
sS'created'
p1568
I24
sS'installs'
p1569
I8
sS'creates'
p1570
I13
sS'flawless'
p1571
I17
sS'pignose'
p1572
I16
sS'organize'
p1573
I5
sS'daunting'
p1574
I5
sS'thick'
p1575
I197
sS'tangle'
p1576
I6
sS'electronic'
p1577
I58
sS'mojo'
p1578
I6
sS'rated'
p1579
I30
sS'vibrato'
p1580
I28
sS'opportunity'
p1581
I16
sS'vibrate'
p1582
I8
sS'gut'
p1583
I5
sS'compromise'
p1584
I19
sS'observations'
p1585
I8
sS'airy'
p1586
I6
sS'john'
p1587
I16
sS'dogs'
p1588
I9
sS'damaging'
p1589
I18
sS'5-10'
p1590
I7
sS'happily'
p1591
I9
sS'wasted'
p1592
I14
sS'guild'
p1593
I12
sS'target'
p1594
I7
sS'magnet'
p1595
I5
sS'seated'
p1596
I8
sS'ebay'
p1597
I22
sS'iron'
p1598
I17
sS'ypg-235'
p1599
I8
sS'solely'
p1600
I6
sS'minus'
p1601
I14
sS'manner'
p1602
I18
sS'gear'
p1603
I192
sS'latency'
p1604
I41
sS'quieter'
p1605
I21
sS'strength'
p1606
I38
sS'genuine'
p1607
I22
sS'convenient'
p1608
I88
sS'shorts'
p1609
I6
sS'808'
p1610
I11
sS'forces'
p1611
I5
sS'snowflake'
p1612
I13
sS'extending'
p1613
I6
sS'optimized'
p1614
I8
sS'germany'
p1615
I10
sS'claims'
p1616
I26
sS'phase'
p1617
I50
sS'consumers'
p1618
I5
sS'bracket'
p1619
I11
sS'responded'
p1620
I5
sS'fitted'
p1621
I9
sS'fussy'
p1622
I7
sS'shubb'
p1623
I30
sS'subtle'
p1624
I62
sS'd5'
p1625
I5
sS'enjoyed'
p1626
I10
sS'toast'
p1627
I5
sS'guidance'
p1628
I5
sS'adequate'
p1629
I58
sS'dj'
p1630
I32
sS'di'
p1631
I40
sS'de'
p1632
I6
sS'db'
p1633
I16
sS'dc'
p1634
I27
sS'preferred'
p1635
I28
sS'degradation'
p1636
I10
sS'nasty'
p1637
I23
sS'dr'
p1638
I47
sS'cleanly'
p1639
I12
sS'runs'
p1640
I42
sS'covering'
p1641
I20
sS'hohner'
p1642
I26
sS'headstock'
p1643
I225
sS'identify'
p1644
I13
sS'steal'
p1645
I34
sS'human'
p1646
I12
sS'w/'
p1647
I19
sS'depends'
p1648
I26
sS'lacquer'
p1649
I9
sS'optimum'
p1650
I6
sS'techniques'
p1651
I10
sS'wahs'
p1652
I6
sS'draws'
p1653
I5
sS'fingerboard'
p1654
I36
sS'bracing'
p1655
I5
sS'humidipak'
p1656
I5
sS'terms'
p1657
I55
sS'wo'
p1658
I382
sS'handful'
p1659
I7
sS'packaged'
p1660
I48
sS'oomph'
p1661
I7
sS'kitchen'
p1662
I6
sS'received'
p1663
I161
sS'climate'
p1664
I9
sS'ds-1'
p1665
I55
sS'strummed'
p1666
I6
sS'overdriven'
p1667
I39
sS'strummer'
p1668
I5
sS'receiver'
p1669
I22
sS'exceeds'
p1670
I9
sS'con'
p1671
I19
sS'tough'
p1672
I78
sS'excess'
p1673
I34
sS'tons'
p1674
I61
sS'marring'
p1675
I12
sS'wider'
p1676
I59
sS'speak'
p1677
I38
sS'flexible'
p1678
I134
sS'dozens'
p1679
I28
sS'warmth'
p1680
I24
sS'cutouts'
p1681
I6
sS'beloved'
p1682
I8
sS'lousy'
p1683
I5
sS'applied'
p1684
I20
sS'drumset'
p1685
I8
sS'air'
p1686
I41
sS'aim'
p1687
I8
sS'remo'
p1688
I12
sS'thrash'
p1689
I10
sS'voice'
p1690
I147
sS'mistake'
p1691
I46
sS'stink'
p1692
I5
sS'cons'
p1693
I26
sS'good-sounding'
p1694
I5
sS'sticker'
p1695
I18
sS'sting'
p1696
I9
sS'cone'
p1697
I5
sS'confirmed'
p1698
I7
sS'perform'
p1699
I70
sS'tipping'
p1700
I14
sS'plated'
p1701
I13
sS'extremes'
p1702
I5
sS'incorrectly'
p1703
I7
sS'plates'
p1704
I9
sS'wheel'
p1705
I23
sS'independent'
p1706
I11
sS'plating'
p1707
I10
sS'fuss'
p1708
I17
sS'swell'
p1709
I12
sS'hang'
p1710
I85
sS'counterparts'
p1711
I5
sS'hand'
p1712
I273
sS'fuse'
p1713
I35
sS'knockoff'
p1714
I6
sS'humble'
p1715
I7
sS'drip'
p1716
I8
sS'1970'
p1717
I8
sS'tho'
p1718
I8
sS'contact'
p1719
I48
sS'epi'
p1720
I29
sS'musical'
p1721
I73
sS'kala'
p1722
I8
sS'photo'
p1723
I34
sS'mid'
p1724
I60
sS'farther'
p1725
I14
sS'swears'
p1726
I5
sS'clamped'
p1727
I18
sS'adding'
p1728
I72
sS'transformer'
p1729
I11
sS'unique'
p1730
I49
sS'yamaha'
p1731
I116
sS'passive'
p1732
I27
sS'belongs'
p1733
I6
sS'board'
p1734
I520
sS'usable'
p1735
I40
sS'basses'
p1736
I46
sS'caps'
p1737
I11
sS'lcd'
p1738
I23
sS'capo'
p1739
I634
sS'disadvantage'
p1740
I5
sS'cooler'
p1741
I6
sS'535'
p1742
I9
sS'night'
p1743
I69
sS'invaluable'
p1744
I6
sS'security'
p1745
I27
sS'pyle-pro'
p1746
I7
sS'sends'
p1747
I6
sS'flatter'
p1748
I8
sS'toys'
p1749
I15
sS'hassle'
p1750
I42
sS'bore'
p1751
I6
sS'confusing'
p1752
I16
sS'purple'
p1753
I27
sS'phenomenal'
p1754
I6
sS'/'
p1755
I93
sS'tascam'
p1756
I96
sS'beating'
p1757
I12
sS'peel'
p1758
I6
sS'marketing'
p1759
I15
sS'ply'
p1760
I8
sS'post'
p1761
I41
sS'months'
p1762
I263
sS'accepts'
p1763
I5
sS'treble'
p1764
I103
sS'considerations'
p1765
I5
sS'dilemma'
p1766
I5
sS'wasting'
p1767
I8
sS'pays'
p1768
I9
sS'carpal'
p1769
I7
sS'delighted'
p1770
I7
sS'balanced'
p1771
I98
sS'wan'
p1772
I15
sS'compression'
p1773
I80
sS'wah'
p1774
I129
sS'fight'
p1775
I10
sS'quirks'
p1776
I6
sS'wax'
p1777
I34
sS'wav'
p1778
I9
sS'fizz'
p1779
I8
sS'lowest'
p1780
I28
sS'true'
p1781
I193
sS'reset'
p1782
I10
sS'high-quality'
p1783
I12
sS'maximum'
p1784
I13
sS'crystal'
p1785
I10
sS'back-up'
p1786
I10
sS'a-style'
p1787
I6
sS'hotter'
p1788
I15
sS'turbo'
p1789
I5
sS'evidence'
p1790
I6
sS'guessed'
p1791
I5
sS'promised'
p1792
I16
sS'gibsons'
p1793
I6
sS'physical'
p1794
I12
sS'dying'
p1795
I6
sS'topped'
p1796
I5
sS'reality'
p1797
I20
sS'holding'
p1798
I135
sS'test'
p1799
I109
sS'shrink'
p1800
I8
sS"o'clock"
p1801
I35
sS'convincing'
p1802
I11
sS'update'
p1803
I118
sS'ebow'
p1804
I7
sS'modules'
p1805
I5
sS'loyal'
p1806
I9
sS'songs'
p1807
I129
sS'concept'
p1808
I22
sS'broke'
p1809
I119
sS'switched'
p1810
I60
sS'dance'
p1811
I8
sS'sn-13'
p1812
I6
sS'switches'
p1813
I72
sS'layers'
p1814
I13
sS'supposedly'
p1815
I13
sS'hurry'
p1816
I11
sS'zone'
p1817
I19
sS'graph'
p1818
I9
sS'hump'
p1819
I9
sS'flash'
p1820
I11
sS'tusq'
p1821
I19
sS'gigs'
p1822
I146
sS'compensate'
p1823
I17
sS'permanently'
p1824
I17
sS'rhythm'
p1825
I75
sS'terror'
p1826
I18
sS'brown'
p1827
I25
sS'protective'
p1828
I27
sS'baggie'
p1829
I5
sS'seemingly'
p1830
I12
sS'trouble'
p1831
I90
sS'blast'
p1832
I20
sS'ezdrummer'
p1833
I7
sS'ragin'
p1834
I6
sS'12th'
p1835
I13
sS'fragile'
p1836
I34
sS'gun'
p1837
I5
sS'soooo'
p1838
I9
sS'guitars'
p1839
I1209
sS'guitarr'
p1840
I7
sS'guy'
p1841
I145
sS'upper'
p1842
I45
sS'regret'
p1843
I48
sS'discover'
p1844
I15
sS'cost'
p1845
I388
sS'uniform'
p1846
I6
sS'appeal'
p1847
I8
sS'pedal-'
p1848
I6
sS'satisfy'
p1849
I12
sS'supporting'
p1850
I12
sS'unsure'
p1851
I11
sS'vocalists'
p1852
I11
sS'downloaded'
p1853
I18
sS'suckers'
p1854
I6
sS'3.1mm'
p1855
I5
sS'rubbery'
p1856
I10
sS'appears'
p1857
I91
sS'change'
p1858
I419
sS'pedals'
p1859
I1085
sS'mellower'
p1860
I7
sS'trial'
p1861
I11
sS'shifting'
p1862
I6
sS'fbv'
p1863
I13
sS'extra'
p1864
I403
sS'marked'
p1865
I17
sS'sincerely'
p1866
I5
sS'stings'
p1867
I13
sS'illumination'
p1868
I6
sS'rarely'
p1869
I46
sS'market'
p1870
I101
sS'prove'
p1871
I10
sS'live'
p1872
I298
sS'wonderfully'
p1873
I21
sS'microfiber'
p1874
I23
sS'marginally'
p1875
I5
sS'work.i'
p1876
I6
sS'club'
p1877
I21
sS'sound.the'
p1878
I7
sS'envelope'
p1879
I19
sS'plexi'
p1880
I9
sS'clue'
p1881
I6
sS'slinky'
p1882
I57
sS'instructional'
p1883
I5
sS'you.i'
p1884
I6
sS'car'
p1885
I35
sS'cap'
p1886
I28
sS'cat'
p1887
I30
sS'labeled'
p1888
I10
sS'cab'
p1889
I43
sS'guitar.it'
p1890
I6
sS'cad'
p1891
I7
sS'heart'
p1892
I11
sS'dedicated'
p1893
I31
sS'hears'
p1894
I5
sS'december'
p1895
I6
sS'chip'
p1896
I8
sS'heard'
p1897
I157
sS'occur'
p1898
I11
sS'fortunately'
p1899
I23
sS'spreads'
p1900
I6
sS'write'
p1901
I42
sS'ca-40'
p1902
I16
sS'deteriorate'
p1903
I7
sS'product'
p1904
I1080
sS'sacrifice'
p1905
I7
sS'unobtrusive'
p1906
I14
sS'produce'
p1907
I72
sS'drastic'
p1908
I5
sS'compatibility'
p1909
I7
sS'lifting'
p1910
I6
sS'remember'
p1911
I83
sS'grandson'
p1912
I7
sS'ghs'
p1913
I27
sS'corona'
p1914
I6
sS',i'
p1915
I6
sS'typical'
p1916
I57
sS'displayed'
p1917
I9
sS'brain'
p1918
I6
sS'cold'
p1919
I21
sS'birds'
p1920
I6
sS'window'
p1921
I5
sS'.10'
p1922
I6
sS'nod'
p1923
I5
sS'introduce'
p1924
I6
sS'half'
p1925
I184
sS'hall'
p1926
I20
sS'wont'
p1927
I64
sS'layering'
p1928
I5
sS'streaks'
p1929
I5
sS'james'
p1930
I16
sS'drop'
p1931
I195
sS'intrigued'
p1932
I5
sS'concerts'
p1933
I10
sS'em'
p1934
I40
sS'el'
p1935
I5
sS'eh'
p1936
I21
sS'straplok'
p1937
I13
sS'yeah'
p1938
I34
sS'eb'
p1939
I22
sS'goose'
p1940
I15
sS'ez'
p1941
I12
sS'happen'
p1942
I47
sS'ev'
p1943
I9
sS'eq'
p1944
I191
sS'ep'
p1945
I8
sS'es'
p1946
I6
sS'album'
p1947
I12
sS'accomplish'
p1948
I8
sS'space'
p1949
I201
sS'mt-2'
p1950
I8
sS'increase'
p1951
I47
sS'wholeheartedly'
p1952
I6
sS'side-by-side'
p1953
I9
sS'receiving'
p1954
I17
sS'inevitably'
p1955
I5
sS'e.'
p1956
I12
sS'cart'
p1957
I9
sS'lugging'
p1958
I10
sS'unwanted'
p1959
I31
sS'inevitable'
p1960
I5
sS'card'
p1961
I53
sS'care'
p1962
I164
sS'es-57'
p1963
I6
sS'transition'
p1964
I9
sS'british'
p1965
I23
sS'honest'
p1966
I36
sS'tangled'
p1967
I6
sS'suffice'
p1968
I9
sS'blind'
p1969
I8
sS'low-end'
p1970
I12
sS'initial'
p1971
I27
sS'xl'
p1972
I18
sS'striking'
p1973
I6
sS'xd'
p1974
I15
sS'blink'
p1975
I5
sS'directly'
p1976
I100
sS'impossible'
p1977
I39
sS'ring'
p1978
I67
sS'cr2032'
p1979
I5
sS'xt'
p1980
I8
sS'size'
p1981
I497
sS'sheer'
p1982
I6
sS'checked'
p1983
I41
sS'silent'
p1984
I25
sS'caught'
p1985
I13
sS'configured'
p1986
I6
sS'friend'
p1987
I150
sS'eliminates'
p1988
I11
sS'x2'
p1989
I20
sS'eliminated'
p1990
I9
sS'appreciated'
p1991
I10
sS'professionals'
p1992
I10
sS'rugged'
p1993
I55
sS'vocals'
p1994
I140
sS'cymbals'
p1995
I16
sS'sennheisers'
p1996
I6
sS'remained'
p1997
I8
sS'correction'
p1998
I13
sS'slap'
p1999
I29
sS'anytime'
p2000
I30
sS'distorted'
p2001
I56
sS'80/20'
p2002
I19
sS'offering'
p2003
I18
sS'offer'
p2004
I64
sS'terrific'
p2005
I23
sS'equipment'
p2006
I164
sS'nuances'
p2007
I5
sS'online'
p2008
I94
sS'cordoba'
p2009
I10
sS'price'
p2010
I2153
sS'neatly'
p2011
I10
sS'importantly'
p2012
I25
sS'pricy'
p2013
I5
sS'america'
p2014
I10
sS'forever'
p2015
I98
sS'flawlessly'
p2016
I42
sS'steady'
p2017
I19
sS'professional'
p2018
I158
sS'typically'
p2019
I44
sS'filing'
p2020
I8
sS'german'
p2021
I11
sS'fifty'
p2022
I8
sS'discovered'
p2023
I47
sS'modelers'
p2024
I7
sS'crackling'
p2025
I11
sS'pivots'
p2026
I7
sS'upgrade'
p2027
I100
sS'ratio'
p2028
I12
sS'title'
p2029
I38
sS'texture'
p2030
I38
sS'od-3'
p2031
I6
sS'stain'
p2032
I8
sS'shrill'
p2033
I8
sS'leather'
p2034
I233
sS'craftsmanship'
p2035
I12
sS'sonar'
p2036
I9
sS'husband'
p2037
I15
sS'concert'
p2038
I53
sS'burst'
p2039
I8
sS'physically'
p2040
I6
sS'concern'
p2041
I42
sS'colours'
p2042
I6
sS'3'
p2043
I489
sS'import'
p2044
I12
sS'notice'
p2045
I132
sS'pluck'
p2046
I29
sS'blame'
p2047
I17
sS'hurts'
p2048
I8
sS'cakewalk'
p2049
I13
sS'stages'
p2050
I20
sS'installation'
p2051
I48
sS'crisper'
p2052
I5
sS'mono'
p2053
I43
sS'nearby'
p2054
I7
sS'learning'
p2055
I108
sS'cares'
p2056
I25
sS'cared'
p2057
I7
sS'nickle'
p2058
I8
sS'guitar.the'
p2059
I6
sS'dead-on'
p2060
I5
sS'wounds'
p2061
I15
sS'external'
p2062
I68
sS'suspected'
p2063
I6
sS'sticky'
p2064
I26
sS'ruby'
p2065
I7
sS'countless'
p2066
I12
sS'diatonic'
p2067
I5
sS'trick'
p2068
I66
sS'joke'
p2069
I17
sS'cherub'
p2070
I9
sS'coolest'
p2071
I6
sS'orientation'
p2072
I6
sS'metalheads'
p2073
I5
sS'sweetwater'
p2074
I5
sS'awhile'
p2075
I56
sS'worry'
p2076
I127
sS'develop'
p2077
I13
sS'figuring'
p2078
I6
sS'lite'
p2079
I16
sS'finish'
p2080
I270
sS'closest'
p2081
I20
sS'foam'
p2082
I90
sS'mesh'
p2083
I5
sS'cymbal'
p2084
I26
sS'favorites'
p2085
I21
sS'complained'
p2086
I25
sS'casio'
p2087
I11
sS'breeze'
p2088
I33
sS'shock-mount'
p2089
I10
sS'preamp'
p2090
I125
sS'valuable'
p2091
I11
sS'touch'
p2092
I139
sS'speed'
p2093
I73
sS'death'
p2094
I17
sS'thinking'
p2095
I111
sS'desktop'
p2096
I55
sS'guessing'
p2097
I17
sS'treatment'
p2098
I8
sS'versa'
p2099
I9
sS'struck'
p2100
I7
sS'seams'
p2101
I6
sS'spectacular'
p2102
I13
sS'read'
p2103
I355
sS'listening'
p2104
I34
sS'amp'
p2105
I2008
sS'rear'
p2106
I17
sS'fortune'
p2107
I9
sS'pounds'
p2108
I18
sS'sc-1'
p2109
I7
sS'miracle'
p2110
I8
sS'benefit'
p2111
I35
sS'harmonicas'
p2112
I15
sS'output'
p2113
I234
sS'downward'
p2114
I6
sS'twelve'
p2115
I11
sS'exposed'
p2116
I12
sS'eddie'
p2117
I8
sS'duration'
p2118
I5
sS'rehearsing'
p2119
I7
sS'capability'
p2120
I22
sS'kaiser'
p2121
I5
sS'squire'
p2122
I23
sS'recorded'
p2123
I62
sS'forks'
p2124
I6
sS'assembly'
p2125
I21
sS'business'
p2126
I32
sS'.73'
p2127
I7
sS'indestructible'
p2128
I7
sS'equivalent'
p2129
I22
sS'restring'
p2130
I23
sS'assemble'
p2131
I28
sS'throw'
p2132
I44
sS'comparison'
p2133
I83
sS'greatly'
p2134
I30
sS'backup'
p2135
I50
sS'processor'
p2136
I24
sS'researching'
p2137
I8
sS'malfunction'
p2138
I5
sS'child'
p2139
I16
sS'rolling'
p2140
I15
sS'poly'
p2141
I9
sS'nowadays'
p2142
I5
sS'log'
p2143
I5
sS'removing'
p2144
I32
sS'lol'
p2145
I36
sS'start'
p2146
I176
sS'stealth'
p2147
I6
sS'cats'
p2148
I12
sS'low'
p2149
I569
sS'lot'
p2150
I889
sS'delayed'
p2151
I8
sS'metalic'
p2152
I5
sS'pitched'
p2153
I5
sS'podcast'
p2154
I16
sS'cheapies'
p2155
I5
sS'default'
p2156
I23
sS'5/8'
p2157
I15
sS'bucket'
p2158
I6
sS'tones'
p2159
I255
sS'cable.i'
p2160
I5
sS'600'
p2161
I16
sS'moved'
p2162
I45
sS'sales'
p2163
I13
sS'loops'
p2164
I34
sS'reliability'
p2165
I20
sS'multi-effects'
p2166
I10
sS'moves'
p2167
I20
sS'cabinets'
p2168
I11
sS'limborg'
p2169
I10
sS'storage'
p2170
I68
sS'modding'
p2171
I6
sS'humbucker'
p2172
I12
sS'poor'
p2173
I72
sS'polar'
p2174
I5
sS'60s'
p2175
I8
sS'peak'
p2176
I7
sS'suited'
p2177
I21
sS'building'
p2178
I25
sS'chords'
p2179
I129
sS'3-4'
p2180
I16
sS'strings'
p2181
I3347
sS'jazzmaster'
p2182
I8
sS'splitting'
p2183
I5
sS'month'
p2184
I91
sS'mp3'
p2185
I36
sS'messy'
p2186
I10
sS'carpet'
p2187
I22
sS'fostex'
p2188
I10
sS'jensen'
p2189
I7
sS'voicing'
p2190
I8
sS'superglue'
p2191
I5
sS'screwdriver'
p2192
I25
sS'verb'
p2193
I12
sS'balancing'
p2194
I5
sS'decide'
p2195
I36
sS'securely'
p2196
I66
sS'heaven'
p2197
I11
sS'multi-effect'
p2198
I7
sS'fence'
p2199
I10
sS'enhancement'
p2200
I7
sS'switchable'
p2201
I6
sS'casual'
p2202
I23
sS'shockmount'
p2203
I32
sS'nano'
p2204
I11
sS'investing'
p2205
I6
sS'thickness'
p2206
I88
sS'learned'
p2207
I62
sS'edited'
p2208
I5
sS'loose'
p2209
I132
sS'modify'
p2210
I13
sS'tracks'
p2211
I80
sS'uneven'
p2212
I8
sS'trunk'
p2213
I7
sS'i.e'
p2214
I24
sS'strong'
p2215
I239
sS'colored'
p2216
I42
sS'ahead'
p2217
I50
sS'inspired'
p2218
I6
sS'exceptionally'
p2219
I11
sS'amount'
p2220
I179
sS'advertising'
p2221
I7
sS'c-1'
p2222
I17
sS'family'
p2223
I34
sS'requiring'
p2224
I9
sS'cosmetic'
p2225
I10
sS'chunky'
p2226
I14
sS'aimed'
p2227
I5
sS'add-on'
p2228
I7
sS'amp.the'
p2229
I6
sS'conventional'
p2230
I12
sS'flaws'
p2231
I21
sS'takes'
p2232
I212
sS'overdubbing'
p2233
I5
sS'lowering'
p2234
I9
sS'jr.'
p2235
I13
sS'surprisingly'
p2236
I60
sS'instrumental'
p2237
I6
sS'excuse'
p2238
I12
sS'impulse'
p2239
I9
sS'7000'
p2240
I5
sS'suction'
p2241
I8
sS'mounted'
p2242
I67
sS'producing'
p2243
I12
sS'grill'
p2244
I14
sS'out.this'
p2245
I5
sS'sweeps'
p2246
I6
sS'playable'
p2247
I32
sS'history'
p2248
I7
sS'pushes'
p2249
I7
sS'pushed'
p2250
I26
sS'phosphor'
p2251
I49
sS'ukelele'
p2252
I48
sS'phrase'
p2253
I8
sS'lacks'
p2254
I20
sS'firmly'
p2255
I39
sS'processors'
p2256
I8
sS'utilize'
p2257
I12
sS'stayed'
p2258
I25
sS'menus'
p2259
I11
sS'ft'
p2260
I15
sS'fx'
p2261
I53
sS'biyang'
p2262
I10
sS'horizontal'
p2263
I6
sS'fl'
p2264
I6
sS'fm'
p2265
I5
sS'workstation'
p2266
I6
sS'laminate'
p2267
I6
sS'documentation'
p2268
I17
sS'overnight'
p2269
I7
sS'4/4'
p2270
I8
sS'negligible'
p2271
I5
sS'banks'
p2272
I8
sS'inline'
p2273
I8
sS'straplock'
p2274
I13
sS'dream'
p2275
I24
sS'ding'
p2276
I5
sS'held'
p2277
I74
sS'committed'
p2278
I7
sS'hell'
p2279
I32
sS'hendrix'
p2280
I24
sS'carpeted'
p2281
I6
sS'overhead'
p2282
I13
sS'systems'
p2283
I27
sS'finer'
p2284
I8
sS'fool'
p2285
I18
sS'evening'
p2286
I7
sS'yo'
p2287
I10
sS'ya'
p2288
I26
sS'floating'
p2289
I13
sS'anticipated'
p2290
I7
sS'foot'
p2291
I168
sS'ultex'
p2292
I20
sS'feet'
p2293
I133
sS'occasions'
p2294
I7
sS'payed'
p2295
I13
sS'flubby'
p2296
I5
sS'stopped'
p2297
I44
sS'cleaners'
p2298
I8
sS'heavy'
p2299
I511
sS'positioned'
p2300
I17
sS'halen'
p2301
I8
sS'event'
p2302
I18
sS'travels'
p2303
I6
sS'trusty'
p2304
I6
sS'kyser'
p2305
I87
sS'safety'
p2306
I20
sS'7'
p2307
I155
sS'issue'
p2308
I275
sS'ass'
p2309
I12
sS'pun'
p2310
I13
sS'earns'
p2311
I5
sS'bass'
p2312
I911
sS'dirt'
p2313
I68
sS'labs'
p2314
I7
sS'reason'
p2315
I245
sS'base'
p2316
I140
sS'brightest'
p2317
I5
sS'ash'
p2318
I5
sS'dip'
p2319
I9
sS'terrible'
p2320
I43
sS'terribly'
p2321
I11
sS'american'
p2322
I84
sS'expecting'
p2323
I74
sS'daisy'
p2324
I31
sS'heartbeat'
p2325
I7
sS'knocking'
p2326
I7
sS'arsenal'
p2327
I14
sS'dust'
p2328
I43
sS'unexpected'
p2329
I10
sS'effortless'
p2330
I12
sS'warts'
p2331
I6
sS'maple'
p2332
I25
sS'station'
p2333
I15
sS'fingerboards'
p2334
I10
sS'selling'
p2335
I43
sS'overdrive'
p2336
I315
sS'shifter'
p2337
I13
sS'grew'
p2338
I6
sS'grey'
p2339
I14
sS'squeaks'
p2340
I7
sS'non-locking'
p2341
I5
sS'kindle'
p2342
I5
sS'deciding'
p2343
I7
sS'wasnt'
p2344
I10
sS'alongside'
p2345
I8
sS'randomly'
p2346
I6
sS'juice'
p2347
I17
sS'substantial'
p2348
I29
sS'mooer'
p2349
I6
sS'cumbersome'
p2350
I15
sS'option'
p2351
I110
sS'lid'
p2352
I17
sS'ratings'
p2353
I16
sS'lil'
p2354
I9
sS'lit'
p2355
I24
sS'lip'
p2356
I17
sS'useless'
p2357
I56
sS'exl110'
p2358
I6
sS'experienced'
p2359
I57
sS'experiences'
p2360
I10
sS'position'
p2361
I199
sS'watt'
p2362
I63
sS'alpha'
p2363
I5
sS'sturdy'
p2364
I414
sS'mobile'
p2365
I18
sS'performances'
p2366
I28
sS'snapping'
p2367
I7
sS'clean'
p2368
I594
sS'rechargeable'
p2369
I7
sS'tubes'
p2370
I112
sS'humid'
p2371
I8
sS'registers'
p2372
I11
sS'top-notch'
p2373
I6
sS'reminiscent'
p2374
I9
sS'parameters'
p2375
I8
sS'blackface'
p2376
I12
sS'justice'
p2377
I7
sS'pretty'
p2378
I797
sS'etc..'
p2379
I6
sS'albeit'
p2380
I10
sS'trees'
p2381
I16
sS'famous'
p2382
I21
sS'feels'
p2383
I244
sS'3/4'
p2384
I31
sS'strum'
p2385
I45
sS'basement'
p2386
I13
sS'combinations'
p2387
I20
sS'3/8'
p2388
I9
sS'duracell'
p2389
I5
sS'price.the'
p2390
I5
sS'underlying'
p2391
I5
sS'hype'
p2392
I19
sS'cuz'
p2393
I12
sS'throwing'
p2394
I16
sS'nitrocellulose'
p2395
I7
sS'engineers'
p2396
I5
sS'descriptions'
p2397
I6
sS'close'
p2398
I259
sS'dampit'
p2399
I15
sS'humidipaks'
p2400
I8
sS'pictures'
p2401
I29
sS'wow'
p2402
I103
sS'won'
p2403
I9
sS'conditions'
p2404
I20
sS'pictured'
p2405
I25
sS'missing'
p2406
I68
sS'line-in'
p2407
I7
sS'spray'
p2408
I28
sS'invisible'
p2409
I10
sS'zipper'
p2410
I24
sS'useable'
p2411
I16
sS'sensitive'
p2412
I83
sS'anon'
p2413
I8
sS'guitar/bass'
p2414
I9
sS'buzz'
p2415
I99
sS'protector'
p2416
I7
sS'battery'
p2417
I395
sS'likes'
p2418
I48
sS'linux'
p2419
I12
sS'steels'
p2420
I5
sS'rebate'
p2421
I5
sS'celluloid'
p2422
I20
sS'damp'
p2423
I7
sS'describes'
p2424
I5
sS'damn'
p2425
I18
sS'maintenance'
p2426
I27
sS'collected'
p2427
I5
sS'territory'
p2428
I12
sS'empty'
p2429
I8
sS'alto'
p2430
I6
sS'lived'
p2431
I8
sS'partly'
p2432
I5
sS'packs'
p2433
I55
sS'wet'
p2434
I24
sS'circus'
p2435
I5
sS'imac'
p2436
I22
sS'lives'
p2437
I13
sS'dialing'
p2438
I10
sS'steel-string'
p2439
I7
sS'dimarzio'
p2440
I11
sS'dusty'
p2441
I6
sS'accidently'
p2442
I5
sS'smart'
p2443
I21
sS'guide'
p2444
I34
sS'loop'
p2445
I141
sS'pack'
p2446
I182
sS'costly'
p2447
I15
sS'petal'
p2448
I7
sS'reads'
p2449
I5
sS'loosened'
p2450
I8
sS'ready'
p2451
I84
sS'earthwood'
p2452
I5
sS'potentiometers'
p2453
I5
sS'sliders'
p2454
I16
sS'grand'
p2455
I25
sS'modification'
p2456
I18
sS'dime'
p2457
I10
sS'bonus'
p2458
I52
sS'000'
p2459
I5
sS'user'
p2460
I95
sS'rockabilly'
p2461
I10
sS'amplug'
p2462
I31
sS'assortment'
p2463
I9
sS'conveniently'
p2464
I6
sS'ziplock'
p2465
I7
sS'increases'
p2466
I18
sS'grind'
p2467
I6
sS'2gb'
p2468
I6
sS'berhinger'
p2469
I6
sS'consistency'
p2470
I9
sS'mid-range'
p2471
I14
sS'reverbs'
p2472
I17
sS'distances'
p2473
I6
sS'chore'
p2474
I10
sS'chord'
p2475
I79
sS'powering'
p2476
I25
sS'..i'
p2477
I6
sS'reviewed'
p2478
I26
sS'reviewer'
p2479
I62
sS'pre-amp'
p2480
I30
sS'guaranteed'
p2481
I10
sS'remaining'
p2482
I7
sS'march'
p2483
I6
sS'lacking'
p2484
I31
sS'to.i'
p2485
I6
sS'evaluate'
p2486
I5
sS'game'
p2487
I17
sS'tunings'
p2488
I26
sS'signal'
p2489
I285
sS'popular'
p2490
I46
sS'neumann'
p2491
I8
sS'saddles'
p2492
I11
sS'restrung'
p2493
I15
sS'mustang'
p2494
I82
sS'delivered'
p2495
I41
sS'describing'
p2496
I6
sS'pounding'
p2497
I5
sS'fishman'
p2498
I17
sS'minimal'
p2499
I42
sS'.so'
p2500
I14
sS'rub'
p2501
I24
sS'booklet'
p2502
I7
sS'processing'
p2503
I17
sS'cushioning'
p2504
I10
sS'snake'
p2505
I19
sS'stem'
p2506
I9
sS'jazzy'
p2507
I5
sS'step'
p2508
I80
sS'negatives'
p2509
I12
sS'lasts'
p2510
I45
sS'subtract'
p2511
I8
sS'shine'
p2512
I36
sS'faith'
p2513
I9
sS'wouldnt'
p2514
I7
sS'hinge'
p2515
I14
sS'sake'
p2516
I8
sS'idk'
p2517
I6
sS'wicker'
p2518
I12
sS'classics'
p2519
I5
sS'shiny'
p2520
I32
sS'block'
p2521
I47
sS'miracles'
p2522
I6
sS'visit'
p2523
I5
sS'nonsense'
p2524
I5
sS'rolls'
p2525
I14
sS'smells'
p2526
I11
sS'..'
p2527
I55
sS'placing'
p2528
I25
sS'palomino'
p2529
I6
sS'manufacture'
p2530
I16
sS'sizzle'
p2531
I5
sS'registered'
p2532
I7
sS'properly'
p2533
I119
sS'reed'
p2534
I7
sS'injection'
p2535
I6
sS'collapses'
p2536
I6
sS'info'
p2537
I19
sS'.i'
p2538
I47
sS'intuitive'
p2539
I22
sS'circuits'
p2540
I6
sS'accustomed'
p2541
I12
sS'tu-3'
p2542
I18
sS'chromes'
p2543
I7
sS'schecter'
p2544
I13
sS'dc9'
p2545
I5
sS'cotton'
p2546
I23
sS'amounts'
p2547
I10
sS'application'
p2548
I32
sS'-the'
p2549
I7
sS'electrical'
p2550
I25
sS're-string'
p2551
I6
sS'b/c'
p2552
I5
sS'draw'
p2553
I19
sS'korg'
p2554
I107
sS'drag'
p2555
I13
sS'structure'
p2556
I9
sS'independently'
p2557
I8
sS'practically'
p2558
I21
sS'dvd'
p2559
I17
sS'required'
p2560
I73
sS'youtube'
p2561
I87
sS'depth'
p2562
I57
sS'requires'
p2563
I54
sS'sounded'
p2564
I199
sS'gt'
p2565
I5
sS'tweeter'
p2566
I11
sS'gc'
p2567
I16
sS'gb'
p2568
I8
sS'etc.i'
p2569
I6
sS'compact'
p2570
I102
sS'goosenecks'
p2571
I6
sS'bx5'
p2572
I15
sS'suits'
p2573
I16
sS'shack'
p2574
I10
sS'friendly'
p2575
I23
sS'g7'
p2576
I10
sS'g2'
p2577
I7
sS'ukulele'
p2578
I249
sS'assuming'
p2579
I13
sS'wave'
p2580
I22
sS'rattling'
p2581
I6
sS'telling'
p2582
I16
sS'tm-40'
p2583
I5
sS'tonal'
p2584
I62
sS'stiff'
p2585
I106
sS'positions'
p2586
I29
sS'button'
p2587
I250
sS'michael'
p2588
I9
sS'configurations'
p2589
I11
sS'picker'
p2590
I5
sS'compensated'
p2591
I5
sS'jump'
p2592
I27
sS'muffs'
p2593
I5
sS'picked'
p2594
I103
sS'download'
p2595
I38
sS'okina'
p2596
I6
sS're-stringing'
p2597
I8
sS'plays'
p2598
I113
sS'volume/wah'
p2599
I6
sS'marketed'
p2600
I6
sS'cell'
p2601
I5
sS'experiment'
p2602
I52
sS'poles'
p2603
I6
sS'pristine'
p2604
I10
sS'values'
p2605
I10
sS'stance'
p2606
I6
sS'focused'
p2607
I8
sS'straplocks'
p2608
I25
sS'convert'
p2609
I17
sS'duncan'
p2610
I15
sS'products'
p2611
I239
sS'pitch'
p2612
I147
sS'win'
p2613
I15
sS'manage'
p2614
I14
sS'apprehensive'
p2615
I9
sS'buildup'
p2616
I5
sS'gimmick'
p2617
I5
sS'singing'
p2618
I66
sS'manipulate'
p2619
I7
sS'strapped'
p2620
I6
sS'crap'
p2621
I52
sS'remains'
p2622
I16
sS'camera'
p2623
I21
sS'simpler'
p2624
I17
sS'popped'
p2625
I24
sS'1/4'
p2626
I146
sS'1/3'
p2627
I13
sS'1/2'
p2628
I31
sS'started'
p2629
I196
sS'visibility'
p2630
I12
sS'1/8'
p2631
I37
sS'starter'
p2632
I26
sS'boards'
p2633
I37
sS'ride'
p2634
I14
sS'meet'
p2635
I18
sS'windscreens'
p2636
I8
sS'drops'
p2637
I34
sS'spyder'
p2638
I12
sS'control'
p2639
I321
sS'allowed'
p2640
I13
sS'pulling'
p2641
I27
sS'wonderful'
p2642
I111
sS'hesitate'
p2643
I28
sS'defective'
p2644
I41
sS'vibe'
p2645
I27
sS'arrangement'
p2646
I13
sS'located'
p2647
I10
sS'elliptical'
p2648
I5
sS'circular'
p2649
I7
sS'fatigue'
p2650
I6
sS'graphtech'
p2651
I5
sS'engineering'
p2652
I21
sS'capsule'
p2653
I10
sS'scoop'
p2654
I12
sS'a/d'
p2655
I8
sS'a/c'
p2656
I7
sS'a/b'
p2657
I24
sS'competing'
p2658
I5
sS'including'
p2659
I101
sS'hums'
p2660
I5
sS'mentioned'
p2661
I97
sS'brittle'
p2662
I11
sS'xcg4'
p2663
I6
sS'outer'
p2664
I34
sS'slinkies'
p2665
I5
sS'articulation'
p2666
I8
sS'surrounds'
p2667
I5
sS'auto'
p2668
I14
sS'hands'
p2669
I164
sS'front'
p2670
I212
sS'handy'
p2671
I151
sS'mods'
p2672
I17
sS'muff'
p2673
I76
sS'mode'
p2674
I108
sS'promises'
p2675
I5
sS'soften'
p2676
I5
sS'chunk'
p2677
I7
sS'700'
p2678
I8
sS'bluetooth'
p2679
I5
sS'exceeded'
p2680
I12
sS'special'
p2681
I106
sS'tunner'
p2682
I5
sS'entertainment'
p2683
I6
sS'confess'
p2684
I5
sS'exp16s'
p2685
I7
sS'trashy'
p2686
I6
sS'undo'
p2687
I5
sS'70s'
p2688
I7
sS'completely'
p2689
I146
sS'corrosion'
p2690
I30
sS'elastic'
p2691
I14
sS"'captain"
p2692
I5
sS'route'
p2693
I19
sS'florida'
p2694
I9
sS'timer'
p2695
I5
sS'times'
p2696
I301
sS'shred'
p2697
I11
sS'austin'
p2698
I5
sS'mad'
p2699
I8
sS'soldered'
p2700
I13
sS'evans'
p2701
I12
sS'swapped'
p2702
I9
sS'powerful'
p2703
I32
sS'p-bass'
p2704
I10
sS'eminence'
p2705
I9
sS'precisely'
p2706
I13
sS'quality'
p2707
I1734
sS'durable'
p2708
I278
sS'attach'
p2709
I96
sS'electrics'
p2710
I47
sS'xotic'
p2711
I8
sS'perfectly'
p2712
I369
sS'final'
p2713
I26
sS'prone'
p2714
I30
sS'2-3'
p2715
I19
sS'cutaway'
p2716
I10
sS"d'addarios"
p2717
I33
sS'lists'
p2718
I5
sS'chemicals'
p2719
I6
sS'bassist'
p2720
I12
sS'dyna'
p2721
I16
sS'fuzzy'
p2722
I12
sS'endpin'
p2723
I10
sS'overwhelming'
p2724
I7
sS'masking'
p2725
I8
sS'updating'
p2726
I13
sS'waist'
p2727
I6
sS'unboxed'
p2728
I5
sS'5-string'
p2729
I11
sS'dive'
p2730
I17
sS'bed'
p2731
I11
sS'bare'
p2732
I15
sS'providing'
p2733
I21
sS'bet'
p2734
I25
sS'2014'
p2735
I14
sS'lightly'
p2736
I22
sS'tabs'
p2737
I17
sS'p.a'
p2738
I9
sS'beefy'
p2739
I14
sS'sings'
p2740
I7
sS'microphone'
p2741
I528
sS'purchasing'
p2742
I84
sS'instance'
p2743
I16
sS'grounding'
p2744
I5
sS'mileage'
p2745
I10
sS'plugging'
p2746
I51
sS'connected'
p2747
I73
sS'hi-hat'
p2748
I18
sS'64-bit'
p2749
I6
sS'stereo'
p2750
I131
sS'sg'
p2751
I23
sS'upset'
p2752
I11
sS'.all'
p2753
I6
sS'construction'
p2754
I196
sS'impression'
p2755
I19
sS'indoor'
p2756
I6
sS'crate'
p2757
I19
sS'12s'
p2758
I5
sS'12v'
p2759
I11
sS'based'
p2760
I122
sS'unfinished'
p2761
I8
sS'earned'
p2762
I7
sS'winner'
p2763
I27
sS'brighten'
p2764
I6
sS'brighter'
p2765
I82
sS'lightest'
p2766
I5
sS'bases'
p2767
I11
sS'fuel'
p2768
I8
sS'achieve'
p2769
I23
sS'six-string'
p2770
I9
sS'120'
p2771
I15
sS'joint'
p2772
I29
sS'125'
p2773
I5
sS'buyer'
p2774
I11
sS'endless'
p2775
I22
sS'gray'
p2776
I6
sS'shy'
p2777
I6
sS'tuned'
p2778
I117
sS'processed'
p2779
I8
sS'tunes'
p2780
I60
sS'tuner'
p2781
I1104
sS'grab'
p2782
I60
sS'mixcraft'
p2783
I7
sS'hardwood'
p2784
I9
sS'shake'
p2785
I7
sS'operates'
p2786
I9
sS'computer'
p2787
I208
sS'powder'
p2788
I8
sS'overtones'
p2789
I16
sS'nightmare'
p2790
I5
sS'tend'
p2791
I97
sS'written'
p2792
I24
sS'joyo'
p2793
I172
sS'correctly'
p2794
I50
sS'lug'
p2795
I13
sS'comparable'
p2796
I20
sS'semi-tones'
p2797
I5
sS'spares'
p2798
I16
sS'interfere'
p2799
I17
sS'screamers'
p2800
I8
sS'kicking'
p2801
I7
sS'key'
p2802
I76
sS'precious'
p2803
I10
sS'bendable'
p2804
I7
sS'hits'
p2805
I14
sS'limits'
p2806
I9
sS'career'
p2807
I6
sS'aqua'
p2808
I7
sS'admit'
p2809
I53
sS'torn'
p2810
I14
sS'8211'
p2811
I20
sS'tuesday'
p2812
I5
sS'harmonic'
p2813
I14
sS'8217'
p2814
I54
sS'8216'
p2815
I8
sS'genre'
p2816
I5
sS'harmonix'
p2817
I9
sS'quit'
p2818
I19
sS'yay'
p2819
I5
sS'addition'
p2820
I103
sS'cent'
p2821
I16
sS'slowly'
p2822
I26
sS'treat'
p2823
I30
sS'isolating'
p2824
I7
sS'shoulders'
p2825
I13
sS'senses'
p2826
I8
sS'controlled'
p2827
I22
sS'guitarlele'
p2828
I11
sS'octive'
p2829
I6
sS'controller'
p2830
I32
sS'kicks'
p2831
I14
sS'license'
p2832
I7
sS'harder'
p2833
I60
sS'day.i'
p2834
I5
sS'texas'
p2835
I5
sS'owns'
p2836
I8
sS'haller'
p2837
I6
sS"'65"
p2838
I6
sS'demo'
p2839
I14
sS'coating'
p2840
I62
sS'surface'
p2841
I110
sS'bucks'
p2842
I224
sS'capture'
p2843
I20
sS'podcasting'
p2844
I20
sS'generic'
p2845
I21
sS'harmonies'
p2846
I6
sS'speaker'
p2847
I267
sS'party'
p2848
I16
sS'experimented'
p2849
I9
sS'absorb'
p2850
I6
sS'1-2'
p2851
I8
sS'frequently'
p2852
I34
sS'weld'
p2853
I8
sS'reflection'
p2854
I7
sS'modeled'
p2855
I8
sS'riff'
p2856
I12
sS'mixers'
p2857
I24
sS'modeler'
p2858
I6
sS'restore'
p2859
I5
sS'taller'
p2860
I18
sS'accurate'
p2861
I286
sS'detail'
p2862
I24
sS'sources'
p2863
I17
sS'40'
p2864
I137
sS'advertised'
p2865
I98
sS'skill'
p2866
I11
sS'.011'
p2867
I5
sS'.010'
p2868
I7
sS'.013'
p2869
I5
sS'.012'
p2870
I5
sS'extends'
p2871
I8
sS'accomodate'
p2872
I5
sS'kick'
p2873
I48
sS'details'
p2874
I23
sS'sonic'
p2875
I28
sS'ample'
p2876
I13
sS'power-grip'
p2877
I7
sS'loss'
p2878
I56
sS'lost'
p2879
I106
sS'sizes'
p2880
I40
sS'fingerprints'
p2881
I22
sS'candy'
p2882
I13
sS'sized'
p2883
I78
sS'lose'
p2884
I92
sS'setups'
p2885
I12
sS'warmed'
p2886
I8
sS'warmer'
p2887
I29
sS'liking'
p2888
I28
sS'leery'
p2889
I5
sS'competitor'
p2890
I6
sS'broad'
p2891
I8
sS'cradle'
p2892
I18
sS'fretted'
p2893
I14
sS'limitations'
p2894
I21
sS'coated'
p2895
I87
sS'inaccurate'
p2896
I5
sS'reaching'
p2897
I9
sS'bundle'
p2898
I13
sS'offset'
p2899
I6
sS'slap-back'
p2900
I5
sS'cleans'
p2901
I62
sS'recognized'
p2902
I23
sS'compatible'
p2903
I15
sS'muting'
p2904
I8
sS'recognizes'
p2905
I6
sS'wedgie'
p2906
I23
sS'equally'
p2907
I21
sS'soundstage'
p2908
I5
sS'h2'
p2909
I46
sS'h1'
p2910
I17
sS'h4'
p2911
I6
sS'artists'
p2912
I13
sS'pointless'
p2913
I5
sS'utility'
p2914
I7
sS'additional'
p2915
I78
sS'noticed'
p2916
I153
sS'hz'
p2917
I12
sS'north'
p2918
I9
sS'hp'
p2919
I8
sS'triangular'
p2920
I5
sS'subjective'
p2921
I33
sS'neutral'
p2922
I6
sS'gain'
p2923
I395
sS'ha'
p2924
I7
sS'eat'
p2925
I24
sS'hd'
p2926
I45
sS'converter'
p2927
I14
sS'problem.i'
p2928
I5
sS'limit'
p2929
I11
sS'cello'
p2930
I5
sS'piece'
p2931
I234
sS'display'
p2932
I195
sS'mackie'
p2933
I30
sS'reservations'
p2934
I5
sS'universal'
p2935
I22
sS'penny'
p2936
I32
sS'twist'
p2937
I29
sS'beats'
p2938
I39
sS'eric'
p2939
I8
sS'functions'
p2940
I56
sS'meteor'
p2941
I15
sS'humidify'
p2942
I6
sS'jamming'
p2943
I29
sS'star'
p2944
I185
sS'stay'
p2945
I239
sS'foil'
p2946
I5
sS'additionally'
p2947
I8
sS'friends'
p2948
I94
sS'martin'
p2949
I185
sS'portion'
p2950
I35
sS'extras'
p2951
I18
sS'dynamic'
p2952
I73
sS'muffling'
p2953
I5
sS'buddy'
p2954
I13
sS'swap'
p2955
I15
sS'aux'
p2956
I18
sS'bulkier'
p2957
I5
sS'onstage'
p2958
I19
sS'magnetic'
p2959
I7
sS'updated'
p2960
I12
sS'activation'
p2961
I6
sS'connects'
p2962
I20
sS'blackheart'
p2963
I8
sS'updates'
p2964
I7
sS'affect'
p2965
I42
sS'10-46'
p2966
I9
sS'vast'
p2967
I10
sS'skills'
p2968
I18
sS'companies'
p2969
I37
sS'solution'
p2970
I82
sS'convenience'
p2971
I28
sS'enhance'
p2972
I13
sS'force'
p2973
I39
sS'gator'
p2974
I26
sS'winder'
p2975
I95
sS'10s'
p2976
I18
sS'asio'
p2977
I15
sS'preferences'
p2978
I11
sS'pace'
p2979
I5
sS'integrity'
p2980
I6
sS'orchestra'
p2981
I12
sS'lights'
p2982
I101
sS'sideways'
p2983
I17
sS'tips'
p2984
I30
sS'med'
p2985
I8
sS'niche'
p2986
I10
sS'screams'
p2987
I6
sS'meh'
p2988
I5
sS'met'
p2989
I12
sS'4-star'
p2990
I5
sS'active'
p2991
I46
sS'100'
p2992
I230
sS'cardboard'
p2993
I24
sS'dry'
p2994
I102
sS'jams'
p2995
I9
sS'rests'
p2996
I11
sS'recordings'
p2997
I95
sS'buckles'
p2998
I11
sS'credit'
p2999
I19
sS'suitable'
p3000
I21
sS'fantastic'
p3001
I151
sS'specifics'
p3002
I5
sS'jackets'
p3003
I5
sS'counts'
p3004
I9
sS'army'
p3005
I7
sS'arms'
p3006
I36
sS'thinnest'
p3007
I6
sS'call'
p3008
I54
sS'recommend'
p3009
I905
sS'survive'
p3010
I10
sS'type'
p3011
I276
sS'wary'
p3012
I6
sS'wart'
p3013
I14
sS'warn'
p3014
I5
sS'warm'
p3015
I147
sS'adult'
p3016
I17
sS'1700ma'
p3017
I5
sS'tepper'
p3018
I6
sS'setup'
p3019
I183
sS"mic'ing"
p3020
I8
sS'spec'
p3021
I13
sS'movies'
p3022
I6
sS'2x12'
p3023
I13
sS'punk'
p3024
I12
sS'skype'
p3025
I7
sS'honey'
p3026
I16
sS'amazing'
p3027
I312
sS'answer'
p3028
I39
sS'faulty'
p3029
I10
sS'config'
p3030
I5
sS'quibble'
p3031
I5
sS"d'addario"
p3032
I280
sS'replacing'
p3033
I59
sS'manuals'
p3034
I8
sS'curiosity'
p3035
I5
sS'purchase'
p3036
I377
sS'attempt'
p3037
I13
sS'recieved'
p3038
I8
sS'stand-alone'
p3039
I6
sS'maintain'
p3040
I22
sS'waited'
p3041
I12
sS'operate'
p3042
I39
sS'deck'
p3043
I7
sS'keyboard'
p3044
I144
sS'responsive'
p3045
I37
sS'harmonica'
p3046
I58
sS'personal'
p3047
I93
sS'crew'
p3048
I5
sS'sprays'
p3049
I6
sS'harmonics'
p3050
I48
sS'weeks'
p3051
I158
sS'apogee'
p3052
I33
sS'overcome'
p3053
I5
sS'dm80'
p3054
I5
sS'combination'
p3055
I48
sS'workout'
p3056
I6
sS'mxr'
p3057
I190
sS'mxl'
p3058
I49
sS'brightness'
p3059
I32
sS'mounts'
p3060
I39
sS'acoustic'
p3061
I1019
sS'bone'
p3062
I27
sS'luck'
p3063
I50
sS'inserts'
p3064
I9
sS'durability'
p3065
I94
sS'taught'
p3066
I9
sS'forgot'
p3067
I24
sS'collector'
p3068
I8
sS'enclosure'
p3069
I19
sS'realtime'
p3070
I7
sS'sparkly'
p3071
I7
sS'content'
p3072
I8
sS'sparkle'
p3073
I12
sS'surprise'
p3074
I49
sS'mando'
p3075
I8
sS'grease'
p3076
I11
sS'u.s.'
p3077
I8
sS'whammy'
p3078
I20
sS'struggle'
p3079
I5
sS'backlit'
p3080
I5
sS'greasy'
p3081
I7
sS'starts'
p3082
I38
sS'signature'
p3083
I16
sS'moving'
p3084
I85
sS'loud'
p3085
I266
sS'uku'
p3086
I13
sS'cleaning'
p3087
I69
sS'hartke'
p3088
I8
sS'features'
p3089
I169
sS'grade'
p3090
I23
sS'hook'
p3091
I69
sS'warped'
p3092
I7
sS'downside'
p3093
I47
sS'plugs'
p3094
I89
sS'4x12'
p3095
I15
sS'girls'
p3096
I5
sS'twisted'
p3097
I10
sS'cabling'
p3098
I5
sS'bouncing'
p3099
I5
sS'swells'
p3100
I18
sS'stocking'
p3101
I7
sS'distance'
p3102
I42
sS'1x12'
p3103
I13
sS'princeton'
p3104
I6
sS'enabled'
p3105
I6
sS'matter'
p3106
I164
sS'street'
p3107
I11
sS'silly'
p3108
I19
sS'enables'
p3109
I5
sS'mini'
p3110
I149
sS'rattle'
p3111
I16
sS'modern'
p3112
I54
sS'mind'
p3113
I149
sS'mine'
p3114
I326
sS'acoustic/electric'
p3115
I19
sS'sounding'
p3116
I268
sS'mint'
p3117
I7
sS'tells'
p3118
I18
sS'floppy'
p3119
I12
sS'fitting'
p3120
I24
sS'niece'
p3121
I5
sS'great.i'
p3122
I7
sS'clapton'
p3123
I7
sS'regular'
p3124
I206
sS'don'
p3125
I8
sS'mushy'
p3126
I7
sS'dog'
p3127
I15
sS'competitors'
p3128
I15
sS'pointy'
p3129
I8
sS'consumer'
p3130
I6
sS'annoyed'
p3131
I5
sS'dot'
p3132
I25
sS'lyrics'
p3133
I5
sS'brilliance'
p3134
I6
sS'attempts'
p3135
I8
sS'stepping'
p3136
I13
sS'trade-off'
p3137
I7
sS'mogami'
p3138
I23
sS'explain'
p3139
I22
sS'folded'
p3140
I18
sS'godlyke'
p3141
I7
sS'folks'
p3142
I73
sS'bread'
p3143
I5
sS'wearing'
p3144
I28
sS'set-up'
p3145
I31
sS'colorful'
p3146
I14
sS'coast'
p3147
I6
sS'12'
p3148
I250
sS'issue.i'
p3149
I5
sS'earn'
p3150
I5
sS'bar'
p3151
I99
sS'dp-03'
p3152
I5
sS'bag'
p3153
I439
sS'bad'
p3154
I425
sS'softly'
p3155
I11
sS'notches'
p3156
I5
sS'ears'
p3157
I102
sS'attest'
p3158
I8
sS'reference'
p3159
I36
sS'testing'
p3160
I38
sS'decided'
p3161
I255
sS'subject'
p3162
I12
sS'pedaltrain'
p3163
I34
sS'07'
p3164
I5
sS'05'
p3165
I6
sS'sorta'
p3166
I9
sS'artificial'
p3167
I10
sS'simplest'
p3168
I5
sS'sorts'
p3169
I18
sS'lazy'
p3170
I9
sS'wears'
p3171
I15
sS'modeling'
p3172
I68
sS'picking'
p3173
I129
sS'blueridge'
p3174
I6
sS'suggested'
p3175
I28
sS'resistant'
p3176
I12
sS'appeared'
p3177
I11
sS'height'
p3178
I112
sS'offerings'
p3179
I5
sS'drilled'
p3180
I22
sS'loaded'
p3181
I49
sS'brassy'
p3182
I5
sS'sam'
p3183
I7
sS'basis'
p3184
I22
sS'tiny'
p3185
I118
sS'earnie'
p3186
I8
sS'trigger'
p3187
I36
sS'replicate'
p3188
I13
sS'basic'
p3189
I158
sS'lovely'
p3190
I20
sS'threw'
p3191
I12
sS'website'
p3192
I55
sS'fingerpicks'
p3193
I9
sS'deeper'
p3194
I21
sS'quantities'
p3195
I5
sS'tapping'
p3196
I7
sS'personally'
p3197
I82
sS'one-spot'
p3198
I5
sS'distorts'
p3199
I10
sS'exception'
p3200
I24
sS'tank'
p3201
I71
sS'set.i'
p3202
I5
sS'ugly'
p3203
I10
sS'suppose'
p3204
I66
sS'balance'
p3205
I60
sS'anchor'
p3206
I9
sS'backrest'
p3207
I10
sS'diaphragm'
p3208
I13
sS'customers'
p3209
I14
sS'iv'
p3210
I37
sS'ii'
p3211
I73
sS'shame'
p3212
I16
sS'.you'
p3213
I10
sS'cans'
p3214
I19
sS'disappear'
p3215
I8
sS'grown'
p3216
I11
sS'growl'
p3217
I6
sS'shimmering'
p3218
I5
sS'realizing'
p3219
I5
sS'roland'
p3220
I47
sS'unfortunate'
p3221
I7
sS'80s'
p3222
I11
sS'bells'
p3223
I13
sS'meets'
p3224
I18
sS'fretboards'
p3225
I15
sS'differing'
p3226
I5
sS'kit'
p3227
I118
sS'delight'
p3228
I9
sS'overs'
p3229
I10
sS'kid'
p3230
I29
sS'butter'
p3231
I12
sS'programs'
p3232
I15
sS'failing'
p3233
I7
sS'materials'
p3234
I75
sS'qualities'
p3235
I12
sS'802'
p3236
I14
sS'800'
p3237
I10
sS'us-100'
p3238
I12
sS'left'
p3239
I150
sS'yea'
p3240
I8
sS'isolate'
p3241
I8
sS'||'
p3242
I1
sS'unfair'
p3243
I5
sS'sp01'
p3244
I10
sS'fullness'
p3245
I10
sS'plug-in'
p3246
I6
sS'yep'
p3247
I9
sS'yer'
p3248
I6
sS'buyers'
p3249
I7
sS'agile'
p3250
I6
sS'character'
p3251
I29
sS'affinity'
p3252
I7
sS'save'
p3253
I154
sS'opt'
p3254
I9
sS'knock-off'
p3255
I9
sS'whichever'
p3256
I5
sS'discreet'
p3257
I5
sS'background'
p3258
I61
sS'lint-free'
p3259
I5
sS'strap'
p3260
I1367
sS'shoulder'
p3261
I85
sS'patience'
p3262
I9
sS'performing'
p3263
I43
sS'manual'
p3264
I99
sS'unnecessary'
p3265
I16
sS'dean'
p3266
I32
sS'deal'
p3267
I338
sS'deaf'
p3268
I6
sS'dead'
p3269
I80
sS'fingering'
p3270
I14
sS'ignore'
p3271
I8
sS'uncoated'
p3272
I18
sS'dense'
p3273
I9
sS'bold'
p3274
I12
sS'burn'
p3275
I10
sS'banjos'
p3276
I17
sS'bolt'
p3277
I22
sS'keeper'
p3278
I18
sS'super'
p3279
I286
sS'afternoon'
p3280
I5
sS'automatically'
p3281
I19
sS'thinner'
p3282
I58
sS'lies'
p3283
I8
sS'overkill'
p3284
I14
sS'chime'
p3285
I11
sS'annoyance'
p3286
I11
sS'amazingly'
p3287
I43
sS'flying'
p3288
I12
sS'editor'
p3289
I5
sS'fraction'
p3290
I25
sS'fork'
p3291
I17
sS'form'
p3292
I44
sS'nyxl'
p3293
I7
sS'failure'
p3294
I7
sS'lows'
p3295
I36
sS'222'
p3296
I6
sS'220'
p3297
I8
sS'prevents'
p3298
I11
sS'attached'
p3299
I97
sS'attaches'
p3300
I28
sS'separated'
p3301
I9
sS'sticks'
p3302
I36
sS'classic'
p3303
I200
sS'toss'
p3304
I23
sS'covers'
p3305
I33
sS'sale'
p3306
I40
sS'mediocre'
p3307
I8
sS'vista'
p3308
I8
sS'handed'
p3309
I11
sS'digital'
p3310
I187
sS'warehouse'
p3311
I8
sS'sling'
p3312
I10
sS'me70'
p3313
I5
sS'dies'
p3314
I7
sS'fell'
p3315
I49
sS'transfers'
p3316
I5
sS'weekend'
p3317
I19
sS'died'
p3318
I15
sS'jacked'
p3319
I5
sS'happening'
p3320
I9
sS'assume'
p3321
I21
sS'daily'
p3322
I40
sS'jacket'
p3323
I14
sS'gorilla'
p3324
I6
sS'axl'
p3325
I8
sS'teeth'
p3326
I11
sS'overdub'
p3327
I10
sS'shop'
p3328
I87
sS'managed'
p3329
I18
sS'tuners'
p3330
I526
sS'skip'
p3331
I10
sS'mild'
p3332
I14
sS'skin'
p3333
I20
sS'seller'
p3334
I67
sS'depend'
p3335
I19
sS'technique'
p3336
I27
sS'father'
p3337
I9
sS'0'
p3338
I13
sS'finally'
p3339
I147
sS'unpleasant'
p3340
I8
sS'marks'
p3341
I23
sS'suffered'
p3342
I5
sS'verbzilla'
p3343
I7
sS'string'
p3344
I1183
sS'multi-plug'
p3345
I6
sS'advised'
p3346
I9
sS'dim'
p3347
I16
sS'swapping'
p3348
I5
sS'die'
p3349
I16
sS'dig'
p3350
I31
sS'accidentally'
p3351
I24
sS'noiseless'
p3352
I6
sS'item'
p3353
I276
sS'diy'
p3354
I9
sS'playing.the'
p3355
I5
sS'stiffer'
p3356
I18
sS'round'
p3357
I78
sS'talked'
p3358
I10
sS'dealing'
p3359
I10
sS'hobbyist'
p3360
I11
sS'pitchblack'
p3361
I19
sS'playing.i'
p3362
I5
sS'adds'
p3363
I92
sS'filler'
p3364
I7
sS'suspect'
p3365
I34
sS'template'
p3366
I5
sS'filled'
p3367
I21
sS'ms'
p3368
I5
sS'guardian'
p3369
I8
sS'french'
p3370
I5
sS'wait'
p3371
I56
sS'box'
p3372
I488
sS'boy'
p3373
I47
sS'canadian'
p3374
I7
sS'shift'
p3375
I19
sS'bow'
p3376
I20
sS'suggestion'
p3377
I15
sS'phospher'
p3378
I5
sS'priceless'
p3379
I6
sS'bob'
p3380
I9
sS'nylon'
p3381
I155
sS'adjustable'
p3382
I183
sS'flexibility'
p3383
I55
sS'verge'
p3384
I6
sS'sharper'
p3385
I9
sS'bassman'
p3386
I20
sS'pluses'
p3387
I5
sS'dude'
p3388
I6
sS'connector'
p3389
I92
sS'creamy'
p3390
I10
sS'acceptable'
p3391
I30
sS'tandem'
p3392
I8
sS'rigid'
p3393
I16
sS'effort'
p3394
I54
sS'capturing'
p3395
I6
sS'fly'
p3396
I23
sS'soul'
p3397
I11
sS'reviews'
p3398
I402
sS'wallet'
p3399
I9
sS'growing'
p3400
I8
sS'arrive'
p3401
I20
sS'thicknesses'
p3402
I18
sS'claim'
p3403
I23
sS'crazy'
p3404
I56
sS'audiophile'
p3405
I12
sS'confused'
p3406
I16
sS'agent'
p3407
I5
sS'sample'
p3408
I13
sS'drawer'
p3409
I13
sS'shorting'
p3410
I5
sS'sn5'
p3411
I5
sS'sn1'
p3412
I5
sS'pink'
p3413
I24
sS'stompboxes'
p3414
I13
sS'soundboard'
p3415
I8
sS'tilt'
p3416
I14
sS'ping'
p3417
I6
sS'pine'
p3418
I6
sS'chemical'
p3419
I7
sS'till'
p3420
I20
sS'pure'
p3421
I84
sS'pins'
p3422
I100
sS'nyc'
p3423
I5
sS'inputs'
p3424
I93
sS'staying'
p3425
I20
sS'mar'
p3426
I7
sS'mat'
p3427
I17
sS'max'
p3428
I44
sS'accessory'
p3429
I43
sS'mac'
p3430
I35
sS'designed'
p3431
I180
sS'guys'
p3432
I77
sS'neck'
p3433
I561
sS'johnson'
p3434
I7
sS'6th'
p3435
I11
sS'switch'
p3436
I472
sS'tall'
p3437
I44
sS'talk'
p3438
I27
sS'cute'
p3439
I18
sS'shield'
p3440
I8
sS'wishing'
p3441
I5
sS'stability'
p3442
I36
sS'cuts'
p3443
I44
sS'solder'
p3444
I16
sS'peterson'
p3445
I10
sS'sm57'
p3446
I42
sS'adhesive'
p3447
I30
sS'monitor'
p3448
I65
sS'listing'
p3449
I5
sS'policy'
p3450
I7
sS'mail'
p3451
I28
sS'main'
p3452
I136
sS'brainer'
p3453
I22
sS'emailed'
p3454
I8
sS'rattled'
p3455
I5
sS'killer'
p3456
I17
sS'sooner'
p3457
I21
sS'touching'
p3458
I18
sS'rattles'
p3459
I5
sS'leds'
p3460
I14
sS'settings'
p3461
I209
sS'careless'
p3462
I6
sS'rock'
p3463
I298
sS'xls'
p3464
I9
sS'xlr'
p3465
I208
sS'unlock'
p3466
I8
sS'fingertips'
p3467
I30
sS'girl'
p3468
I6
sS'summary'
p3469
I12
sS'canada'
p3470
I15
sS'living'
p3471
I31
sS'jackson'
p3472
I22
sS'3rd'
p3473
I21
sS'interference'
p3474
I32
sS'stupid'
p3475
I15
sS'sensor'
p3476
I11
sS'correct'
p3477
I58
sS'sm-57'
p3478
I30
sS'monster'
p3479
I99
sS'hefty'
p3480
I14
sS'mechanisms'
p3481
I5
sS'much.i'
p3482
I5
sS'sm-58'
p3483
I33
sS'california'
p3484
I33
sS'vinyl'
p3485
I13
sS'headband'
p3486
I8
sS'watts'
p3487
I39
sS'headphones'
p3488
I214
sS'funky'
p3489
I15
sS'nuff'
p3490
I6
sS'frequent'
p3491
I14
sS'exotic'
p3492
I5
sS'carry'
p3493
I142
sS'sounds'
p3494
I1075
sS'cheesy'
p3495
I12
sS'moisture'
p3496
I10
sS'speaking'
p3497
I20
sS'eyes'
p3498
I38
sS'continuous'
p3499
I6
sS'accurately'
p3500
I37
sS'broadcast'
p3501
I11
sS'butt'
p3502
I10
sS'11'
p3503
I49
sS'10'
p3504
I315
sS'13'
p3505
I40
sS'cracks'
p3506
I11
sS'15'
p3507
I141
sS'14'
p3508
I19
sS'17'
p3509
I11
sS'16'
p3510
I39
sS'19'
p3511
I6
sS'18'
p3512
I27
sS'lugs'
p3513
I6
sS'protected'
p3514
I24
sS'notched'
p3515
I5
sS'polytune'
p3516
I13
sS'stubby'
p3517
I21
sS'voices'
p3518
I24
sS'winding'
p3519
I26
sS'hellraiser'
p3520
I6
sS'speakers'
p3521
I162
sS'dreadnaught'
p3522
I14
sS'efficient'
p3523
I27
sS'upgrading'
p3524
I14
sS'shocked'
p3525
I22
sS'rehearsals'
p3526
I18
sS'potential'
p3527
I34
sS'interior'
p3528
I19
sS'performance'
p3529
I162
sS'switching'
p3530
I74
sS'channel'
p3531
I189
sS'200'
p3532
I54
sS'v67g'
p3533
I5
sS'pain'
p3534
I39
sS'trace'
p3535
I7
sS'normal'
p3536
I121
sS'track'
p3537
I100
sS'paid'
p3538
I135
sS'rehearsal'
p3539
I34
sS'beta'
p3540
I22
sS'sheets'
p3541
I20
sS'complaints'
p3542
I120
sS'20+'
p3543
I9
sS'20-'
p3544
I5
sS'surprising'
p3545
I10
sS'fills'
p3546
I10
sS'voodoo'
p3547
I29
sS'precise'
p3548
I39
sS'rating'
p3549
I70
sS'lexicon'
p3550
I9
sS'shot'
p3551
I37
sS'winders'
p3552
I12
sS'shoe'
p3553
I13
sS'corner'
p3554
I24
sS'enthusiast'
p3555
I6
sS'dice'
p3556
I5
sS'500ma'
p3557
I5
sS'elixers'
p3558
I5
sS'dull'
p3559
I47
sS'nickels'
p3560
I22
sS'black'
p3561
I281
sS'p90'
p3562
I12
sS'stomp'
p3563
I75
sS'conjunction'
p3564
I15
sS'gem'
p3565
I10
sS'secondary'
p3566
I8
sS'keyboards'
p3567
I35
sS'bearings'
p3568
I7
sS'morning'
p3569
I17
sS'threading'
p3570
I10
sS'miles'
p3571
I7
sS'finishing'
p3572
I10
sS'worrying'
p3573
I13
sS'kernel'
p3574
I5
sS'honesty'
p3575
I5
sS'seat'
p3576
I33
sS'relative'
p3577
I26
sS'eliminating'
p3578
I7
sS'seal'
p3579
I8
sS'satisfying'
p3580
I8
sS'camping'
p3581
I9
sS'forgotten'
p3582
I5
sS'label'
p3583
I21
sS'pump'
p3584
I7
sS'tu-2'
p3585
I11
sS'reading'
p3586
I139
sS'screen'
p3587
I141
sS'oversized'
p3588
I9
sS'affordable'
p3589
I112
sS'jr'
p3590
I27
sS'killing'
p3591
I6
sS'jj'
p3592
I31
sS'singers'
p3593
I15
sS'tour'
p3594
I25
sS'disappointment'
p3595
I15
sS'holders'
p3596
I25
sS'traded'
p3597
I6
sS'12:00'
p3598
I5
sS'venues'
p3599
I31
sS'maintained'
p3600
I6
sS'stretched'
p3601
I23
sS'unusual'
p3602
I7
sS'tuning'
p3603
I555
sS'capable'
p3604
I34
sS'valvetronix'
p3605
I5
sS'mark'
p3606
I35
sS'attaching'
p3607
I19
sS'dependable'
p3608
I30
sS'barre'
p3609
I7
sS'judging'
p3610
I6
sS'shopping'
p3611
I30
sS'offered'
p3612
I27
sS'dramatic'
p3613
I18
sS'sound'
p3614
I3506
sS'disconnected'
p3615
I6
sS'ratchet'
p3616
I8
sS'slapping'
p3617
I6
sS'characteristics'
p3618
I13
sS'rubbing'
p3619
I12
sS'sleeping'
p3620
I7
sS'middle'
p3621
I76
sS'pressing'
p3622
I17
sS'everyday'
p3623
I27
sS'movements'
p3624
I6
sS'bags'
p3625
I42
sS'par'
p3626
I24
sS'harsh'
p3627
I36
sS'doctor'
p3628
I7
sS'pay'
p3629
I219
sS'speech'
p3630
I6
sS'stepped'
p3631
I11
sS'pan'
p3632
I6
sS'oil'
p3633
I63
sS'g-dec'
p3634
I8
sS'companion'
p3635
I5
sS'running'
p3636
I146
sS'totally'
p3637
I112
sS'drain'
p3638
I5
sS'amplitube'
p3639
I6
sS'intermittent'
p3640
I10
sS'roughly'
p3641
I20
sS'ts808'
p3642
I11
sS'solve'
p3643
I15
sS'bottle'
p3644
I43
sS'bumping'
p3645
I6
sS'amazed'
p3646
I42
sS'gates'
p3647
I5
sS'outdoor'
p3648
I15
sS'money'
p3649
I575
sS'adjustments'
p3650
I89
sS'reputable'
p3651
I6
sS'aspect'
p3652
I24
sS'flavor'
p3653
I7
sS'vt999'
p3654
I5
sS'pups'
p3655
I6
sS'pile'
p3656
I5
sS'4'
p3657
I399
sS'heavier'
p3658
I138
sS'grip'
p3659
I235
sS'grit'
p3660
I17
sS'disappointed'
p3661
I142
sS'mod'
p3662
I35
sS'vertically'
p3663
I6
sS'serves'
p3664
I46
sS'lightning'
p3665
I11
sS'facing'
p3666
I24
sS'chamber'
p3667
I5
sS'audience'
p3668
I20
sS'nose'
p3669
I12
sS'retailers'
p3670
I7
sS'served'
p3671
I20
sS'images'
p3672
I7
sS'cabs'
p3673
I9
sS'matching'
p3674
I17
sS'users'
p3675
I34
sS'gross'
p3676
I5
sS'outs'
p3677
I16
sS'sn-8'
p3678
I35
sS'confirm'
p3679
I7
sS'sn-6'
p3680
I7
sS'extensively'
p3681
I6
sS'sn-2'
p3682
I34
sS'critical'
p3683
I22
sS'moderate'
p3684
I14
sS'knife'
p3685
I13
sS'measuring'
p3686
I10
sS'manufactured'
p3687
I11
sS'notable'
p3688
I5
sS'awsome'
p3689
I5
sS'notably'
p3690
I8
sS'broken'
p3691
I98
sS'drums'
p3692
I69
sS'finicky'
p3693
I7
sS'manufacturer'
p3694
I54
sS'roar'
p3695
I5
sS'mixer'
p3696
I244
sS'mixes'
p3697
I8
sS'practical'
p3698
I38
sS'airline'
p3699
I5
sS'pockets'
p3700
I36
sS'mixed'
p3701
I35
sS'road'
p3702
I68
sS'quietly'
p3703
I16
sS'spreading'
p3704
I5
sS'use.the'
p3705
I9
sS'strip'
p3706
I47
sS'springs'
p3707
I35
sS'.great'
p3708
I5
sS'telescoping'
p3709
I8
sS'shells'
p3710
I6
sS'washers'
p3711
I26
sS'up.i'
p3712
I6
sS'tripod'
p3713
I51
sS'sophisticated'
p3714
I5
sS'wiping'
p3715
I14
sS'seperate'
p3716
I5
sS'intonated'
p3717
I5
sS'arranged'
p3718
I5
sS'vht'
p3719
I7
sS'suitcase'
p3720
I5
sS'videos'
p3721
I42
sS'deep'
p3722
I93
sS'fellow'
p3723
I12
sS'imagination'
p3724
I7
sS'examine'
p3725
I5
sS'file'
p3726
I32
sS'girlfriend'
p3727
I6
sS'lifetime'
p3728
I50
sS'cables'
p3729
I665
sS'film'
p3730
I9
sS'fill'
p3731
I30
sS'tedious'
p3732
I6
sS'genres'
p3733
I12
sS'drivers'
p3734
I65
sS'hybrid'
p3735
I26
sS'field'
p3736
I26
sS'bugera'
p3737
I23
sS'indestructable'
p3738
I5
sS'students'
p3739
I26
sS'brands'
p3740
I152
sS'remote'
p3741
I11
sS'resale'
p3742
I8
sS'alright'
p3743
I19
sS'deluxe'
p3744
I68
sS'starting'
p3745
I67
sS'looped'
p3746
I5
sS'forget'
p3747
I70
sS'dollar'
p3748
I87
sS'zing'
p3749
I5
sS'looper'
p3750
I67
sS'zinc'
p3751
I6
sS'children'
p3752
I13
sS'reluctant'
p3753
I6
sS'responsiveness'
p3754
I7
sS'restringing'
p3755
I11
sS'shredding'
p3756
I9
sS'enjoying'
p3757
I11
sS'premium'
p3758
I19
sS'sitting'
p3759
I78
sS'ts-808'
p3760
I5
sS'fall'
p3761
I133
sS'difference'
p3762
I374
sS'washer'
p3763
I24
sS'splitter'
p3764
I12
sS'forking'
p3765
I5
sS'washing'
p3766
I8
sS'dampen'
p3767
I7
sS'portable'
p3768
I142
sS'strung'
p3769
I20
sS'residue'
p3770
I31
sS'90s'
p3771
I8
sS'dial'
p3772
I123
sS'stood'
p3773
I5
sS'opted'
p3774
I18
sS'brackets'
p3775
I11
sS'stool'
p3776
I14
sS'public'
p3777
I16
sS'movement'
p3778
I31
sS'entry-level'
p3779
I7
sS'5005'
p3780
I7
sS'twang'
p3781
I12
sS'component'
p3782
I14
sS'ranges'
p3783
I14
sS'threads'
p3784
I37
sS'fatter'
p3785
I8
sS'search'
p3786
I50
sS'stretching'
p3787
I18
sS'narrow'
p3788
I31
sS'boosting'
p3789
I18
sS'eye'
p3790
I32
sS'distinct'
p3791
I21
sS'wiped'
p3792
I9
sS'comparing'
p3793
I36
sS'strings.the'
p3794
I5
sS'exp16'
p3795
I8
sS'wipes'
p3796
I7
sS'diamond'
p3797
I18
sS'varying'
p3798
I20
sS'.my'
p3799
I5
sS'karaoke'
p3800
I20
sS'town'
p3801
I12
sS'hour'
p3802
I66
sS'strain'
p3803
I30
sS'recall'
p3804
I10
sS'sucks'
p3805
I21
sS'guards'
p3806
I5
sS'remain'
p3807
I16
sS'sudden'
p3808
I6
sS'mediums'
p3809
I39
sS'specialized'
p3810
I5
sS'def'
p3811
I5
sS'purchases'
p3812
I23
sS'compare'
p3813
I86
sS'stacking'
p3814
I6
sS'share'
p3815
I16
sS'minimum'
p3816
I24
sS'purchased'
p3817
I440
sS'sharp'
p3818
I106
sS'vibro'
p3819
I5
sS'awkward'
p3820
I48
sS'nanoweb'
p3821
I39
sS'comfort'
p3822
I22
sS'ensemble'
p3823
I6
sS'advice'
p3824
I28
sS'frills'
p3825
I17
sS'connectivity'
p3826
I9
sS'coming'
p3827
I119
sS'response'
p3828
I82
sS'coax'
p3829
I6
sS'crowded'
p3830
I7
sS'coat'
p3831
I7
sS'eats'
p3832
I10
sS'pleasure'
p3833
I17
sS'playing'
p3834
I1198
sS'oacute'
p3835
I8
sS'rounded'
p3836
I37
sS'schaller'
p3837
I48
sS'rounder'
p3838
I5
sS'filters'
p3839
I32
sS'suffer'
p3840
I9
sS'ok.'
p3841
I13
sS'24'
p3842
I46
sS'messed'
p3843
I15
sS'27'
p3844
I7
sS'20'
p3845
I212
sS'21'
p3846
I27
sS'22'
p3847
I10
sS'bx5a'
p3848
I11
sS'pcs'
p3849
I6
sS'28'
p3850
I5
sS'29'
p3851
I9
sS'late'
p3852
I26
sS'detected'
p3853
I7
sS'pad'
p3854
I71
sS'hurting'
p3855
I6
sS'seeking'
p3856
I8
sS'walls'
p3857
I15
sS'starcaster'
p3858
I10
sS'complain'
p3859
I66
sS'easily'
p3860
I538
sS'headroom'
p3861
I24
sS'2x'
p3862
I11
sS'wrapped'
p3863
I24
sS'micro'
p3864
I70
sS'goofy'
p3865
I6
sS'ports'
p3866
I9
sS'clamp'
p3867
I134
sS'harm'
p3868
I19
sS'clams'
p3869
I7
sS'house'
p3870
I118
sS'fish'
p3871
I8
sS'hard'
p3872
I604
sS'idea'
p3873
I168
sS'engaging'
p3874
I7
sS'extended'
p3875
I36
sS'connect'
p3876
I114
sS'insurance'
p3877
I7
sS'harp'
p3878
I60
sS'print'
p3879
I16
sS'geared'
p3880
I9
sS'difficulty'
p3881
I29
sS'benefits'
p3882
I8
sS'computers'
p3883
I16
sS'audacity'
p3884
I32
sS'barber'
p3885
I5
sS'reinforced'
p3886
I8
sS'copper'
p3887
I10
sS'dont'
p3888
I127
sS'instances'
p3889
I5
sS'utilized'
p3890
I7
sS'cups'
p3891
I10
sS'twenty'
p3892
I20
sS'5th'
p3893
I23
sS'smoother'
p3894
I44
sS'obligatory'
p3895
I5
sS'paint'
p3896
I33
sS'leash'
p3897
I5
sS'statement'
p3898
I7
sS'rates'
p3899
I6
sS'booster'
p3900
I23
sS'akai'
p3901
I15
sS'synthetic'
p3902
I6
sS'favorably'
p3903
I6
sS'needle'
p3904
I27
sS'park'
p3905
I14
sS'excels'
p3906
I6
sS'selector'
p3907
I7
sS'favorable'
p3908
I5
sS'compliments'
p3909
I15
sS'pickups'
p3910
I142
sS'recording'
p3911
I554
sS'18v'
p3912
I7
sS'supposed'
p3913
I157
sS'polishing'
p3914
I30
sS'treated'
p3915
I7
sS'sturdier'
p3916
I17
sS'aged'
p3917
I9
sS'mountain'
p3918
I6
sS'built'
p3919
I440
sS'depending'
p3920
I73
sS'couch'
p3921
I7
sS'pedals.i'
p3922
I7
sS'majority'
p3923
I14
sS'build'
p3924
I235
sS'dunlop'
p3925
I326
sS'flute'
p3926
I8
sS'chart'
p3927
I8
sS'charm'
p3928
I32
sS'extremely'
p3929
I183
sS'univibe'
p3930
I9
sS'cramped'
p3931
I9
sS'weigh'
p3932
I8
sS'mahalo'
p3933
I19
sS'carefully'
p3934
I38
sS'fine'
p3935
I698
sS'giant'
p3936
I6
sS'nervous'
p3937
I8
sS'ruin'
p3938
I9
sS'chimey'
p3939
I5
sS'unhappy'
p3940
I7
sS'8'
p3941
I173
sS'polyweb'
p3942
I15
sS'express'
p3943
I17
sS'cheaper'
p3944
I205
sS'batter'
p3945
I12
sS'danelectro'
p3946
I78
sS'silk'
p3947
I22
sS'it.this'
p3948
I6
sS'remove'
p3949
I131
sS'common'
p3950
I42
sS'gospel'
p3951
I6
sS'vine'
p3952
I14
sS'individual'
p3953
I64
sS'leslie'
p3954
I5
sS'repairs'
p3955
I6
sS'expert'
p3956
I22
sS'fans'
p3957
I15
sS'envelopes'
p3958
I5
sS'sm58'
p3959
I74
sS'rosin'
p3960
I20
sS'complement'
p3961
I8
sS'nashville'
p3962
I5
sS'folding'
p3963
I29
sS'reverse'
p3964
I19
sS'powers'
p3965
I17
sS'tapered'
p3966
I10
sS'suede'
p3967
I26
sS'alot'
p3968
I60
sS'upgraded'
p3969
I18
sS'rag'
p3970
I13
sS'simple'
p3971
I460
sS'2i2'
p3972
I21
sS'flatwounds'
p3973
I5
sS'simply'
p3974
I271
sS'upgrades'
p3975
I6
sS'supple'
p3976
I13
sS'expensive'
p3977
I462
sS'ensures'
p3978
I13
sS'mikes'
p3979
I26
sS'raise'
p3980
I19
sS'frets'
p3981
I126
sS'create'
p3982
I47
sS'electro-harmonix'
p3983
I11
sS'secret'
p3984
I12
sS'dropping'
p3985
I29
sS'96k'
p3986
I5
sS'slips'
p3987
I20
sS'assorted'
p3988
I9
sS'gas'
p3989
I5
sS'gap'
p3990
I12
sS'bigsby'
p3991
I6
sS'pricey'
p3992
I27
sS'understand'
p3993
I91
sS'prices'
p3994
I55
sS'replaces'
p3995
I6
sS'raw'
p3996
I9
sS'solid'
p3997
I578
sS'bill'
p3998
I37
sS'amplugs'
p3999
I5
sS'suhr'
p4000
I5
sS'replaced'
p4001
I144
sS'fun'
p4002
I163
sS'behringer'
p4003
I438
sS'cents'
p4004
I20
sS'drawbacks'
p4005
I8
sS'encountered'
p4006
I15
sS'emphasize'
p4007
I5
sS'focusrite'
p4008
I40
sS'attenuation'
p4009
I8
sS'itch'
p4010
I5
sS'forced'
p4011
I11
sS'gilmour'
p4012
I20
sS'yesterday'
p4013
I17
sS'moment'
p4014
I32
sS'purpose'
p4015
I129
sS'realm'
p4016
I6
sS'woofer'
p4017
I8
sS'task'
p4018
I16
sS'spent'
p4019
I93
sS'swiss'
p4020
I6
sS'entry'
p4021
I22
sS'jbl'
p4022
I6
sS'spend'
p4023
I193
sS'darn'
p4024
I32
sS'cubase'
p4025
I24
sS'distracting'
p4026
I9
sS'shape'
p4027
I96
sS'alternative'
p4028
I38
sS'breakage'
p4029
I18
sS'alignment'
p4030
I6
sS'letting'
p4031
I14
sS'cut'
p4032
I213
sS'dslr'
p4033
I7
sS'cup'
p4034
I23
sS'hated'
p4035
I17
sS'alternate'
p4036
I19
sS'.88'
p4037
I5
sS'source'
p4038
I43
sS'snap'
p4039
I49
sS'contrary'
p4040
I7
sS'clamping'
p4041
I18
sS'excited'
p4042
I29
sS'ridiculously'
p4043
I7
sS'matters'
p4044
I22
sS'win7'
p4045
I5
sS'bit'
p4046
I1004
sS"'fizz"
p4047
I5
sS'semi'
p4048
I13
sS'glove'
p4049
I20
sS'indication'
p4050
I8
sS'google'
p4051
I18
sS'absolutely'
p4052
I157
sS'302usb'
p4053
I8
sS'gretch'
p4054
I5
sS'pricing'
p4055
I16
sS'xenyx'
p4056
I16
sS'pronounced'
p4057
I28
sS'scale'
p4058
I41
sS'decision'
p4059
I29
sS'modest'
p4060
I11
sS'pen'
p4061
I8
sS'connecting'
p4062
I29
sS'eliminate'
p4063
I34
sS'accoustic'
p4064
I13
sS'patient'
p4065
I5
sS'remembered'
p4066
I9
sS'30+'
p4067
I7
sS'oem'
p4068
I12
sS'tripping'
p4069
I7
sS'rumble'
p4070
I5
sS'time.the'
p4071
I7
sS'jimmy'
p4072
I6
sS'retailer'
p4073
I5
sS'lesson'
p4074
I18
sS'click'
p4075
I67
sS'homemade'
p4076
I6
sS'forward'
p4077
I72
sS'translate'
p4078
I5
sS'pounded'
p4079
I5
sS'adjusting'
p4080
I58
sS'hoped'
p4081
I24
sS'boys'
p4082
I9
sS'hopes'
p4083
I11
sS'biggie'
p4084
I7
sS'planet'
p4085
I275
sS'jumbo'
p4086
I21
sS'groove'
p4087
I15
sS'constant'
p4088
I33
sS'stripped'
p4089
I14
sS'non-coated'
p4090
I12
sS'single'
p4091
I236
sS'necks'
p4092
I32
sS'dragging'
p4093
I5
sS'forewarned'
p4094
I5
sS'functionality'
p4095
I40
sS'lend'
p4096
I7
sS'prepared'
p4097
I17
sS'lent'
p4098
I5
sS'implies'
p4099
I6
sS'silvertone'
p4100
I5
sS'2000'
p4101
I11
sS'failures'
p4102
I6
sS'2008'
p4103
I6
sS'noon'
p4104
I5
sS'amplifier'
p4105
I101
sS'sn-1'
p4106
I33
sS'amplified'
p4107
I17
sS'corroding'
p4108
I6
sS'helps'
p4109
I149
sS'ambience'
p4110
I6
sS'pleasing'
p4111
I20
sS'putting'
p4112
I130
sS'resonant'
p4113
I23
sS'entire'
p4114
I73
sS'shock'
p4115
I59
sS'fabulous'
p4116
I10
sS'havent'
p4117
I16
sS'unsatisfied'
p4118
I5
sS'tinny'
p4119
I40
sS'fusion'
p4120
I5
sS'uncomfortable'
p4121
I32
sS'grooves'
p4122
I11
sS'quick-change'
p4123
I5
sS'them.i'
p4124
I14
sS'unwound'
p4125
I5
sS'practices'
p4126
I20
sS'access'
p4127
I44
sS'body'
p4128
I242
sS'exchange'
p4129
I21
sS'440'
p4130
I5
sS'spacing'
p4131
I8
sS'sprung'
p4132
I5
sS'packing'
p4133
I20
sS'objects'
p4134
I6
sS'sink'
p4135
I6
sS'sing'
p4136
I57
sS'safer'
p4137
I9
sS'extreme'
p4138
I13
sS'talent'
p4139
I6
sS'32'
p4140
I12
sS'30'
p4141
I159
sS'35'
p4142
I19
sS'34'
p4143
I1156
sS'detune'
p4144
I10
sS'named'
p4145
I6
sS'private'
p4146
I9
sS'decrease'
p4147
I5
sS'names'
p4148
I16
sS'proprietary'
p4149
I5
sS'clockwise'
p4150
I5
sS'staple'
p4151
I6
sS'breakup'
p4152
I17
sS'humidifier'
p4153
I25
sS'readable'
p4154
I10
sS'oils'
p4155
I14
sS'humidified'
p4156
I5
sS'oily'
p4157
I14
sS'prized'
p4158
I6
sS'train'
p4159
I18
sS'iii'
p4160
I65
sS'account'
p4161
I19
sS'fooling'
p4162
I6
sS'obvious'
p4163
I41
sS'praise'
p4164
I16
sS'closing'
p4165
I12
sS'didnt'
p4166
I33
sS'e.g.'
p4167
I9
sS'sanding'
p4168
I13
sS'effectively'
p4169
I26
sS'.just'
p4170
I6
sS'bones'
p4171
I6
sS'lame'
p4172
I8
sS'line6'
p4173
I20
sS'holds'
p4174
I291
sS'noisey'
p4175
I6
sS'varies'
p4176
I5
sS'attachment'
p4177
I37
sS'stock'
p4178
I175
sS'profile'
p4179
I29
sS'specifications'
p4180
I7
sS'highs'
p4181
I80
sS'collection'
p4182
I42
sS'bothered'
p4183
I12
sS'fray'
p4184
I9
sS'chasing'
p4185
I7
sS'sm7b'
p4186
I43
sS'bind'
p4187
I5
sS'lines'
p4188
I30
sS'solos'
p4189
I40
sS'subsequently'
p4190
I5
sS'lined'
p4191
I21
sS'marshalls'
p4192
I5
sS'meter'
p4193
I27
sS'looping'
p4194
I15
sS'squier'
p4195
I78
sS'onboard'
p4196
I15
sS'bunch'
p4197
I89
sS'le'
p4198
I8
sS'la'
p4199
I11
sS'lo'
p4200
I9
sS'll'
p4201
I6
sS'labor'
p4202
I6
sS'lt'
p4203
I6
sS'lp'
p4204
I73
sS'image'
p4205
I17
sS'dad'
p4206
I9
sS'dab'
p4207
I6
sS'dan'
p4208
I9
sS'emg'
p4209
I6
sS'mention'
p4210
I69
sS'cutting'
p4211
I44
sS'trade'
p4212
I16
sS'day'
p4213
I271
sS'all-in-one'
p4214
I6
sS'warned'
p4215
I15
sS'dp-008ex'
p4216
I13
sS'slipping'
p4217
I40
sS'beringer'
p4218
I5
sS'ts9'
p4219
I26
sS'tubing'
p4220
I12
sS'lie'
p4221
I5
sS'activate'
p4222
I9
sS'calibrate'
p4223
I6
sS'58a'
p4224
I10
sS'tubular'
p4225
I8
sS'popping'
p4226
I24
sS'mate'
p4227
I12
sS'stud'
p4228
I25
sS'electronics'
p4229
I72
sS'red'
p4230
I140
sS'gears'
p4231
I7
sS'iriffport'
p4232
I10
sS'backwards'
p4233
I8
sS'midi'
p4234
I85
sS'automatic'
p4235
I7
sS'retain'
p4236
I10
sS'retail'
p4237
I14
sS'mids'
p4238
I85
sS'finest'
p4239
I9
sS'reaches'
p4240
I5
sS'embarrassed'
p4241
I6
sS'reached'
p4242
I7
sS'owning'
p4243
I13
sS'ancient'
p4244
I6
sS'sadly'
p4245
I20
sS'monkey'
p4246
I40
sS'pots'
p4247
I42
sS'intermediate'
p4248
I14
sS'messing'
p4249
I28
sS'nitro'
p4250
I11
sS'explanation'
p4251
I6
sS'adjusts'
p4252
I37
sS'9-volt'
p4253
I10
sS'ipad'
p4254
I103
sS'loved'
p4255
I82
sS'slack'
p4256
I8
sS'compensation'
p4257
I6
sS'transducer'
p4258
I5
sS'loves'
p4259
I64
sS'comfortable'
p4260
I276
sS"'just"
p4261
I6
sS'connectors'
p4262
I84
sS'comfortably'
p4263
I23
sS'curved'
p4264
I14
sS'mim'
p4265
I41
sS'min'
p4266
I6
sS'mic'
p4267
I1282
sS'gravity'
p4268
I13
sS'mix'
p4269
I122
sS'concerns'
p4270
I25
sS'strikes'
p4271
I7
sS'slotted'
p4272
I7
sS'guitar.i'
p4273
I18
sS'occasion'
p4274
I12
sS'skinny'
p4275
I11
sS'selection'
p4276
I29
sS'rotating'
p4277
I10
sS'kits'
p4278
I13
sS'thicker'
p4279
I88
sS'coloring'
p4280
I10
sS'grabbed'
p4281
I14
sS'knowledge'
p4282
I17
sS'controls'
p4283
I175
sS'prolong'
p4284
I7
sS'unable'
p4285
I6
sS'handsome'
p4286
I6
sS'inferior'
p4287
I13
sS'regularly'
p4288
I29
sS'exceptional'
p4289
I18
sS'beat'
p4290
I227
sS'unbeatable'
p4291
I14
sS'bear'
p4292
I15
sS'perfection'
p4293
I11
sS'timing'
p4294
I12
sS'organ'
p4295
I5
sS'fixes'
p4296
I11
sS'calling'
p4297
I9
sS'tightening'
p4298
I28
sS'fixed'
p4299
I46
sS'gibson'
p4300
I169
sS'enhances'
p4301
I9
sS'national'
p4302
I18
sS'intensity'
p4303
I13
sS'enhanced'
p4304
I6
sS'phaser'
p4305
I35
sS'attempting'
p4306
I5
sS'pattern'
p4307
I46
sS'difficulties'
p4308
I5
sS'routing'
p4309
I8
sS'progress'
p4310
I6
sS'dr-07mkii'
p4311
I8
sS'decibels'
p4312
I6
sS'horizontally'
p4313
I7
sS'deliver'
p4314
I31
sS'optional'
p4315
I14
sS'legit'
p4316
I7
sS'instant'
p4317
I18
sS'freely'
p4318
I8
sS'equal'
p4319
I32
sS'trips'
p4320
I7
sS'assure'
p4321
I6
sS'passing'
p4322
I7
sS'comment'
p4323
I55
sS'detailed'
p4324
I11
sS'relevant'
p4325
I5
sS'm13'
p4326
I13
sS'laugh'
p4327
I11
sS'bose'
p4328
I9
sS'tremendous'
p4329
I13
sS'muddy'
p4330
I43
sS'copies'
p4331
I7
sS'seasoned'
p4332
I9
sS'indicators'
p4333
I8
sS'angled'
p4334
I24
sS'finishes'
p4335
I31
sS'neotech'
p4336
I9
sS'essentially'
p4337
I37
sS'bulk'
p4338
I17
sS'finished'
p4339
I46
sS'angles'
p4340
I14
sS'bulb'
p4341
I6
sS'ac/dc'
p4342
I11
sS'multi'
p4343
I27
sS'splits'
p4344
I7
sS'plain'
p4345
I49
sS'appearance'
p4346
I24
sS'frustrating'
p4347
I18
sS'ill'
p4348
I11
sS'manually'
p4349
I15
sS'use.i'
p4350
I11
sS'helped'
p4351
I50
sS'48v'
p4352
I6
sS'claimed'
p4353
I9
sS'partner'
p4354
I8
sS'tighten'
p4355
I62
sS'practice'
p4356
I389
sS'overdrives'
p4357
I17
sS'ios'
p4358
I8
sS'variance'
p4359
I5
sS'judgment'
p4360
I5
sS'tighter'
p4361
I35
sS'bluesy'
p4362
I20
sS'center'
p4363
I106
sS'oops'
p4364
I6
sS'sets'
p4365
I122
sS'comparisons'
p4366
I10
sS'muscle'
p4367
I6
sS'usual'
p4368
I47
sS'stores'
p4369
I35
sS'tripods'
p4370
I5
sS'proximity'
p4371
I13
sS'stored'
p4372
I19
sS'voltage'
p4373
I23
sS'protecting'
p4374
I15
sS'epiphone'
p4375
I151
sS'ads'
p4376
I5
sS'recommending'
p4377
I5
sS'bench'
p4378
I36
sS'add'
p4379
I273
sS'voila'
p4380
I7
sS'match'
p4381
I96
sS'resolved'
p4382
I9
sS'tests'
p4383
I18
sS'unplugging'
p4384
I13
sS'fyi'
p4385
I12
sS'ac15'
p4386
I9
sS'.but'
p4387
I11
sS'insert'
p4388
I41
sS'success'
p4389
I9
sS'vibrant'
p4390
I7
sS'epoxy'
p4391
I6
sS'soft'
p4392
I229
sS'audible'
p4393
I30
sS'heel'
p4394
I9
sS'accessible'
p4395
I21
sS'classical'
p4396
I126
sS'alive'
p4397
I9
sS'hair'
p4398
I20
sS'markley'
p4399
I7
sS'recommendation'
p4400
I19
sS'proper'
p4401
I78
sS'snuggly'
p4402
I5
sS'aesthetically'
p4403
I5
sS'esp'
p4404
I8
sS'slide'
p4405
I160
sS'fuzz'
p4406
I116
sS'economical'
p4407
I17
sS'uni-vibe'
p4408
I8
sS'screwed'
p4409
I24
sS'chains'
p4410
I11
sS'noise'
p4411
I545
sS'slight'
p4412
I89
sS'stellar'
p4413
I8
sS'host'
p4414
I7
sS'worthy'
p4415
I18
sS'snapped'
p4416
I15
sS'periodically'
p4417
I10
sS'panel'
p4418
I25
sS'actual'
p4419
I78
sS'socket'
p4420
I33
sS'purist'
p4421
I5
sS'toms'
p4422
I7
sS'serviceable'
p4423
I10
sS'addendum'
p4424
I5
sS'introduced'
p4425
I15
sS'functional'
p4426
I45
sS'guard'
p4427
I35
sS'doesnt'
p4428
I31
sS'female'
p4429
I32
sS'1980'
p4430
I12
sS'stainless'
p4431
I23
sS'buckle'
p4432
I8
sS'biggest'
p4433
I34
sS'rca'
p4434
I30
sS'one.the'
p4435
I5
sS'buy'
p4436
I1218
sS'brand'
p4437
I292
sS'hd500'
p4438
I6
sS'reminds'
p4439
I11
sS'repeated'
p4440
I9
sS'editing'
p4441
I27
sS'bug'
p4442
I5
sS'versatile'
p4443
I110
sS'partially'
p4444
I10
sS'wise'
p4445
I44
sS'variations'
p4446
I12
sS'flip'
p4447
I25
sS'minutes'
p4448
I144
sS'pin'
p4449
I96
sS'whisper'
p4450
I5
sS'internals'
p4451
I5
sS'chromacast'
p4452
I7
sS'pig'
p4453
I7
sS'periods'
p4454
I19
sS'48'
p4455
I15
sS'49'
p4456
I6
sS'45'
p4457
I31
sS'42'
p4458
I5
sS'43'
p4459
I7
sS'virtual'
p4460
I18
sS'flange'
p4461
I8
sS'variation'
p4462
I10
sS'godsend'
p4463
I7
sS'philips'
p4464
I6
sS'resolution'
p4465
I8
sS'limited'
p4466
I74
sS'tr-2'
p4467
I5
sS'sleek'
p4468
I13
sS'sleep'
p4469
I6
sS'hate'
p4470
I78
sS'assembled'
p4471
I18
sS'replacements'
p4472
I16
sS'patches'
p4473
I34
sS'acoustically'
p4474
I7
sS'whatsoever'
p4475
I30
sS'tweed'
p4476
I40
sS'regrets'
p4477
I11
sS'risk'
p4478
I31
sS'rise'
p4479
I7
sS'jack'
p4480
I247
sS'vastly'
p4481
I5
sS'encounter'
p4482
I6
sS'school'
p4483
I51
sS'ovation'
p4484
I35
sS'venue'
p4485
I24
sS'flashy'
p4486
I8
sS'glued'
p4487
I12
sS'enjoy'
p4488
I81
sS'consistent'
p4489
I38
sS'direct'
p4490
I99
sS'unscrewing'
p4491
I10
sS'nail'
p4492
I26
sS'louder'
p4493
I70
sS'blue'
p4494
I168
sS'hide'
p4495
I11
sS'selected'
p4496
I15
sS'sibilance'
p4497
I5
sS'supplied'
p4498
I25
sS'beater'
p4499
I8
sS'supplies'
p4500
I26
sS'kicked'
p4501
I9
sS'applies'
p4502
I10
sS'hundreds'
p4503
I34
sS'studio'
p4504
I400
sS'path'
p4505
I11
sS'forum'
p4506
I12
sS'luggage'
p4507
I5
sS'leaves'
p4508
I45
sS'changed'
p4509
I75
sS'settled'
p4510
I28
sS'prints'
p4511
I9
sS'stray'
p4512
I6
sS'strat'
p4513
I297
sS'feelings'
p4514
I6
sS'visible'
p4515
I24
sS'*the'
p4516
I5
sS'forums'
p4517
I15
sS'ebony'
p4518
I13
sS'swings'
p4519
I8
sS'm5'
p4520
I8
sS'noting'
p4521
I6
sS'm1'
p4522
I7
sS'm3'
p4523
I5
sS'deville'
p4524
I10
sS'preview'
p4525
I7
sS'pic'
p4526
I16
sS'phone'
p4527
I27
sS'excellent'
p4528
I419
sS'muss'
p4529
I5
sS'phono'
p4530
I9
sS'pouch'
p4531
I17
sS'shoot'
p4532
I8
sS'ma'
p4533
I6
sS'cheapest'
p4534
I27
sS'mm'
p4535
I35
sS'tremendously'
p4536
I8
sS'mi'
p4537
I9
sS'mk'
p4538
I6
sS'.wav'
p4539
I6
sS'install'
p4540
I214
sS'loosen'
p4541
I24
sS'estate'
p4542
I12
sS'gadgets'
p4543
I5
sS'looser'
p4544
I9
sS'guarantee'
p4545
I14
sS'iiis'
p4546
I10
sS'returning'
p4547
I30
sS'drummer'
p4548
I54
sS'gate'
p4549
I40
sS'charging'
p4550
I7
sS'badly'
p4551
I13
sS'it.if'
p4552
I8
sS'description'
p4553
I71
sS'mess'
p4554
I64
sS'it.it'
p4555
I12
sS'jumping'
p4556
I7
sS'mesa'
p4557
I22
sS'parallel'
p4558
I11
sS'upside'
p4559
I15
sS'ultimate'
p4560
I36
sS'enter'
p4561
I6
sS'executed'
p4562
I5
sS'underside'
p4563
I11
sS'40-'
p4564
I5
sS'40+'
p4565
I5
sS'expectations'
p4566
I49
sS'imo'
p4567
I38
sS'writing'
p4568
I35
sS'destroyed'
p4569
I5
sS'complex'
p4570
I20
sS'fade'
p4571
I11
sS'400'
p4572
I12
sS'4033'
p4573
I5
sS'wayyy'
p4574
I5
sS'crunchy'
p4575
I16
sS'choir'
p4576
I5
sS'filling'
p4577
I5
sS'lasting'
p4578
I47
sS'hanger'
p4579
I58
sS'cloths'
p4580
I20
sS'mahogany'
p4581
I20
sS'unscrew'
p4582
I22
sS'depress'
p4583
I6
sS'gon'
p4584
I28
sS'driving'
p4585
I15
sS'stringed'
p4586
I51
sS'god'
p4587
I15
sS'laid'
p4588
I7
sS'intonate'
p4589
I5
sS'clamps'
p4590
I29
sS'perception'
p4591
I5
sS'free'
p4592
I171
sS'mastering'
p4593
I9
sS'fret'
p4594
I205
sS'inexpensive'
p4595
I287
sS'days'
p4596
I231
sS'filter'
p4597
I157
sS'heck'
p4598
I35
sS'xm1800s'
p4599
I5
sS'industrial'
p4600
I7
sS'coding'
p4601
I19
sS'primary'
p4602
I41
sS'hearing'
p4603
I42
sS'insulation'
p4604
I5
sS'sovtek'
p4605
I6
sS'researched'
p4606
I16
sS'honeytone'
p4607
I12
sS'toy'
p4608
I52
sS'top'
p4609
I461
sS'attack'
p4610
I86
sS'heights'
p4611
I9
sS'ton'
p4612
I47
sS'tom'
p4613
I16
sS'rockin'
p4614
I5
sS'inconvenient'
p4615
I10
sS'toe'
p4616
I16
sS'ceiling'
p4617
I10
sS'tool'
p4618
I180
sS'serve'
p4619
I21
sS'compressor'
p4620
I114
sS'ns-2'
p4621
I7
sS'frankly'
p4622
I37
sS'exps'
p4623
I7
sS'classes'
p4624
I8
sS'bridge'
p4625
I192
sS'lbs'
p4626
I17
sS'fashion'
p4627
I16
sS'torque'
p4628
I16
sS'talking'
p4629
I44
sS'rat'
p4630
I36
sS'screws'
p4631
I241
sS'compartments'
p4632
I6
sS'triangle'
p4633
I6
sS'ragged'
p4634
I5
sS',and'
p4635
I5
sS'firmware'
p4636
I16
sS'1960'
p4637
I6
sS'isolated'
p4638
I11
sS'oriented'
p4639
I5
sS'snob'
p4640
I11
sS'effectiveness'
p4641
I5
sS'rides'
p4642
I5
sS'clunky'
p4643
I7
sS'shallow'
p4644
I9
sS'tortex'
p4645
I63
sS'audition'
p4646
I5
sS'preset'
p4647
I35
sS'plenty'
p4648
I183
sS'coil'
p4649
I42
sS'coin'
p4650
I8
sS'metal'
p4651
I612
sS'reputation'
p4652
I24
sS'overpriced'
p4653
I24
sS'contacted'
p4654
I16
sS'plectrum'
p4655
I6
sS'random'
p4656
I9
sS'pops'
p4657
I40
sS'colors'
p4658
I108
sS'reissue'
p4659
I26
sS'radio'
p4660
I40
sS'solutions'
p4661
I7
sS'earth'
p4662
I7
sS'peddle'
p4663
I9
sS'situations'
p4664
I39
sS'delays'
p4665
I39
sS'ocd'
p4666
I44
sS'borrowed'
p4667
I11
sS'squeaking'
p4668
I5
sS'watch'
p4669
I35
sS'fluid'
p4670
I6
sS'gogo'
p4671
I12
sS'amazon'
p4672
I466
sS'report'
p4673
I25
sS'toolbox'
p4674
I7
sS'plush'
p4675
I16
sS'isolation'
p4676
I14
sS'adapters'
p4677
I58
sS'transporting'
p4678
I12
sS'habit'
p4679
I23
sS'nut'
p4680
I136
sS'resist'
p4681
I8
sS'disturbing'
p4682
I10
sS'capacity'
p4683
I12
sS'1202fx'
p4684
I5
sS'continually'
p4685
I10
sS'finger'
p4686
I149
sS'approach'
p4687
I9
sS'360'
p4688
I8
sS'1.0mm'
p4689
I7
sS'cajun'
p4690
I6
sS'oxidation'
p4691
I5
sS'confusion'
p4692
I7
sS'weak'
p4693
I55
sS'boss'
p4694
I414
sS'wear'
p4695
I182
sS'now..'
p4696
I5
sS'improve'
p4697
I64
sS'hours'
p4698
I188
sS'protect'
p4699
I81
sS'rhythms'
p4700
I11
sS'fault'
p4701
I52
sS'disengage'
p4702
I7
sS'players'
p4703
I153
sS'layered'
p4704
I5
sS'furry'
p4705
I5
sS'operating'
p4706
I7
sS'expense'
p4707
I16
sS'trust'
p4708
I77
sS'truss'
p4709
I37
sS'november'
p4710
I5
sS'3-band'
p4711
I6
sS'casters'
p4712
I5
sS'beef'
p4713
I5
sS'muddied'
p4714
I5
sS'confident'
p4715
I15
sS'beer'
p4716
I8
sS'spread'
p4717
I18
sS'xm8500'
p4718
I10
sS'expected'
p4719
I228
sS'anchors'
p4720
I42
sS'snips'
p4721
I5
sS'catch'
p4722
I22
sS'combos'
p4723
I8
sS'lesser'
p4724
I8
sS'cracked'
p4725
I17
sS'tremelo'
p4726
I14
sS'accessories'
p4727
I42
sS'exterior'
p4728
I10
sS'wound'
p4729
I76
sS'drawback'
p4730
I26
sS'screw'
p4731
I192
sS'pinstripe'
p4732
I5
sS'riffs'
p4733
I11
sS'cycle'
p4734
I6
sS'mentioning'
p4735
I7
sS'shortly'
p4736
I10
sS'boxes'
p4737
I60
sS'savings'
p4738
I6
sS'mother'
p4739
I12
sS'harmonist'
p4740
I5
sS'laptop'
p4741
I55
sS'thumbs'
p4742
I21
sS'functionally'
p4743
I5
sS'5x'
p4744
I6
sS'vibration'
p4745
I77
sS'cherry'
p4746
I8
sS'5w'
p4747
I5
sS'patching'
p4748
I5
sS'keyser'
p4749
I8
sS'12ax7'
p4750
I25
sS'bands'
p4751
I50
sS'breaks'
p4752
I51
sS'rip'
p4753
I14
sS'judge'
p4754
I14
sS'advanced'
p4755
I19
sS'58'
p4756
I30
sS'59'
p4757
I5
sS'ditto'
p4758
I19
sS'gift'
p4759
I49
sS'57'
p4760
I25
sS'hunt'
p4761
I11
sS'50'
p4762
I123
sS'godin'
p4763
I10
sS'specific'
p4764
I45
sS'5*'
p4765
I6
sS'hung'
p4766
I13
sS'stringing'
p4767
I19
sS'zoom'
p4768
I68
sS'sponge'
p4769
I41
sS'clubs'
p4770
I10
sS'ice'
p4771
I8
sS'christmas'
p4772
I46
sS'cord'
p4773
I198
sS'core'
p4774
I14
sS'discount'
p4775
I6
sS'plug'
p4776
I363
sS'celestion'
p4777
I13
sS'attacks'
p4778
I9
sS'surround'
p4779
I6
sS'misleading'
p4780
I8
sS'ensure'
p4781
I18
sS'dials'
p4782
I30
sS'presence'
p4783
I40
sS'low-cost'
p4784
I5
sS'wattage'
p4785
I10
sS'accommodate'
p4786
I20
sS'ts-9'
p4787
I17
sS'rely'
p4788
I21
sS'indispensable'
p4789
I9
sS'transform'
p4790
I5
sS'sunlight'
p4791
I5
sS'gig'
p4792
I336
sS'stuck'
p4793
I54
sS'questionable'
p4794
I5
sS'head'
p4795
I325
sS'medium'
p4796
I148
sS'amateur'
p4797
I27
sS'attempted'
p4798
I6
sS'differences'
p4799
I42
sS'removes'
p4800
I18
sS'remover'
p4801
I5
sS'sustainer'
p4802
I16
sS'wireless'
p4803
I49
sS'heat'
p4804
I26
sS'hear'
p4805
I261
sS'sustained'
p4806
I12
sS'removed'
p4807
I49
sS'behringers'
p4808
I7
sS'versions'
p4809
I30
sS'bargain'
p4810
I56
sS'ruined'
p4811
I5
sS'latch'
p4812
I10
sS'trim'
p4813
I16
sS'shined'
p4814
I5
sS'shines'
p4815
I24
sS'annoying'
p4816
I87
sS'check'
p4817
I159
sS'constructed'
p4818
I74
sS'looked'
p4819
I115
sS'faithful'
p4820
I6
sS'cos'
p4821
I5
sS'ny'
p4822
I6
sS'tin'
p4823
I19
sS'setting'
p4824
I223
sS'tie'
p4825
I21
sS'ns'
p4826
I49
sS'unbalanced'
p4827
I22
sS'picture'
p4828
I70
sS'scratchy'
p4829
I13
sS'faster'
p4830
I63
sS'bullet'
p4831
I33
sS'well-designed'
p4832
I7
sS'fasten'
p4833
I5
sS'stacks'
p4834
I8
sS'neighbors'
p4835
I20
sS'remarkable'
p4836
I9
sS'rod'
p4837
I60
sS'focus'
p4838
I13
sS'leads'
p4839
I48
sS'comments'
p4840
I29
sS'displaying'
p4841
I6
sS'row'
p4842
I20
sS'environment'
p4843
I33
sS'charge'
p4844
I24
sS'advantage'
p4845
I41
sS'frequencies'
p4846
I38
sS'sloppy'
p4847
I8
sS'flanger'
p4848
I24
sS'screw-in'
p4849
I5
sS'cool'
p4850
I283
sS'impressive'
p4851
I38
sS'level'
p4852
I285
sS'posts'
p4853
I17
sS'brother'
p4854
I28
sS'standards'
p4855
I15
sS'quick'
p4856
I213
sS'lever'
p4857
I19
sS'g7th'
p4858
I25
sS'dries'
p4859
I11
sS'tougher'
p4860
I7
sS'installing'
p4861
I57
sS'dried'
p4862
I7
sS'port'
p4863
I41
sS'good.i'
p4864
I12
sS'stands'
p4865
I305
sS'pleased'
p4866
I196
sS'lucille'
p4867
I5
sS'reply'
p4868
I7
sS'3.5mm'
p4869
I10
sS'water'
p4870
I64
sS'witch'
p4871
I8
sS'noticeable'
p4872
I82
sS'resonance'
p4873
I23
sS'noticeably'
p4874
I21
sS'tweak'
p4875
I44
sS'shark'
p4876
I5
sS'1st'
p4877
I36
sS'bulbs'
p4878
I7
sS'handled'
p4879
I9
sS'handles'
p4880
I32
sS'andy'
p4881
I5
sS'iphone'
p4882
I32
sS'memory'
p4883
I28
sS'riot'
p4884
I8
sS'sessions'
p4885
I30
sS'clicking'
p4886
I8
sS'outputs'
p4887
I44
sS'smudges'
p4888
I20
sS'm-audio'
p4889
I31
sS'unscrewed'
p4890
I5
sS'dialed'
p4891
I23
sS'local'
p4892
I138
sS'modified'
p4893
I22
sS'slightest'
p4894
I12
sS'usability'
p4895
I8
sS'performer'
p4896
I18
sS'figure'
p4897
I95
sS'stroke'
p4898
I7
sS'dropped'
p4899
I55
sS'counting'
p4900
I5
sS'requirements'
p4901
I8
sS'secured'
p4902
I14
sS'1'
p4903
I300
sS'fourth'
p4904
I12
sS'coiled'
p4905
I16
sS'levy'
p4906
I28
sS'clone'
p4907
I55
sS'granddaughter'
p4908
I5
sS'birthday'
p4909
I10
sS'unbelievably'
p4910
I6
sS'classroom'
p4911
I5
sS'amps.i'
p4912
I5
sS'liquid'
p4913
I11
sS'compressing'
p4914
I6
sS'reaper'
p4915
I20
sS'refund'
p4916
I26
sS'acts'
p4917
I12
sS'ymmv'
p4918
I7
sS'worship'
p4919
I10
sS'platform'
p4920
I7
sS'offers'
p4921
I66
sS'cutter'
p4922
I82
sS'bound'
p4923
I5
sS'underneath'
p4924
I26
sS'term'
p4925
I19
sS'corners'
p4926
I23
sS'possibilities'
p4927
I12
sS'realistic'
p4928
I15
sS'individually'
p4929
I21
sS'weighted'
p4930
I12
sS'cm-2'
p4931
I24
sS'adequately'
p4932
I11
sS'intended'
p4933
I74
sS'ultimately'
p4934
I24
sS'factors'
p4935
I10
sS'profit'
p4936
I5
sS'mkii'
p4937
I6
sS'factory'
p4938
I64
sS'rounds'
p4939
I5
sS'wuhans'
p4940
I5
sS'theory'
p4941
I21
sS'electrified'
p4942
I5
sS'high-gain'
p4943
I7
sS'100+'
p4944
I8
sS'yup'
p4945
I8
sS'motion'
p4946
I17
sS'swing'
p4947
I15
sS'discontinued'
p4948
I9
sS'1000'
p4949
I19
sS'ibanez'
p4950
I104
sS'workbench'
p4951
I6
sS'clumsy'
p4952
I14
sS'insist'
p4953
I6
sS'array'
p4954
I17
sS'george'
p4955
I9
sS'engineer'
p4956
I22
sS'molded'
p4957
I24
sS'plastic'
p4958
I540
sS'returns'
p4959
I8
sS'white'
p4960
I106
sS'releases'
p4961
I7
sS'tubescreamer'
p4962
I37
sS'hum'
p4963
I98
sS'slapback'
p4964
I8
sS'screwing'
p4965
I7
sS'released'
p4966
I8
sS'alas'
p4967
I7
sS'copy'
p4968
I69
sS'holder'
p4969
I157
sS'wide'
p4970
I157
sS'require'
p4971
I80
sS'legacy'
p4972
I5
sS'aesthetic'
p4973
I6
sS'cards'
p4974
I27
sS'dissapointed'
p4975
I8
sS'pre'
p4976
I20
sS'register'
p4977
I28
sS'fc4'
p4978
I6
sS'pro'
p4979
I179
sS'measure'
p4980
I19
sS'mates'
p4981
I6
sS'prs'
p4982
I17
sS'preamps'
p4983
I28
sS'washburn'
p4984
I28
sS'conversion'
p4985
I7
sS'sending'
p4986
I17
sS'ideas'
p4987
I13
sS'phillips'
p4988
I9
sS'ideal'
p4989
I58
sS'strengths'
p4990
I7
sS'surf'
p4991
I7
sS'urge'
p4992
I6
sS'polyphonic'
p4993
I8
sS'multiple'
p4994
I89
sS'clearer'
p4995
I25
sS'falls'
p4996
I33
sS'considered'
p4997
I41
sS'grovers'
p4998
I8
sS'readjust'
p4999
I5
sS'cluttering'
p5000
I7
sS'uncle'
p5001
I7
sS'senior'
p5002
I5
sS'applicator'
p5003
I19
sS'quantity'
p5004
I10
sS'drastically'
p5005
I11
sS'spaced'
p5006
I9
sS'cheap'
p5007
I831
sS'spaces'
p5008
I13
sS'faders'
p5009
I8
sS'p-90'
p5010
I5
sS'genius'
p5011
I9
sS'shimmer'
p5012
I15
sS'wood'
p5013
I150
sS'.for'
p5014
I9
sS'lighted'
p5015
I8
sS'jazz'
p5016
I190
sS'expectation'
p5017
I11
sS'lighter'
p5018
I111
sS'distortion'
p5019
I468
sS'freaking'
p5020
I10
sS'aluminum'
p5021
I42
sS'th-2000-s'
p5022
I5
sS'microphones'
p5023
I140
sS'.60'
p5024
I9
sS'connections'
p5025
I43
sS'turntable'
p5026
I7
sS'surfaces'
p5027
I19
sS'fails'
p5028
I24
sS'detect'
p5029
I20
sS'zager'
p5030
I5
sS'crooked'
p5031
I11
sS'review'
p5032
I347
sS'definite'
p5033
I18
sS'hiss'
p5034
I95
sS'arrival'
p5035
I10
sS'25'
p5036
I94
sS'comp'
p5037
I39
sS'fiddling'
p5038
I14
sS'comb'
p5039
I5
sS'reaction'
p5040
I6
sS'archtop'
p5041
I12
sS'region'
p5042
I5
sS'quiet'
p5043
I141
sS'.not'
p5044
I5
sS'duty'
p5045
I83
sS'color'
p5046
I301
sS'kazoo'
p5047
I7
sS'pot'
p5048
I24
sS'period'
p5049
I34
sS'pop'
p5050
I171
sS'sampling'
p5051
I7
sS'60'
p5052
I73
sS'62'
p5053
I22
sS'64'
p5054
I6
sS'65'
p5055
I30
sS'66'
p5056
I5
sS'pod'
p5057
I33
sS'noisy'
p5058
I96
sS'blend'
p5059
I29
sS'rd-300nx'
p5060
I7
sS'cords'
p5061
I103
sS'500'
p5062
I45
sS'..it'
p5063
I7
sS'v22'
p5064
I5
sS'direction'
p5065
I31
sS'bypass'
p5066
I95
sS'careful'
p5067
I113
sS'irrelevant'
p5068
I6
sS'pilot'
p5069
I8
sS'paying'
p5070
I41
sS'shaft'
p5071
I10
sS'mount'
p5072
I193
sS'cash'
p5073
I25
sS'cast'
p5074
I6
sS'dorky'
p5075
I5
sS'slippery'
p5076
I24
sS'shops'
p5077
I17
sS'50s'
p5078
I5
sS'clutter'
p5079
I5
sS'granted'
p5080
I21
sS'locking'
p5081
I102
sS'trip'
p5082
I25
sS'distilled'
p5083
I12
sS'events'
p5084
I10
sS'week'
p5085
I126
sS'driver'
p5086
I71
sS'drives'
p5087
I11
sS'muffled'
p5088
I14
sS'driven'
p5089
I7
sS'decently'
p5090
I8
sS'abalone'
p5091
I9
sS'footprint'
p5092
I30
sS'changing'
p5093
I138
sS'vocalist'
p5094
I13
sS'asio4all'
p5095
I10
sS'threaded'
p5096
I21
sS'modes'
p5097
I44
sS'minimize'
p5098
I11
sS'bodied'
p5099
I5
sS'magical'
p5100
I8
sS'relief'
p5101
I17
sS'components'
p5102
I49
sS'model'
p5103
I243
sS'bodies'
p5104
I7
sS'justify'
p5105
I19
sS'overdrive/distortion'
p5106
I10
sS'kill'
p5107
I18
sS'polish'
p5108
I79
sS'satin'
p5109
I8
sS'guides'
p5110
I14
sS'captured'
p5111
I6
sS'halfway'
p5112
I6
sS'blow'
p5113
I22
sS'widest'
p5114
I7
sS'hint'
p5115
I26
sS'rose'
p5116
I7
sS'reccomend'
p5117
I15
sS'all-around'
p5118
I8
sS'samples'
p5119
I9
sS'sampler'
p5120
I5
sS'flashing'
p5121
I15
sS'styles'
p5122
I45
sS'kills'
p5123
I13
sS'on-off'
p5124
I11
sS'furniture'
p5125
I5
sS'depot'
p5126
I6
sS'towel'
p5127
I16
sS'reduces'
p5128
I16
sS'buddies'
p5129
I9
sS'beefier'
p5130
I6
sS'oddly'
p5131
I8
sS'reduced'
p5132
I21
sS'collapsible'
p5133
I8
sS'competition'
p5134
I21
sS'table'
p5135
I56
sS'tonally'
p5136
I6
sS'intact'
p5137
I5
sS'instruments.i'
p5138
I6
sS'provided'
p5139
I56
sS'mood'
p5140
I6
sS'slick'
p5141
I33
sS'stops'
p5142
I18
sS'moon'
p5143
I8
sS'nails'
p5144
I15
sS'inspect'
p5145
I5
sS'ol'
p5146
I6
sS'od'
p5147
I70
sS'stand'
p5148
I1311
sS'os'
p5149
I5
sS'amber'
p5150
I7
sS'ladies'
p5151
I6
sS'instruments'
p5152
I307
sS'pick-up'
p5153
I10
sS'determine'
p5154
I7
sS'lastly'
p5155
I10
sS'buds'
p5156
I7
sS'strictly'
p5157
I15
sS'ehx'
p5158
I19
sS'mm4'
p5159
I5
sS'energy'
p5160
I8
sS'grunge'
p5161
I5
sS'juh'
p5162
I5
sS'uca222'
p5163
I5
sS'cabinet'
p5164
I65
sS'soprano'
p5165
I58
sS'applying'
p5166
I23
sS'doc'
p5167
I5
sS'grasp'
p5168
I7
sS'flats'
p5169
I17
sS'taylor'
p5170
I88
sS'taste'
p5171
I42
sS'intro'
p5172
I6
sS'blues'
p5173
I187
sS'4.5'
p5174
I9
sS'stumbled'
p5175
I6
sS'rubbed'
p5176
I6
sS'idiot'
p5177
I10
sS'deserve'
p5178
I5
sS'rubber'
p5179
I227
sS'dunlops'
p5180
I24
sS'5'
p5181
I499
sS'dreadnought'
p5182
I35
sS'trash'
p5183
I15
sS'requested'
p5184
I8
sS'separate'
p5185
I80
sS'includes'
p5186
I46
sS'takamine'
p5187
I43
sS'included'
p5188
I194
sS'edirol'
p5189
I12
sS'brass'
p5190
I36
sS'prongs'
p5191
I7
sS'onespot'
p5192
I8
sS'applause'
p5193
I9
sS'calls'
p5194
I14
sS'wife'
p5195
I49
sS'invest'
p5196
I25
sS'odds'
p5197
I6
sS'curve'
p5198
I33
sS'websites'
p5199
I9
sS'lace'
p5200
I14
sS'chinese'
p5201
I36
sS'lack'
p5202
I56
sS'disc'
p5203
I10
sS'follow'
p5204
I25
sS'disk'
p5205
I5
sS'decisions'
p5206
I7
sS'polarity'
p5207
I29
sS'apartment'
p5208
I17
sS'lining'
p5209
I15
sS'extraneous'
p5210
I9
sS'removal'
p5211
I7
sS'program'
p5212
I48
sS'presentation'
p5213
I7
sS'worse'
p5214
I56
sS'song'
p5215
I96
sS'alternatives'
p5216
I18
sS'fat'
p5217
I43
sS'worst'
p5218
I21
sS'awful'
p5219
I22
sS'sony'
p5220
I30
sS'ticket'
p5221
I5
sS'morley'
p5222
I17
sS'list'
p5223
I33
sS'prolonged'
p5224
I8
sS'undone'
p5225
I5
sS'ten'
p5226
I56
sS'tea'
p5227
I5
sS'built-in'
p5228
I42
sS'rate'
p5229
I70
sS'design'
p5230
I316
sS'functioning'
p5231
I11
sS'hesitation'
p5232
I21
sS'gunk'
p5233
I5
sS'sun'
p5234
I7
sS'sum'
p5235
I13
sS'anniversary'
p5236
I5
sS'overload'
p5237
I5
sS'crush'
p5238
I6
sS'version'
p5239
I169
sS'me-70'
p5240
I15
sS'discern'
p5241
I5
sS'multitude'
p5242
I10
sS'christian'
p5243
I7
sS'midrange'
p5244
I34
sS'condenser'
p5245
I131
sS'compressed'
p5246
I10
sS'directions'
p5247
I21
sS'pleasant'
p5248
I22
sS'miniature'
p5249
I6
sS'crybaby'
p5250
I31
sS'acoustic-electric'
p5251
I15
sS'micing'
p5252
I9
sS'options'
p5253
I118
sS'sticking'
p5254
I27
sS'thankfully'
p5255
I8
sS'suddenly'
p5256
I14
sS'screens'
p5257
I16
sS'snug'
p5258
I56
sS'fulltone'
p5259
I27
sS'inlay'
p5260
I8
sS'dissatisfied'
p5261
I5
sS'branded'
p5262
I7
sS'converters'
p5263
I7
sS'minor'
p5264
I88
sS'flat'
p5265
I197
sS'flaw'
p5266
I25
sS'definition'
p5267
I25
sS'pairs'
p5268
I12
sS'adapt'
p5269
I6
sS'floyd'
p5270
I13
sS'basically'
p5271
I112
sS'mellow'
p5272
I51
sS'glad'
p5273
I167
sS'shielded'
p5274
I13
sS'ac-3'
p5275
I6
sS'caveat'
p5276
I8
sS'pony'
p5277
I10
sS'challenging'
p5278
I6
sS'joints'
p5279
I13
sS'protects'
p5280
I27
sS'imitation'
p5281
I5
sS'airplane'
p5282
I6
sS'el84'
p5283
I6
sS'goal'
p5284
I8
sS'breaking'
p5285
I74
sS'occasionally'
p5286
I41
sS'simplicity'
p5287
I19
sS'sabine'
p5288
I5
sS'sandwich'
p5289
I5
sS'emulate'
p5290
I9
sS'lighting'
p5291
I31
sS'ballads'
p5292
I7
sS'shortcomings'
p5293
I6
sS'short'
p5294
I266
sS'footer'
p5295
I7
sS'prefers'
p5296
I5
sS'stash'
p5297
I7
sS'shore'
p5298
I7
sS'shade'
p5299
I10
sS'ft.'
p5300
I6
sS'gauges'
p5301
I38
sS'developed'
p5302
I16
sS'isnt'
p5303
I20
sS'mandolins'
p5304
I22
sS'forgiving'
p5305
I5
sS'style'
p5306
I246
sS'susceptible'
p5307
I13
sS'acoustical'
p5308
I10
sS'strange'
p5309
I25
sS'bout'
p5310
I16
sS'alter'
p5311
I11
sS'return'
p5312
I99
sS'generously'
p5313
I6
sS'grippy'
p5314
I12
sS'inch'
p5315
I135
sS'spring-loaded'
p5316
I7
sS'smoothness'
p5317
I6
sS'bigger'
p5318
I115
sS'instructions'
p5319
I99
sS'inherent'
p5320
I8
sS'weighs'
p5321
I25
sS'weight'
p5322
I253
sS'needless'
p5323
I13
sS'generation'
p5324
I9
sS'expect'
p5325
I275
sS'scratching'
p5326
I18
sS'wondered'
p5327
I5
sS'dm70'
p5328
I7
sS'shipment'
p5329
I6
sS'fiber'
p5330
I13
sS'friday'
p5331
I8
sS'pedalboard'
p5332
I103
sS'experimenting'
p5333
I30
sS'amazon.com'
p5334
I13
sS'heads'
p5335
I89
sS'teach'
p5336
I26
sS'generate'
p5337
I9
sS'thrown'
p5338
I15
sS'thread'
p5339
I26
sS'e.g'
p5340
I20
sS'circuit'
p5341
I45
sS'fallen'
p5342
I12
sS'solidly'
p5343
I48
sS'feed'
p5344
I28
sS'cradles'
p5345
I5
sS'feel'
p5346
I789
sS'fancy'
p5347
I41
sS'traveled'
p5348
I5
sS'well-known'
p5349
I6
sS'defects'
p5350
I12
sS'manhasset'
p5351
I8
sS'story'
p5352
I19
sS'temperature'
p5353
I7
sS'script'
p5354
I5
sS'leading'
p5355
I10
sS'interviews'
p5356
I6
sS'grime'
p5357
I13
sS'comfy'
p5358
I14
sS'hangs'
p5359
I13
sS'passed'
p5360
I12
sS'store'
p5361
I192
sS'pm0.5'
p5362
I10
sS'amplifiers'
p5363
I24
sS'hotel'
p5364
I6
sS'alesis'
p5365
I21
sS'luckily'
p5366
I16
sS'dulcimer'
p5367
I9
sS'convinced'
p5368
I20
sS'versatility'
p5369
I31
sS'king'
p5370
I16
sS'compartment'
p5371
I45
sS'5-star'
p5372
I15
sS'double'
p5373
I104
sS'instruction'
p5374
I18
sS'dano'
p5375
I12
sS'outdoors'
p5376
I14
sS'dang'
p5377
I10
sS'cleaner'
p5378
I92
sS'outstanding'
p5379
I53
sS'alike'
p5380
I8
sS'cleaned'
p5381
I22
sS'pickholder'
p5382
I9
sS'nights'
p5383
I7
sS'moist'
p5384
I6
sS'finding'
p5385
I48
sS'banjo'
p5386
I127
sS'buff'
p5387
I8
sS'audio-technica'
p5388
I9
sS'electric'
p5389
I642
sS'warnings'
p5390
I5
sS'customize'
p5391
I13
sS'measures'
p5392
I9
sS'reach'
p5393
I54
sS'react'
p5394
I8
sS'76'
p5395
I7
sS'75'
p5396
I33
sS'72'
p5397
I5
sS'70'
p5398
I44
sS'measured'
p5399
I17
sS'dealers'
p5400
I6
sS'windows'
p5401
I71
sS'traditional'
p5402
I60
sS'me.i'
p5403
I7
sS'notch'
p5404
I32
sS'lying'
p5405
I14
sS'bending'
p5406
I44
sS'epiphones'
p5407
I8
sS'mexico'
p5408
I5
sS'fond'
p5409
I9
sS'cds'
p5410
I5
sS'costing'
p5411
I34
sS'securing'
p5412
I9
sS'uca202'
p5413
I11
sS'windings'
p5414
I17
sS'hip'
p5415
I5
sS'hit'
p5416
I113
sS'gains'
p5417
I6
sS'whistle'
p5418
I5
sS'cs-3'
p5419
I11
sS'stamp'
p5420
I5
sS'sound.i'
p5421
I8
sS'watched'
p5422
I16
sS'wrote'
p5423
I32
sS'bars'
p5424
I46
sS'art'
p5425
I22
sS'achieved'
p5426
I6
sS'intelli'
p5427
I20
sS'dumb'
p5428
I12
sS'2.0'
p5429
I14
sS'arm'
p5430
I110
sS'2.5'
p5431
I15
sS'distinctive'
p5432
I7
sS'plywood'
p5433
I8
sS'2020'
p5434
I9
sS'numerous'
p5435
I22
sS'blurb'
p5436
I5
sS'solo'
p5437
I67
sS'creating'
p5438
I17
sS'initially'
p5439
I47
sS'sold'
p5440
I88
sS'attention'
p5441
I41
sS'relying'
p5442
I8
sS'bronze'
p5443
I81
sS'hesitant'
p5444
I13
sS'rollers'
p5445
I5
sS'reasons'
p5446
I32
sS'sweet'
p5447
I131
sS'sweep'
p5448
I22
sS'20.00'
p5449
I11
sS'rave'
p5450
I8
sS'slots'
p5451
I23
sS'seiko'
p5452
I9
sS'duh'
p5453
I12
sS'ps'
p5454
I8
sS'pw'
p5455
I6
sS'duo'
p5456
I10
sS'dud'
p5457
I6
sS'teacher'
p5458
I21
sS'pb'
p5459
I6
sS'pc'
p5460
I67
sS'reduction'
p5461
I14
sS'pa'
p5462
I101
sS'brick'
p5463
I22
sS'pi'
p5464
I7
sS'flight'
p5465
I8
sS'buck'
p5466
I43
sS'precision'
p5467
I14
sS'well-made'
p5468
I28
sS'demand'
p5469
I6
sS'rocking'
p5470
I15
sS'instructor'
p5471
I11
sS'stolen'
p5472
I12
sS'thirty'
p5473
I12
sS'batch'
p5474
I5
sS'corrode'
p5475
I10
sS'tweaking'
p5476
I49
sS'homework'
p5477
I5
sS'behavior'
p5478
I5
sS'sm58s'
p5479
I5
sS'knob'
p5480
I256
sS'gel'
p5481
I13
sS'bluegrass'
p5482
I19
sS'leans'
p5483
I10
sS'higher-end'
p5484
I5
sS'disappointing'
p5485
I20
sS'demos'
p5486
I26
sS'rig'
p5487
I94
sS'rid'
p5488
I36
sS'lengthy'
p5489
I5
sS'shirt'
p5490
I16
sS'lengths'
p5491
I23
sS'9'
p5492
I123
sS'advise'
p5493
I11
sS'daughters'
p5494
I8
sS'arrives'
p5495
I6
sS'arrived'
p5496
I178
sS'robust'
p5497
I26
sS'weird'
p5498
I59
sS'lower'
p5499
I207
sS'cheep'
p5500
I7
sS'edge'
p5501
I74
sS'ergonomic'
p5502
I7
sS'questions'
p5503
I28
sS'loading'
p5504
I5
sS'tablet'
p5505
I15
sS'exclusively'
p5506
I18
sS'problematic'
p5507
I11
sS'finder'
p5508
I5
sS'8221'
p5509
I6
sS'complaint'
p5510
I120
sS'vendor'
p5511
I26
sS'unlimited'
p5512
I10
sS'skeptical'
p5513
I32
sS'modifications'
p5514
I8
sS'rotate'
p5515
I34
sS'shaped'
p5516
I25
sS'admittedly'
p5517
I22
sS'separately'
p5518
I22
sS'collect'
p5519
I11
sS'unstable'
p5520
I8
sS'essential'
p5521
I21
sS'understood'
p5522
I7
sS'compressors'
p5523
I31
sS'pros'
p5524
I47
sS'prop'
p5525
I6
sS'capos'
p5526
I156
sS'retro'
p5527
I14
sS'overly'
p5528
I30
sS'pickguards'
p5529
I6
sS'elixir'
p5530
I157
sS'standalone'
p5531
I8
sS'violins'
p5532
I10
sS'jamman'
p5533
I6
sS'lifeless'
p5534
I7
sS'range'
p5535
I326
sS'go-to'
p5536
I22
sS'callouses'
p5537
I11
sS'strumming'
p5538
I101
sS'impressed'
p5539
I161
sS'baggs'
p5540
I7
sS'question'
p5541
I38
sS'fast'
p5542
I269
sS'prettier'
p5543
I7
sS'sections'
p5544
I12
sS'files'
p5545
I22
sS'plunge'
p5546
I5
sS'flatwound'
p5547
I10
sS'criteria'
p5548
I7
sS'cloth'
p5549
I182
sS'crank'
p5550
I54
sS'repeatedly'
p5551
I12
sS'filed'
p5552
I6
sS'upright'
p5553
I23
sS'junior'
p5554
I12
sS'raising'
p5555
I7
sS'schubb'
p5556
I18
sS'telecaster'
p5557
I65
sS'characteristic'
p5558
I14
sS'barring'
p5559
I5
sS'etc.'
p5560
I32
sS'called'
p5561
I43
sS'bell'
p5562
I8
sS'freak'
p5563
I8
sS'worthwhile'
p5564
I13
sS'stick'
p5565
I145
sS'warning'
p5566
I27
sS'fatso'
p5567
I5
sS'lemon'
p5568
I24
sS'conductor'
p5569
I5
sS'tone'
p5570
I1481
sS'peace'
p5571
I13
sS'nick'
p5572
I10
sS'parlor'
p5573
I7
sS'nice'
p5574
I1682
sS'generates'
p5575
I7
sS'helping'
p5576
I7
sS'meaning'
p5577
I28
sS'allowing'
p5578
I35
sS'happier'
p5579
I50
sS'vice'
p5580
I15
sS'waxing'
p5581
I5
sS'weights'
p5582
I7
sS'scroll'
p5583
I6
sS'hooks'
p5584
I17
sS'resistance'
p5585
I20
sS'steve'
p5586
I6
sS'jimi'
p5587
I15
sS'winds'
p5588
I11
sS'adjustment'
p5589
I113
sS'issues'
p5590
I240
sS'squeezing'
p5591
I15
sS'stable'
p5592
I131
sS'dramatically'
p5593
I8
sS'wished'
p5594
I5
sS'engineered'
p5595
I10
sS'readout'
p5596
I14
sS'graphic'
p5597
I5
sS'notes'
p5598
I173
sS'deals'
p5599
I13
sS'dealt'
p5600
I6
sS'someday'
p5601
I7
sS'gripping'
p5602
I14
sS'cfh'
p5603
I12
sS'slinkys'
p5604
I25
sS'folds'
p5605
I63
sS'wrestling'
p5606
I5
sS'fold'
p5607
I31
sS'traveling'
p5608
I23
sS'acid'
p5609
I5
sS'makers'
p5610
I8
sS'folk'
p5611
I21
sS'hardest'
p5612
I6
sS'waiting'
p5613
I27
sS'modded'
p5614
I15
sS'chose'
p5615
I53
sS'degree'
p5616
I34
sS'pushing'
p5617
I21
sS'wraps'
p5618
I10
sS'desired'
p5619
I35
sS'explore'
p5620
I9
sS'separation'
p5621
I6
sS'lubricant'
p5622
I9
sS'sexy'
p5623
I8
sS'settling'
p5624
I7
sS'larger'
p5625
I174
sS'shades'
p5626
I5
sS'leaving'
p5627
I42
sS'suggests'
p5628
I6
sS'apple'
p5629
I12
sS'scales'
p5630
I18
sS'duct'
p5631
I9
sS'app'
p5632
I33
sS'volt'
p5633
I43
sS'api'
p5634
I5
sS'apply'
p5635
I51
sS'fed'
p5636
I6
sS'usb'
p5637
I244
sS'usa'
p5638
I31
sS'sort'
p5639
I107
sS'clever'
p5640
I8
sS'porch'
p5641
I6
sS'inclined'
p5642
I12
sS'musician'
p5643
I180
sS'impress'
p5644
I11
sS'sore'
p5645
I10
sS'heil'
p5646
I12
sS'detects'
p5647
I5
sS'proof'
p5648
I18
sS'tap'
p5649
I61
sS'tax'
p5650
I10
sS'dripping'
p5651
I6
sS'tad'
p5652
I29
sS'tag'
p5653
I27
sS'tab'
p5654
I19
sS'serial'
p5655
I6
sS'syndrome'
p5656
I5
sS'sit'
p5657
I66
sS'fortunate'
p5658
I6
sS'input/output'
p5659
I5
sS'struggled'
p5660
I6
sS'modulations'
p5661
I6
sS'tension'
p5662
I193
sS'abuse'
p5663
I49
sS'wrist'
p5664
I5
sS'martins'
p5665
I27
sS'light'
p5666
I685
sS'straps'
p5667
I234
sS'honestly'
p5668
I86
sS'saturated'
p5669
I12
sS'stamped'
p5670
I9
sS'fizzy'
p5671
I15
sS'130'
p5672
I6
sS'boosts'
p5673
I16
sS'superior'
p5674
I50
sS'ships'
p5675
I21
sS'presonus'
p5676
I10
sS'permanent'
p5677
I16
sS'choose'
p5678
I69
sS'orange'
p5679
I42
sS'covered'
p5680
I43
sS'receptacles'
p5681
I5
sS'flex'
p5682
I32
sS'crash'
p5683
I16
sS'richness'
p5684
I9
sS'material'
p5685
I156
sS'hosa'
p5686
I65
sS'articulate'
p5687
I19
sS'transmitter'
p5688
I17
sS'drummers'
p5689
I6
sS'edit'
p5690
I32
sS'weather'
p5691
I9
sS'fiddle'
p5692
I30
sS'hardwire'
p5693
I10
sS'champ'
p5694
I69
sS'economy'
p5695
I5
sS'tray'
p5696
I9
sS'studios'
p5697
I22
sS'unbelievable'
p5698
I20
sS'88'
p5699
I5
sS'80'
p5700
I46
sS'85'
p5701
I5
sS'category'
p5702
I19
sS'performs'
p5703
I37
sS'at108'
p5704
I8
sS'supports'
p5705
I16
sS'integrated'
p5706
I8
sS'o.k'
p5707
I5
sS'humbuckers'
p5708
I30
sS'elixirs'
p5709
I55
sS'ipod'
p5710
I21
sS'polywebs'
p5711
I13
sS'must-have'
p5712
I20
sS'organic'
p5713
I11
sS'conversation'
p5714
I6
sS'4th'
p5715
I16
sS'insane'
p5716
I12
sS'echo'
p5717
I84
sS'kidding'
p5718
I19
sS'straight'
p5719
I143
sS'gigging'
p5720
I88
sS'rigs'
p5721
I5
sS"'78"
p5722
I5
sS'shell'
p5723
I37
sS'shelf'
p5724
I30
sS'transistor'
p5725
I6
sS'slides'
p5726
I32
sS'slider'
p5727
I9
sS'simulate'
p5728
I5
sS'intonation'
p5729
I70
sS'tone.the'
p5730
I7
sS'boring'
p5731
I9
sS'richer'
p5732
I12
sS'enought'
p5733
I6
sS'ukuleles'
p5734
I43
sS'encore'
p5735
I5
sS'1.5'
p5736
I8
sS'1.0'
p5737
I7
sS'clip'
p5738
I309
sS'faux'
p5739
I6
sS'linked'
p5740
I7
sS'mid-gain'
p5741
I5
sS'afraid'
p5742
I18
sS'angle'
p5743
I149
sS'bough'
p5744
I5
sS'='
p5745
I31
sS'frontman'
p5746
I20
sS'49.99'
p5747
I6
sS'cracking'
p5748
I8
sS'class'
p5749
I49
sS'dent'
p5750
I11
sS'pipe'
p5751
I12
sS'chances'
p5752
I10
sS'longevity'
p5753
I26
sS'purely'
p5754
I8
sS'planning'
p5755
I29
sS'chicken'
p5756
I7
sS'debate'
p5757
I9
sS'ear'
p5758
I108
sS'combo'
p5759
I91
sS'piano'
p5760
I81
sS'thousands'
p5761
I13
sS'cube'
p5762
I21
sS'topple'
p5763
I7
sS'990'
p5764
I9
sS'watching'
p5765
I12
sS'ej16'
p5766
I7
sS'bronco'
p5767
I5
sS'chips'
p5768
I9
sS'dp-008'
p5769
I8
sS'metronome'
p5770
I89
sS'stitching'
p5771
I14
sS'qc'
p5772
I8
sS'generations'
p5773
I5
sS'view'
p5774
I28
sS'buzzes'
p5775
I7
sS'requirement'
p5776
I11
sS'acquired'
p5777
I17
sS'module'
p5778
I8
sS'closer'
p5779
I51
sS'closes'
p5780
I5
sS'closet'
p5781
I14
sS'superb'
p5782
I35
sS'favor'
p5783
I25
sS'closed'
p5784
I33
sS'interfaces'
p5785
I22
sS'bought'
p5786
I1399
sS'gooseneck'
p5787
I28
sS'ability'
p5788
I98
sS'joy'
p5789
I15
sS'job'
p5790
I591
sS'joe'
p5791
I23
sS'fine.i'
p5792
I5
sS'tremolo'
p5793
I96
sS'april'
p5794
I5
sS'grain'
p5795
I11
sS'grail'
p5796
I20
sS'safely'
p5797
I16
sS'mechanics'
p5798
I5
sS'wall'
p5799
I185
sS'narrower'
p5800
I10
sS'environments'
p5801
I16
sS'walk'
p5802
I21
sS'packaging'
p5803
I93
sS'sequences'
p5804
I5
sS'respect'
p5805
I20
sS'i.e.'
p5806
I11
sS'decent'
p5807
I273
sS'bbe'
p5808
I19
sS'trademark'
p5809
I7
sS'charts'
p5810
I5
sS'responds'
p5811
I13
sS'mike'
p5812
I93
sS'nickel'
p5813
I73
sS'velcros'
p5814
I5
sS'painted'
p5815
I9
sS'sufficient'
p5816
I23
sS'crappy'
p5817
I22
sS'remedied'
p5818
I6
sS'dr-212'
p5819
I5
sS'align'
p5820
I7
sS'technica'
p5821
I26
sS'choices'
p5822
I26
sS'stunning'
p5823
I8
sS'intellitouch'
p5824
I18
sS'wild'
p5825
I8
sS'happened'
p5826
I33
sS'~'
p5827
I7
sS'supply'
p5828
I220
sS'layer'
p5829
I31
sS'ringing'
p5830
I12
sS'les'
p5831
I229
sS'completed'
p5832
I5
sS'dual'
p5833
I50
sS'lightweight'
p5834
I76
sS'vintage'
p5835
I174
sS'.this'
p5836
I16
sS'cross'
p5837
I9
sS'unity'
p5838
I8
sS'largest'
p5839
I6
sS'units'
p5840
I115
sS'samson'
p5841
I47
sS'difficult'
p5842
I157
sS'definately'
p5843
I18
sS'disagree'
p5844
I12
sS'beast'
p5845
I11
sS'radiused'
p5846
I8
sS'student'
p5847
I16
sS'pedal'
p5848
I2515
sS'collar'
p5849
I5
sS'timbre'
p5850
I5
sS'incredible'
p5851
I47
sS'unpacked'
p5852
I5
sS'fighting'
p5853
I6
sS'english'
p5854
I7
sS'breaker'
p5855
I13
sS'sensing'
p5856
I7
sS'rocker'
p5857
I6
sS'excessive'
p5858
I17
sS'rocket'
p5859
I6
sS'heavily'
p5860
I19
sS'percent'
p5861
I5
sS'slippage'
p5862
I7
sS'batteries'
p5863
I207
sS'console'
p5864
I11
sS'guts'
p5865
I7
sS'smith'
p5866
I5
sS'capabilities'
p5867
I22
sS'attractive'
p5868
I43
sS'skb'
p5869
I16
sS'usage'
p5870
I19
sS'identical'
p5871
I43
sS'saturation'
p5872
I11
sS'press'
p5873
I82
sS'helpful'
p5874
I60
sS'loses'
p5875
I7
sS'it.the'
p5876
I20
sS'clutch'
p5877
I17
sS'wonders'
p5878
I13
sS'exceed'
p5879
I15
sS'smoothly'
p5880
I22
sS'scared'
p5881
I9
sS'searching'
p5882
I37
sS'multi-track'
p5883
I11
sS'cutters'
p5884
I15
sS'go-dps'
p5885
I10
sS'lead'
p5886
I120
sS'leak'
p5887
I5
sS'lean'
p5888
I15
sS'leap'
p5889
I6
sS'campfire'
p5890
I6
sS'leader'
p5891
I7
sS'locate'
p5892
I7
sS'ripped'
p5893
I10
sS'dangling'
p5894
I6
sS'stratocasters'
p5895
I8
sS'11s'
p5896
I6
sS'throne'
p5897
I6
sS'rare'
p5898
I25
sS'carried'
p5899
I15
sS'extension'
p5900
I51
sS'saddle'
p5901
I53
sS'high-end'
p5902
I30
sS'universe'
p5903
I6
sS'ac30'
p5904
I23
sS'shipping'
p5905
I165
sS'carries'
p5906
I9
sS'swear'
p5907
I26
sS'sweat'
p5908
I26
sS'warranty'
p5909
I56
sS'polished'
p5910
I23
sS'owe'
p5911
I6
sS'headphone'
p5912
I141
sS'squeak'
p5913
I17
sS'polishes'
p5914
I13
sS'promise'
p5915
I12
sS'brush'
p5916
I23
sS'fired'
p5917
I6
sS'van'
p5918
I12
sS'artifacts'
p5919
I5
sS'transfer'
p5920
I14
sS'apps'
p5921
I9
sS'rp255'
p5922
I7
sS'intention'
p5923
I8
sS'build-in'
p5924
I7
sS'volume'
p5925
I592
sS'squeeze'
p5926
I42
sS'record'
p5927
I264
sS'cake'
p5928
I9
sS'goodness'
p5929
I7
sS'gizmo'
p5930
I10
sS'calibration'
p5931
I9
sS'guitarist'
p5932
I121
sS'boot'
p5933
I16
sS'monitors'
p5934
I77
sS'book'
p5935
I70
sS'boom'
p5936
I138
sS'sick'
p5937
I11
sS'long-time'
p5938
I6
sS'incredibly'
p5939
I41
sS'clicks'
p5940
I17
sS'contacting'
p5941
I6
sS'conclusion'
p5942
I17
sS'junk'
p5943
I48
sS'kinds'
p5944
I43
sS'this.the'
p5945
I7
sS'kinda'
p5946
I66
sS'twangy'
p5947
I8
sS'priced'
p5948
I112
sS'case.i'
p5949
I5
sS'jewel'
p5950
I6
sS'volumes'
p5951
I39
sS'sd-1'
p5952
I18
sS'pods'
p5953
I6
s.