(dp0
S'yellow'
p1
S'1281'
p2
sS'woods'
p3
S'3290'
p4
sS'hanging'
p5
S'2682'
p6
sS'woody'
p7
S'4447'
p8
sS'shure'
p9
S'413'
p10
sS'swivel'
p11
S'4649'
p12
sS'shielding'
p13
S'4544'
p14
sS'screaming'
p15
S'2400'
p16
sS'stiffness'
p17
S'673'
p18
sS'disturb'
p19
S'1870'
p20
sS'basics'
p21
S'4811'
p22
sS'internally'
p23
S'4010'
p24
sS'wooden'
p25
S'859'
p26
sS'circuitry'
p27
S'4956'
p28
sS'commented'
p29
S'3468'
p30
sS'glassy'
p31
S'5129'
p32
sS'specially'
p33
S'4359'
p34
sS'tired'
p35
S'398'
p36
sS'scrapes'
p37
S'3878'
p38
sS'elegant'
p39
S'3283'
p40
sS'rusty'
p41
S'4535'
p42
sS'sustaining'
p43
S'1211'
p44
sS'sterile'
p45
S'1726'
p46
sS'theory'
p47
S'3758'
p48
sS'boogie'
p49
S'4737'
p50
sS'fingers'
p51
S'31'
p52
sS'increasing'
p53
S'4788'
p54
sS'error'
p55
S'1528'
p56
sS'jasmine'
p57
S'2766'
p58
sS'reported'
p59
S'5295'
p60
sS'chassis'
p61
S'1792'
p62
sS'china'
p63
S'1536'
p64
sS'kids'
p65
S'2465'
p66
sS'addario'
p67
S'2265'
p68
sS'military'
p69
S'854'
p70
sS'criticism'
p71
S'615'
p72
sS'golden'
p73
S'1256'
p74
sS'projection'
p75
S'5341'
p76
sS'explained'
p77
S'1678'
p78
sS'replace'
p79
S'22'
p80
sS'brought'
p81
S'1843'
p82
sS'9s'
p83
S'5355'
p84
sS'unit'
p85
S'608'
p86
sS'9v'
p87
S'885'
p88
sS'dna'
p89
S'5562'
p90
sS'music'
p91
S'404'
p92
sS'distortions'
p93
S'3088'
p94
sS'strike'
p95
S'4444'
p96
sS'holy'
p97
S'2709'
p98
sS'successful'
p99
S'3534'
p100
sS'brings'
p101
S'2630'
p102
sS'hurt'
p103
S'724'
p104
sS'99'
p105
S'2823'
p106
sS'glass'
p107
S'2158'
p108
sS'90'
p109
S'1348'
p110
sS'hole'
p111
S'986'
p112
sS'hold'
p113
S'40'
p114
sS'95'
p115
S'4685'
p116
sS'hola'
p117
S'5747'
p118
sS'circumstances'
p119
S'3406'
p120
sS'locked'
p121
S'585'
p122
sS'sweeter'
p123
S'4063'
p124
sS'organized'
p125
S'1446'
p126
sS'caution'
p127
S'4024'
p128
sS'reviewing'
p129
S'2950'
p130
sS'absolute'
p131
S'3968'
p132
sS'complaining'
p133
S'1183'
p134
sS'travel'
p135
S'1004'
p136
sS'drying'
p137
S'4704'
p138
sS'damage'
p139
S'1149'
p140
sS'machine'
p141
S'491'
p142
sS'hot'
p143
S'300'
p144
sS'well-constructed'
p145
S'1744'
p146
sS'beauty'
p147
S'3646'
p148
sS'modulation'
p149
S'949'
p150
sS'diagram'
p151
S'3388'
p152
sS'wrong'
p153
S'213'
p154
sS'types'
p155
S'465'
p156
sS'buzzy'
p157
S'4959'
p158
sS'effective'
p159
S'1809'
p160
sS'wins'
p161
S'4313'
p162
sS'guitalele'
p163
S'5407'
p164
sS'wind'
p165
S'1501'
p166
sS'snugly'
p167
S'51'
p168
sS'feedback'
p169
S'1330'
p170
sS'vary'
p171
S'1828'
p172
sS'fidelity'
p173
S'3665'
p174
sS'admirably'
p175
S'3514'
p176
sS'10-46'
p177
S'5326'
p178
sS'fit'
p179
S'85'
p180
sS'directional'
p181
S'2399'
p182
sS'bringing'
p183
S'3886'
p184
sS'backpack'
p185
S'850'
p186
sS'18v'
p187
S'3816'
p188
sS'hidden'
p189
S'3102'
p190
sS'easier'
p191
S'1414'
p192
sS'2032'
p193
S'5300'
p194
sS'proco'
p195
S'2056'
p196
sS'workhorse'
p197
S'1987'
p198
sS'songwriter'
p199
S'5184'
p200
sS'effects'
p201
S'135'
p202
sS'velcro'
p203
S'2379'
p204
sS'silver'
p205
S'1513'
p206
sS'guage'
p207
S'4203'
p208
sS'noticable'
p209
S'4462'
p210
sS'fretless'
p211
S'2953'
p212
sS'financial'
p213
S'5705'
p214
sS'series'
p215
S'196'
p216
sS'spider'
p217
S'3213'
p218
sS'mojomojo'
p219
S'1217'
p220
sS'attenuation'
p221
S'2191'
p222
sS'xp'
p223
S'4413'
p224
sS'dsp'
p225
S'5222'
p226
sS'encourage'
p227
S'4508'
p228
sS'heavy-duty'
p229
S'4109'
p230
sS'adapt'
p231
S'2361'
p232
sS'size'
p233
S'455'
p234
sS'assured'
p235
S'3704'
p236
sS'gretsch'
p237
S'3351'
p238
sS'checked'
p239
S'1462'
p240
sS'estimate'
p241
S'5155'
p242
sS'metallica'
p243
S'3805'
p244
sS'strats'
p245
S'780'
p246
sS'sm7'
p247
S'5758'
p248
sS'sm5'
p249
S'5759'
p250
sS'rocksmith'
p251
S'3629'
p252
sS'shipped'
p253
S'557'
p254
sS'musicians'
p255
S'1689'
p256
sS'sansamp'
p257
S'3007'
p258
sS'loudness'
p259
S'1405'
p260
sS'speeds'
p261
S'4067'
p262
sS'channels'
p263
S'157'
p264
sS'wash'
p265
S'4914'
p266
sS'spinning'
p267
S'3741'
p268
sS'clarity'
p269
S'2939'
p270
sS'service'
p271
S'1701'
p272
sS'master'
p273
S'2701'
p274
sS'listed'
p275
S'3044'
p276
sS'legs'
p277
S'706'
p278
sS'ranging'
p279
S'3671'
p280
sS'listen'
p281
S'2130'
p282
sS'collapse'
p283
S'4997'
p284
sS'horrible'
p285
S'1725'
p286
sS'positively'
p287
S'2835'
p288
sS'trem'
p289
S'1838'
p290
sS'tree'
p291
S'4953'
p292
sS'project'
p293
S'3866'
p294
sS'feeling'
p295
S'231'
p296
sS'spectrum'
p297
S'3666'
p298
sS'dozen'
p299
S'4627'
p300
sS'releases'
p301
S'1959'
p302
sS'concrete'
p303
S'5575'
p304
sS'responsible'
p305
S'5657'
p306
sS'gripe'
p307
S'2345'
p308
sS'condensers'
p309
S'2385'
p310
sS'metallic'
p311
S'1388'
p312
sS'recommended'
p313
S'898'
p314
sS'causing'
p315
S'4328'
p316
sS'defiantly'
p317
S'3619'
p318
sS'doors'
p319
S'1269'
p320
sS'grips'
p321
S'3540'
p322
sS'thrilled'
p323
S'4341'
p324
sS'huh'
p325
S'2387'
p326
sS'object'
p327
S'3373'
p328
sS'mouth'
p329
S'1555'
p330
sS'letter'
p331
S'4917'
p332
sS'amps'
p333
S'107'
p334
sS'retaining'
p335
S'4290'
p336
sS'macbook'
p337
S'5178'
p338
sS'singer'
p339
S'1551'
p340
sS'schallers'
p341
S'3538'
p342
sS'camp'
p343
S'5334'
p344
sS'tweakable'
p345
S'5136'
p346
sS'tech'
p347
S'1333'
p348
sS'ph-3'
p349
S'5246'
p350
sS'scream'
p351
S'2662'
p352
sS'polypropylene'
p353
S'4774'
p354
sS'bomb'
p355
S'5537'
p356
sS'headstocks'
p357
S'3536'
p358
sS'padded'
p359
S'1202'
p360
sS'gauge'
p361
S'1186'
p362
sS'tempted'
p363
S'3586'
p364
sS'cheaply'
p365
S'1589'
p366
sS'lessons'
p367
S'4752'
p368
sS'touches'
p369
S'4292'
p370
sS'rv600'
p371
S'5398'
p372
sS'layout'
p373
S'1592'
p374
sS'headline'
p375
S'2724'
p376
sS'menu'
p377
S'4486'
p378
sS'bust'
p379
S'3596'
p380
sS'chording'
p381
S'3893'
p382
sS'touched'
p383
S'3895'
p384
sS'rich'
p385
S'863'
p386
sS'plate'
p387
S'1847'
p388
sS'foremost'
p389
S'5401'
p390
sS'pocket'
p391
S'52'
p392
sS'cushion'
p393
S'2727'
p394
sS'altogether'
p395
S'4182'
p396
sS'net'
p397
S'3807'
p398
sS'on-board'
p399
S'5719'
p400
sS'nicely'
p401
S'1365'
p402
sS'patch'
p403
S'1640'
p404
sS'release'
p405
S'2806'
p406
sS'respond'
p407
S'2540'
p408
sS'blew'
p409
S'188'
p410
sS'fair'
p411
S'561'
p412
sS'sensitivity'
p413
S'2629'
p414
sS'unexpectedly'
p415
S'4870'
p416
sS'pads'
p417
S'1880'
p418
sS'radius'
p419
S'4179'
p420
sS'imho'
p421
S'977'
p422
sS'fail'
p423
S'4161'
p424
sS'hammer'
p425
S'3441'
p426
sS'lots'
p427
S'1084'
p428
sS'rings'
p429
S'4721'
p430
sS'score'
p431
S'3947'
p432
sS'preserve'
p433
S'4075'
p434
sS'extend'
p435
S'2236'
p436
sS'nature'
p437
S'2922'
p438
sS'rolled'
p439
S'5414'
p440
sS'tolex'
p441
S'1132'
p442
sS'carbon'
p443
S'3339'
p444
sS'accident'
p445
S'1953'
p446
sS'country'
p447
S'3225'
p448
sS'adapter'
p449
S'677'
p450
sS'planned'
p451
S'4620'
p452
sS'lookin'
p453
S'3093'
p454
sS'logic'
p455
S'4124'
p456
sS'garageband'
p457
S'4985'
p458
sS'argue'
p459
S'2859'
p460
sS'2nd'
p461
S'2785'
p462
sS'matte'
p463
S'3104'
p464
sS'250'
p465
S'3787'
p466
sS'chrome'
p467
S'61'
p468
sS'dots'
p469
S'5174'
p470
sS'life'
p471
S'567'
p472
sS'recomend'
p473
S'1336'
p474
sS'spit'
p475
S'4864'
p476
sS'light-weight'
p477
S'5150'
p478
sS'dave'
p479
S'3488'
p480
sS'lift'
p481
S'1753'
p482
sS'dava'
p483
S'3518'
p484
sS'doubts'
p485
S'1006'
p486
sS'25r'
p487
S'5124'
p488
sS'spin'
p489
S'3662'
p490
sS'gritty'
p491
S'4835'
p492
sS'professionally'
p493
S'2203'
p494
sS'pre-sets'
p495
S'4127'
p496
sS'employ'
p497
S'5330'
p498
sS'bin'
p499
S'5063'
p500
sS'played'
p501
S'487'
p502
sS'player'
p503
S'116'
p504
sS'conditioner'
p505
S'4779'
p506
sS'washburn'
p507
S'823'
p508
sS'trusted'
p509
S'5642'
p510
sS'damaged'
p511
S'1294'
p512
sS'harmony'
p513
S'3419'
p514
sS'babies'
p515
S'2013'
p516
sS'electro'
p517
S'3095'
p518
sS'fairly'
p519
S'938'
p520
sS'effortlessly'
p521
S'4511'
p522
sS'inadvertently'
p523
S'2855'
p524
sS'tops'
p525
S'2281'
p526
sS'tuna'
p527
S'4172'
p528
sS'daddario'
p529
S'4616'
p530
sS'tune'
p531
S'339'
p532
sS'simulates'
p533
S'3810'
p534
sS'acoustics'
p535
S'1071'
p536
sS'simulated'
p537
S'5119'
p538
sS'opinions'
p539
S'2389'
p540
sS'appropriately'
p541
S'2999'
p542
sS'fantastic'
p543
S'1812'
p544
sS'rotates'
p545
S'4587'
p546
sS'previous'
p547
S'1442'
p548
sS'ease'
p549
S'1635'
p550
sS'emphasis'
p551
S'3814'
p552
sS'easy'
p553
S'6'
p554
sS'footswitch'
p555
S'3260'
p556
sS'east'
p557
S'4880'
p558
sS'hat'
p559
S'3209'
p560
sS'keeley'
p561
S'741'
p562
sS'knock'
p563
S'1478'
p564
sS'solid-state'
p565
S'3182'
p566
sS'satriani'
p567
S'1477'
p568
sS'desire'
p569
S'569'
p570
sS'remind'
p571
S'4532'
p572
sS'steps'
p573
S'4423'
p574
sS'crowd'
p575
S'3931'
p576
sS'people'
p577
S'132'
p578
sS'bottom'
p579
S'632'
p580
sS'rehearse'
p581
S'4664'
p582
sS'creative'
p583
S'2232'
p584
sS'fog'
p585
S'4070'
p586
sS'yoke'
p587
S'2913'
p588
sS'losing'
p589
S'3753'
p590
sS'pliers'
p591
S'4228'
p592
sS'manufacturing'
p593
S'3765'
p594
sS'dollars'
p595
S'1331'
p596
sS'miking'
p597
S'5674'
p598
sS'stoked'
p599
S'5177'
p600
sS'lacked'
p601
S'5685'
p602
sS'raised'
p603
S'1661'
p604
sS'marshall'
p605
S'2123'
p606
sS'tube-like'
p607
S'5196'
p608
sS'son'
p609
S'1'
p610
sS'wrap'
p611
S'2955'
p612
sS'reducing'
p613
S'2176'
p614
sS'40-50'
p615
S'5348'
p616
sS'fabric'
p617
S'4827'
p618
sS'support'
p619
S'1947'
p620
sS'constantly'
p621
S'783'
p622
sS'tame'
p623
S'2763'
p624
sS'width'
p625
S'2918'
p626
sS'call'
p627
S'975'
p628
sS'happy'
p629
S'80'
p630
sS'offer'
p631
S'994'
p632
sS'gripes'
p633
S'1746'
p634
sS'd-35'
p635
S'5026'
p636
sS'inside'
p637
S'893'
p638
sS'devices'
p639
S'467'
p640
sS'nicest'
p641
S'1177'
p642
sS'soldering'
p643
S'506'
p644
sS'palm'
p645
S'1267'
p646
sS'duet'
p647
S'4615'
p648
sS'panels'
p649
S'5497'
p650
sS'150'
p651
S'3478'
p652
sS'proved'
p653
S'842'
p654
sS'to800'
p655
S'5374'
p656
sS'proven'
p657
S'3848'
p658
sS'exist'
p659
S'5170'
p660
sS'dealer'
p661
S'604'
p662
sS'xenyx'
p663
S'5738'
p664
sS'floor'
p665
S'1063'
p666
sS'role'
p667
S'2648'
p668
sS'becuase'
p669
S'3987'
p670
sS'smell'
p671
S'1104'
p672
sS'roll'
p673
S'3234'
p674
sS'1-2'
p675
S'4881'
p676
sS'reggae'
p677
S'4357'
p678
sS'intend'
p679
S'34'
p680
sS'15w'
p681
S'4690'
p682
sS'models'
p683
S'197'
p684
sS'ath-m50'
p685
S'4840'
p686
sS'invested'
p687
S'4637'
p688
sS'rolling'
p689
S'408'
p690
sS"'n"
p691
S'3243'
p692
sS'nyxls'
p693
S'4526'
p694
sS'windscreen'
p695
S'693'
p696
sS'fastened'
p697
S'2864'
p698
sS'rockers'
p699
S'5610'
p700
sS'aroland'
p701
S'5817'
p702
sS'time'
p703
S'211'
p704
sS'push'
p705
S'773'
p706
sS'davas'
p707
S'1169'
p708
sS'equalizer'
p709
S'4744'
p710
sS'newbie'
p711
S'4220'
p712
sS'chain'
p713
S'959'
p714
sS'reviewers'
p715
S'1450'
p716
sS'activated'
p717
S'1663'
p718
sS'chair'
p719
S'2526'
p720
sS'uneven'
p721
S'3300'
p722
sS'downloading'
p723
S'4471'
p724
sS'olympus'
p725
S'5598'
p726
sS'choice'
p727
S'419'
p728
sS'stays'
p729
S'1144'
p730
sS'fretting'
p731
S'3298'
p732
sS'exact'
p733
S'2173'
p734
sS'minute'
p735
S'512'
p736
sS'peg'
p737
S'90'
p738
sS'solves'
p739
S'1073'
p740
sS'tear'
p741
S'695'
p742
sS'leave'
p743
S'1228'
p744
sS'solved'
p745
S'515'
p746
sS'settle'
p747
S'3710'
p748
sS'team'
p749
S'2155'
p750
sS'loads'
p751
S'4333'
p752
sS'unaware'
p753
S'1190'
p754
sS'prevent'
p755
S'1148'
p756
sS'trails'
p757
S'5061'
p758
sS'sign'
p759
S'5559'
p760
sS'headset'
p761
S'4839'
p762
sS'axes'
p763
S'4053'
p764
sS'melt'
p765
S'4173'
p766
sS'current'
p767
S'3681'
p768
sS'remembered'
p769
S'1707'
p770
sS'falling'
p771
S'2216'
p772
sS'ground'
p773
S'791'
p774
sS'boost'
p775
S'155'
p776
sS'plucking'
p777
S'2842'
p778
sS'understanding'
p779
S'4284'
p780
sS'address'
p781
S'2364'
p782
sS'accomplishes'
p783
S'5436'
p784
sS'brilliant'
p785
S'2852'
p786
sS'commonly'
p787
S'4847'
p788
sS'accomplished'
p789
S'1918'
p790
sS'tasks'
p791
S'3158'
p792
sS'love'
p793
S'660'
p794
sS'prefer'
p795
S'1041'
p796
sS'logical'
p797
S'3510'
p798
sS'marvelous'
p799
S'3551'
p800
sS'fake'
p801
S'2761'
p802
sS'rosewood'
p803
S'2513'
p804
sS'crammed'
p805
S'5467'
p806
sS'luthier'
p807
S'3116'
p808
sS'positive'
p809
S'102'
p810
sS'tightly'
p811
S'1855'
p812
sS'opposed'
p813
S'798'
p814
sS'wondering'
p815
S'3570'
p816
sS'sunburst'
p817
S'5234'
p818
sS'loving'
p819
S'2616'
p820
sS'scratched'
p821
S'5441'
p822
sS'afford'
p823
S'1384'
p824
sS'apparent'
p825
S'149'
p826
sS'visual'
p827
S'466'
p828
sS'scratches'
p829
S'2533'
p830
sS'easiest'
p831
S'3201'
p832
sS'originally'
p833
S'1191'
p834
sS'believer'
p835
S'463'
p836
sS'soloing'
p837
S'3231'
p838
sS'zippers'
p839
S'3276'
p840
sS'tri-action'
p841
S'4454'
p842
sS'awesome'
p843
S'322'
p844
sS'locks'
p845
S'1207'
p846
sS'hides'
p847
S'1076'
p848
sS'echos'
p849
S'4610'
p850
sS'235'
p851
S'5788'
p852
sS'monitoring'
p853
S'2330'
p854
sS'winter'
p855
S'3166'
p856
sS's1'
p857
S'4243'
p858
sS's6'
p859
S'5338'
p860
sS'toneprint'
p861
S'1785'
p862
sS'optimal'
p863
S'3792'
p864
sS'snaps'
p865
S'1377'
p866
sS'rigors'
p867
S'819'
p868
sS'blasting'
p869
S'2903'
p870
sS'spot'
p871
S'1914'
p872
sS'applications'
p873
S'3458'
p874
sS'improving'
p875
S'2397'
p876
sS'suck'
p877
S'3504'
p878
sS'data'
p879
S'4478'
p880
sS'shockingly'
p881
S'2810'
p882
sS'supersonic'
p883
S'5382'
p884
sS'stress'
p885
S'597'
p886
sS'sx'
p887
S'5195'
p888
sS'natural'
p889
S'417'
p890
sS'ss'
p891
S'5373'
p892
sS'puller'
p893
S'1873'
p894
sS'sp'
p895
S'3037'
p896
sS'truck'
p897
S'3438'
p898
sS'sn'
p899
S'5782'
p900
sS'sm'
p901
S'4970'
p902
sS'pulled'
p903
S'1090'
p904
sS'se'
p905
S'980'
p906
sS'sd'
p907
S'2881'
p908
sS'88-key'
p909
S'3856'
p910
sS'feature'
p911
S'216'
p912
sS'aquila'
p913
S'3899'
p914
sS'tendency'
p915
S'3135'
p916
sS'jig'
p917
S'5599'
p918
sS'avid'
p919
S'2225'
p920
sS'disconnect'
p921
S'3323'
p922
sS'thumb'
p923
S'1263'
p924
sS'jim'
p925
S'2157'
p926
sS'sixties'
p927
S'3190'
p928
sS'playback'
p929
S'2354'
p930
sS'decades'
p931
S'2455'
p932
sS'no-brainer'
p933
S'3539'
p934
sS'instantly'
p935
S'488'
p936
sS'matches'
p937
S'1204'
p938
sS'chromatic'
p939
S'4256'
p940
sS'records'
p941
S'2288'
p942
sS'drilling'
p943
S'86'
p944
sS'maintaining'
p945
S'3383'
p946
sS'matched'
p947
S'2614'
p948
sS'reverb'
p949
S'1783'
p950
sS'quarter'
p951
S'991'
p952
sS'repaired'
p953
S'4214'
p954
sS'turtle'
p955
S'4792'
p956
sS'square'
p957
S'5164'
p958
sS'canvas'
p959
S'1321'
p960
sS'container'
p961
S'4708'
p962
sS'transistor'
p963
S'2359'
p964
sS'contained'
p965
S'2958'
p966
sS'internet'
p967
S'1120'
p968
sS'formula'
p969
S'5077'
p970
sS'lubricating'
p971
S'4330'
p972
sS'presets'
p973
S'1787'
p974
sS'possibility'
p975
S'4160'
p976
sS'recordings'
p977
S'1098'
p978
sS'complicated'
p979
S'3829'
p980
sS'emulation'
p981
S'1396'
p982
sS'pyle'
p983
S'1545'
p984
sS'training'
p985
S'2391'
p986
sS'workmanship'
p987
S'1858'
p988
sS'backside'
p989
S'5302'
p990
sS'dunno'
p991
S'2578'
p992
sS'punk'
p993
S'5240'
p994
sS'downsides'
p995
S'1851'
p996
sS'routed'
p997
S'3295'
p998
sS'quibble'
p999
S'5284'
p1000
sS'single-coil'
p1001
S'3682'
p1002
sS'bassy'
p1003
S'3975'
p1004
sS'saving'
p1005
S'3335'
p1006
sS'spoken'
p1007
S'3045'
p1008
sS'spanish'
p1009
S'4494'
p1010
sS'ons'
p1011
S'3294'
p1012
sS'custom'
p1013
S'1428'
p1014
sS'city'
p1015
S'3832'
p1016
sS'uku'
p1017
S'3608'
p1018
sS'teacher'
p1019
S'3196'
p1020
sS'2'
p1021
S'181'
p1022
sS'uke'
p1023
S'2561'
p1024
sS'bits'
p1025
S'4829'
p1026
sS'stompbox'
p1027
S'2075'
p1028
sS'ableton'
p1029
S'3442'
p1030
sS'padding'
p1031
S'386'
p1032
sS'ridiculous'
p1033
S'1606'
p1034
sS'fooled'
p1035
S'3785'
p1036
sS'bored'
p1037
S'4904'
p1038
sS'x3live'
p1039
S'4125'
p1040
sS'so-so'
p1041
S'5566'
p1042
sS'coats'
p1043
S'5481'
p1044
sS'future'
p1045
S'37'
p1046
sS'glossy'
p1047
S'4678'
p1048
sS'drywall'
p1049
S'1009'
p1050
sS'nicer'
p1051
S'20'
p1052
sS'sag'
p1053
S'5158'
p1054
sS'locations'
p1055
S'3690'
p1056
sS'sad'
p1057
S'1393'
p1058
sS'tastes'
p1059
S'1610'
p1060
sS'sax'
p1061
S'5487'
p1062
sS'allen'
p1063
S'1444'
p1064
sS'sat'
p1065
S'3187'
p1066
sS'note'
p1067
S'486'
p1068
sS'altered'
p1069
S'4419'
p1070
sS'opposite'
p1071
S'2368'
p1072
sS'buffer'
p1073
S'3658'
p1074
sS'compress'
p1075
S'4195'
p1076
sS'printed'
p1077
S'5068'
p1078
sS'knee'
p1079
S'3526'
p1080
sS'inserted'
p1081
S'2880'
p1082
sS'buffed'
p1083
S'4606'
p1084
sS'average'
p1085
S'1400'
p1086
sS'drive'
p1087
S'1235'
p1088
sS'axe'
p1089
S'1816'
p1090
sS'axl'
p1091
S'5082'
p1092
sS'walking'
p1093
S'5141'
p1094
sS'us600'
p1095
S'3412'
p1096
sS'friction'
p1097
S'440'
p1098
sS'bright'
p1099
S'952'
p1100
sS'aggressive'
p1101
S'3075'
p1102
sS'imagined'
p1103
S'2757'
p1104
sS'slot'
p1105
S'2744'
p1106
sS'slow'
p1107
S'2445'
p1108
sS'punchy'
p1109
S'1219'
p1110
sS'recomended'
p1111
S'3094'
p1112
sS'equipped'
p1113
S'2850'
p1114
sS'beatles'
p1115
S'2007'
p1116
sS'c-1u'
p1117
S'5807'
p1118
sS'tilting'
p1119
S'4955'
p1120
sS'outlet'
p1121
S'3369'
p1122
sS'laguna'
p1123
S'5342'
p1124
sS'originals'
p1125
S'2449'
p1126
sS'prime'
p1127
S'640'
p1128
sS'artist'
p1129
S'2492'
p1130
sS'hinges'
p1131
S'4219'
p1132
sS'worried'
p1133
S'2100'
p1134
sS'fenders'
p1135
S'3346'
p1136
sS'stratocaster'
p1137
S'1151'
p1138
sS'worries'
p1139
S'3365'
p1140
sS'banged'
p1141
S'2568'
p1142
sS'impressions'
p1143
S'3808'
p1144
sS'surgery'
p1145
S'1055'
p1146
sS'clips'
p1147
S'1299'
p1148
sS'sound-hole'
p1149
S'5106'
p1150
sS'jumped'
p1151
S'3847'
p1152
sS'sites'
p1153
S'4293'
p1154
sS'cs400'
p1155
S'5210'
p1156
sS'uninstalled'
p1157
S'4421'
p1158
sS'jobs'
p1159
S'5179'
p1160
sS'vertical'
p1161
S'2912'
p1162
sS'screen'
p1163
S'1411'
p1164
sS'clayton'
p1165
S'4609'
p1166
sS'concentrate'
p1167
S'5015'
p1168
sS'spare'
p1169
S'2551'
p1170
sS'fretboard'
p1171
S'833'
p1172
sS'loudly'
p1173
S'2259'
p1174
sS'expression'
p1175
S'1881'
p1176
sS'twin'
p1177
S'2027'
p1178
sS'boat'
p1179
S'4865'
p1180
sS'stretch'
p1181
S'1964'
p1182
sS'mounting'
p1183
S'1117'
p1184
sS'locally'
p1185
S'4961'
p1186
sS'breath'
p1187
S'1516'
p1188
sS'combined'
p1189
S'3788'
p1190
sS'enable'
p1191
S'5357'
p1192
sS'sturdily'
p1193
S'3439'
p1194
sS'readings'
p1195
S'4922'
p1196
sS'photos'
p1197
S'3139'
p1198
sS'tightened'
p1199
S'2198'
p1200
sS'zippered'
p1201
S'2509'
p1202
sS'true-bypass'
p1203
S'4856'
p1204
sS'situation'
p1205
S'888'
p1206
sS'ive'
p1207
S'2017'
p1208
sS'engaged'
p1209
S'1957'
p1210
sS'reliefs'
p1211
S'5609'
p1212
sS'pinky'
p1213
S'3937'
p1214
sS'ambient'
p1215
S'957'
p1216
sS'technology'
p1217
S'2266'
p1218
sS'verified'
p1219
S'3010'
p1220
sS'wiring'
p1221
S'2797'
p1222
sS'visually'
p1223
S'4298'
p1224
sS'wires'
p1225
S'368'
p1226
sS'boosted'
p1227
S'5340'
p1228
sS'cheers'
p1229
S'1767'
p1230
sS'bulletproof'
p1231
S'5265'
p1232
sS'edges'
p1233
S'2269'
p1234
sS'wired'
p1235
S'4666'
p1236
sS'hummingbird'
p1237
S'5163'
p1238
sS'tracking'
p1239
S'2646'
p1240
sS'customized'
p1241
S'5693'
p1242
sS'costs'
p1243
S'1122'
p1244
sS'dimension'
p1245
S'5797'
p1246
sS'summer'
p1247
S'302'
p1248
sS'sprayed'
p1249
S'3919'
p1250
sS'212'
p1251
S'4742'
p1252
sS'rest'
p1253
S'835'
p1254
sS'outboard'
p1255
S'4135'
p1256
sS'plugged'
p1257
S'369'
p1258
sS'weekly'
p1259
S'4114'
p1260
sS'hofner'
p1261
S'5353'
p1262
sS'mandolin'
p1263
S'468'
p1264
sS'instrument'
p1265
S'610'
p1266
sS'aspects'
p1267
S'1347'
p1268
sS'dark'
p1269
S'953'
p1270
sS'snark'
p1271
S'1072'
p1272
sS'pop'
p1273
S'305'
p1274
sS'vacuum'
p1275
S'3657'
p1276
sS'breakage'
p1277
S'1569'
p1278
sS'60'
p1279
S'618'
p1280
sS'modtone'
p1281
S'4689'
p1282
sS'62'
p1283
S'2708'
p1284
sS'preference'
p1285
S'2103'
p1286
sS'stationary'
p1287
S'4599'
p1288
sS'satisfactory'
p1289
S'4331'
p1290
sS'existing'
p1291
S'3791'
p1292
sS'piezo'
p1293
S'3828'
p1294
sS'dimensions'
p1295
S'2251'
p1296
sS'tote'
p1297
S'5631'
p1298
sS'cavity'
p1299
S'3759'
p1300
sS'noon'
p1301
S'2721'
p1302
sS'digitech'
p1303
S'3236'
p1304
sS'power'
p1305
S'886'
p1306
sS'retains'
p1307
S'5128'
p1308
sS'sprung'
p1309
S'4629'
p1310
sS'ratios'
p1311
S'5618'
p1312
sS'standpoint'
p1313
S'2554'
p1314
sS'stone'
p1315
S'4585'
p1316
sS'package'
p1317
S'1658'
p1318
sS'industry'
p1319
S'2464'
p1320
sS'favorite'
p1321
S'1201'
p1322
sS'fraying'
p1323
S'589'
p1324
sS'image'
p1325
S'2585'
p1326
sS'lively'
p1327
S'3083'
p1328
sS'parties'
p1329
S'5167'
p1330
sS'pivot'
p1331
S'438'
p1332
sS'technically'
p1333
S'1370'
p1334
sS'hex'
p1335
S'2249'
p1336
sS'hey'
p1337
S'1182'
p1338
sS'sealed'
p1339
S'3756'
p1340
sS'recommends'
p1341
S'4282'
p1342
sS'complete'
p1343
S'904'
p1344
sS'mics'
p1345
S'698'
p1346
sS'beginners'
p1347
S'11'
p1348
sS'survived'
p1349
S'2642'
p1350
sS'clones'
p1351
S'3801'
p1352
sS'impedance'
p1353
S'5749'
p1354
sS'buying'
p1355
S'538'
p1356
sS'handsome'
p1357
S'394'
p1358
sS'abused'
p1359
S'3415'
p1360
sS'pull'
p1361
S'2695'
p1362
sS'rush'
p1363
S'996'
p1364
sS'rage'
p1365
S'5556'
p1366
sS'dirty'
p1367
S'314'
p1368
sS'agree'
p1369
S'201'
p1370
sS'rust'
p1371
S'3280'
p1372
sS'darker'
p1373
S'2489'
p1374
sS'detailed'
p1375
S'4433'
p1376
sS'ohm'
p1377
S'4739'
p1378
sS'ac'
p1379
S'1473'
p1380
sS'ad'
p1381
S'2542'
p1382
sS'johnny'
p1383
S'5393'
p1384
sS'ai'
p1385
S'5104'
p1386
sS'laminated'
p1387
S'4719'
p1388
sS'ax'
p1389
S'4821'
p1390
sS'cream'
p1391
S'4826'
p1392
sS'novice'
p1393
S'661'
p1394
sS'tight'
p1395
S'682'
p1396
sS'puppy'
p1397
S'4765'
p1398
sS'spectraflex'
p1399
S'5258'
p1400
sS'a+'
p1401
S'2138'
p1402
sS'dented'
p1403
S'2003'
p1404
sS'gifts'
p1405
S'5049'
p1406
sS'tricky'
p1407
S'2824'
p1408
sS'tricks'
p1409
S'4307'
p1410
sS'mass'
p1411
S'3870'
p1412
sS'original'
p1413
S'323'
p1414
sS'caused'
p1415
S'2846'
p1416
sS'beware'
p1417
S'4323'
p1418
sS'ceramic'
p1419
S'5375'
p1420
sS'fairness'
p1421
S'4029'
p1422
sS'tv'
p1423
S'2291'
p1424
sS'tail'
p1425
S'1841'
p1426
sS'alvarez'
p1427
S'4337'
p1428
sS'smile'
p1429
S'5708'
p1430
sS'aquilas'
p1431
S'4104'
p1432
sS'peavey'
p1433
S'2131'
p1434
sS'tc'
p1435
S'1784'
p1436
sS'ta'
p1437
S'621'
p1438
sS'returned'
p1439
S'2663'
p1440
sS'manageable'
p1441
S'4529'
p1442
sS'condition'
p1443
S'3354'
p1444
sS'diatonic'
p1445
S'4425'
p1446
sS'hooking'
p1447
S'2977'
p1448
sS'sans'
p1449
S'5567'
p1450
sS'cable'
p1451
S'173'
p1452
sS'accompanying'
p1453
S'3386'
p1454
sS'laying'
p1455
S'2308'
p1456
sS'sand'
p1457
S'3180'
p1458
sS'adjust'
p1459
S'442'
p1460
sS'quicker'
p1461
S'1165'
p1462
sS'displays'
p1463
S'3511'
p1464
sS'pass'
p1465
S'1519'
p1466
sS'investment'
p1467
S'575'
p1468
sS'sennheiser'
p1469
S'1443'
p1470
sS'clock'
p1471
S'5383'
p1472
sS'method'
p1473
S'3648'
p1474
sS'contrast'
p1475
S'2206'
p1476
sS'replaceable'
p1477
S'5675'
p1478
sS'wuhan'
p1479
S'3944'
p1480
sS'buzzing'
p1481
S'3733'
p1482
sS'welded'
p1483
S'2729'
p1484
sS'experience'
p1485
S'547'
p1486
sS'pics'
p1487
S'758'
p1488
sS'prior'
p1489
S'1856'
p1490
sS'pick'
p1491
S'203'
p1492
sS'action'
p1493
S'1612'
p1494
sS'vic'
p1495
S'3650'
p1496
sS'12-string'
p1497
S'1862'
p1498
sS'indoors'
p1499
S'4466'
p1500
sS'full-sized'
p1501
S'3663'
p1502
sS'pulls'
p1503
S'4706'
p1504
sS'select'
p1505
S'2875'
p1506
sS'jf-01'
p1507
S'3799'
p1508
sS'jf-02'
p1509
S'2086'
p1510
sS'jf-03'
p1511
S'4812'
p1512
sS'pearl'
p1513
S'63'
p1514
sg554
S'44'
p1515
sS'firth'
p1516
S'3651'
p1517
sS'resonator'
p1518
S'4370'
p1519
sS'teen'
p1520
S'5626'
p1521
sS'door'
p1522
S'3990'
p1523
sS'tester'
p1524
S'3382'
p1525
sS'company'
p1526
S'3431'
p1527
sS'corrected'
p1528
S'1527'
p1529
sS'tested'
p1530
S'1410'
p1531
sS'sizing'
p1532
S'3769'
p1533
sS'keeping'
p1534
S'453'
p1535
sS'science'
p1536
S'5703'
p1537
sS'delrin'
p1538
S'4584'
p1539
sS'thickest'
p1540
S'2573'
p1541
sS'indicating'
p1542
S'1795'
p1543
sS'learn'
p1544
S'1905'
p1545
sS'knocked'
p1546
S'460'
p1547
sS'seagull'
p1548
S'2521'
p1549
sS'male'
p1550
S'2376'
p1551
sS'beautiful'
p1552
S'1728'
p1553
sS'prompt'
p1554
S'518'
p1555
sS'stated'
p1556
S'1157'
p1557
sS'suggestions'
p1558
S'2992'
p1559
sS'accept'
p1560
S'4687'
p1561
sS'sense'
p1562
S'259'
p1563
sS'disliked'
p1564
S'5597'
p1565
sS'axis'
p1566
S'2467'
p1567
sS'huge'
p1568
S'194'
p1569
sS'enlarge'
p1570
S'2997'
p1571
sS'elixer'
p1572
S'4261'
p1573
sS'plans'
p1574
S'2416'
p1575
sS'jumping'
p1576
S'4094'
p1577
sS'waves'
p1578
S'329'
p1579
sS'authentic'
p1580
S'3005'
p1581
sS'flutter'
p1582
S'3420'
p1583
sS'refuse'
p1584
S'5421'
p1585
sS'm68'
p1586
S'5635'
p1587
sS'twisting'
p1588
S'1404'
p1589
sS'broadcasting'
p1590
S'5389'
p1591
sS'wrench'
p1592
S'3157'
p1593
sS'fender'
p1594
S'66'
p1595
sS'passages'
p1596
S'4757'
p1597
sS'mexican'
p1598
S'4299'
p1599
sS'installed'
p1600
S'978'
p1601
sS'attitude'
p1602
S'4093'
p1603
sS'paper'
p1604
S'1250'
p1605
sS'signs'
p1606
S'4932'
p1607
sS'bummed'
p1608
S'5595'
p1609
sS'licks'
p1610
S'2712'
p1611
sS'rapidly'
p1612
S'377'
p1613
sS'ruining'
p1614
S'2749'
p1615
sS'bummer'
p1616
S'4344'
p1617
sS'nifty'
p1618
S'3923'
p1619
sS'travelling'
p1620
S'1968'
p1621
sS'snobs'
p1622
S'3977'
p1623
sS'it-'
p1624
S'4343'
p1625
sS'entire'
p1626
S'1103'
p1627
sS'sucker'
p1628
S'5050'
p1629
sS'gadget'
p1630
S'431'
p1631
sS'slight'
p1632
S'781'
p1633
sS'snowball'
p1634
S'4814'
p1635
sS'sucked'
p1636
S'4167'
p1637
sS'shopped'
p1638
S'3953'
p1639
sS'everytime'
p1640
S'5519'
p1641
sS'floors'
p1642
S'2301'
p1643
sS'bends'
p1644
S'1839'
p1645
sS'reduce'
p1646
S'2171'
p1647
sS'operation'
p1648
S'3535'
p1649
sS'silky'
p1650
S'2954'
p1651
sS'missed'
p1652
S'3299'
p1653
sS'ernie'
p1654
S'1065'
p1655
sS'soundhole'
p1656
S'3739'
p1657
sS'hangers'
p1658
S'3562'
p1659
sS'occurs'
p1660
S'1547'
p1661
sS'imagine'
p1662
S'504'
p1663
sS'definition'
p1664
S'4235'
p1665
sS'pairs'
p1666
S'3655'
p1667
sS'ampeg'
p1668
S'1385'
p1669
sS'multi-pattern'
p1670
S'5650'
p1671
sS'positioning'
p1672
S'2340'
p1673
sS'retainer'
p1674
S'2242'
p1675
sS'abalone'
p1676
S'5462'
p1677
sS'major'
p1678
S'3268'
p1679
sS'slipped'
p1680
S'5186'
p1681
sS'unusable'
p1682
S'2673'
p1683
sS'humidifiers'
p1684
S'2148'
p1685
sS'guess'
p1686
S'1091'
p1687
sS'fuller'
p1688
S'951'
p1689
sS'leverage'
p1690
S'3524'
p1691
sS'jet'
p1692
S'4761'
p1693
sS'cradles'
p1694
S'4025'
p1695
sS'moderately'
p1696
S'1931'
p1697
sS'flimsy'
p1698
S'934'
p1699
sS'relationship'
p1700
S'4355'
p1701
sS'pr-40'
p1702
S'5760'
p1703
sS'stairs'
p1704
S'1457'
p1705
sS'grace'
p1706
S'4771'
p1707
sS'aaa'
p1708
S'2282'
p1709
sS'vocal'
p1710
S'318'
p1711
sS'ohms'
p1712
S'5772'
p1713
sS'determined'
p1714
S'4671'
p1715
sS'playability'
p1716
S'2222'
p1717
sS'basically'
p1718
S'713'
p1719
sS'defect'
p1720
S'2905'
p1721
sS'micro-fiber'
p1722
S'5702'
p1723
sS'sell'
p1724
S'880'
p1725
sS'tarnish'
p1726
S'5771'
p1727
sS'odd'
p1728
S'1296'
p1729
sS'internal'
p1730
S'473'
p1731
sS'knobs'
p1732
S'784'
p1733
sS'brace'
p1734
S'2274'
p1735
sS'play'
p1736
S'41'
p1737
sS'unused'
p1738
S'5554'
p1739
sS'plan'
p1740
S'1765'
p1741
sS'pliable'
p1742
S'3858'
p1743
sS'fullbore'
p1744
S'5318'
p1745
sS'exl'
p1746
S'3894'
p1747
sS'cover'
p1748
S'749'
p1749
sS'ext'
p1750
S'5611'
p1751
sS'exp'
p1752
S'4459'
p1753
sS'gold'
p1754
S'574'
p1755
sS'session'
p1756
S'1280'
p1757
sS'impact'
p1758
S'3414'
p1759
sS'indicator'
p1760
S'2839'
p1761
sS'dd-3'
p1762
S'5731'
p1763
sS'dd-7'
p1764
S'3404'
p1765
sS'failed'
p1766
S'2556'
p1767
sS'cassette'
p1768
S'2793'
p1769
sS'removable'
p1770
S'2980'
p1771
sS'factor'
p1772
S'2166'
p1773
sS'dependent'
p1774
S'4773'
p1775
sS'beams'
p1776
S'3195'
p1777
sS'closely'
p1778
S'2096'
p1779
sS'untreated'
p1780
S'1810'
p1781
sS'overdrive/distortion'
p1782
S'4686'
p1783
sS'sleeve'
p1784
S'2346'
p1785
sS'cry'
p1786
S'3563'
p1787
sS'river'
p1788
S'5014'
p1789
sS'bulky'
p1790
S'976'
p1791
sS'set'
p1792
S'28'
p1793
sS'ac15c1'
p1794
S'5127'
p1795
sS'creator'
p1796
S'4151'
p1797
sS'analog'
p1798
S'2167'
p1799
sS'baritone'
p1800
S'3628'
p1801
sS'muted'
p1802
S'3181'
p1803
sS'movie'
p1804
S'5547'
p1805
sS'pickup'
p1806
S'1890'
p1807
sS'nope'
p1808
S'5447'
p1809
sS'compliment'
p1810
S'3331'
p1811
sS'mutes'
p1812
S'1671'
p1813
sS'knowing'
p1814
S'2945'
p1815
sS'interface'
p1816
S'613'
p1817
sS'improved'
p1818
S'277'
p1819
sS'harps'
p1820
S'3934'
p1821
sS'barely'
p1822
S'923'
p1823
sS'connection'
p1824
S'598'
p1825
sS'les'
p1826
S'592'
p1827
sS'long-term'
p1828
S'3493'
p1829
sS'pdf'
p1830
S'5492'
p1831
sS'load'
p1832
S'4809'
p1833
sS'bell'
p1834
S'5042'
p1835
sS'smashing'
p1836
S'2734'
p1837
sS'community'
p1838
S'2463'
p1839
sS'hollow'
p1840
S'3823'
p1841
sS'church'
p1842
S'2809'
p1843
sS'desktop'
p1844
S'1474'
p1845
sS'protools'
p1846
S'5704'
p1847
sS'belt'
p1848
S'1479'
p1849
sS'worthless'
p1850
S'2422'
p1851
sS'hitting'
p1852
S'1913'
p1853
sS'synth'
p1854
S'4510'
p1855
sS'firm'
p1856
S'1733'
p1857
sS'resting'
p1858
S'1950'
p1859
sS'champion'
p1860
S'3359'
p1861
sS'fire'
p1862
S'4978'
p1863
sS'engage'
p1864
S'1823'
p1865
sS'sleeves'
p1866
S'3547'
p1867
sS'adjustability'
p1868
S'1977'
p1869
sS'funk'
p1870
S'3853'
p1871
sS'tweaked'
p1872
S'3679'
p1873
sS'handling'
p1874
S'4624'
p1875
sS'reliable'
p1876
S'1808'
p1877
sS'budget'
p1878
S'540'
p1879
sS'forgetting'
p1880
S'220'
p1881
sS'pressed'
p1882
S'3936'
p1883
sS'reliably'
p1884
S'3411'
p1885
sS'leaning'
p1886
S'2270'
p1887
sS'hardshell'
p1888
S'3610'
p1889
sS'real'
p1890
S'1375'
p1891
sS'pound'
p1892
S'5470'
p1893
sS'hoping'
p1894
S'647'
p1895
sS'binding'
p1896
S'3145'
p1897
sS'motu'
p1898
S'5508'
p1899
sS'triple'
p1900
S'1643'
p1901
sS'beautifully'
p1902
S'462'
p1903
sS'vox'
p1904
S'1212'
p1905
sS'funny'
p1906
S'3833'
p1907
sS'mins'
p1908
S'1345'
p1909
sS'shorted'
p1910
S'3360'
p1911
sS'fibers'
p1912
S'4374'
p1913
sS'shorter'
p1914
S'697'
p1915
sS'rules'
p1916
S'4156'
p1917
sS'virtually'
p1918
S'3721'
p1919
sS'yeti'
p1920
S'4378'
p1921
sS'cigar'
p1922
S'5669'
p1923
sS'makala'
p1924
S'5587'
p1925
sS'viewing'
p1926
S'480'
p1927
sS'levels'
p1928
S'1504'
p1929
sS'stack'
p1930
S'1244'
p1931
sS'picky'
p1932
S'2764'
p1933
sS'picks'
p1934
S'371'
p1935
sS'person'
p1936
S'1341'
p1937
sS'strobe'
p1938
S'1673'
p1939
sS'clearance'
p1940
S'2080'
p1941
sS'detract'
p1942
S'5690'
p1943
sS'hercules'
p1944
S'1945'
p1945
sS'crackles'
p1946
S'5345'
p1947
sS'surprises'
p1948
S'2164'
p1949
sS'chest'
p1950
S'5736'
p1951
sS'signals'
p1952
S'5346'
p1953
sS'snappy'
p1954
S'1285'
p1955
sS'location'
p1956
S'1593'
p1957
sS'input'
p1958
S'510'
p1959
sS'surprised'
p1960
S'883'
p1961
sS'shove'
p1962
S'4909'
p1963
sS'emergency'
p1964
S'5193'
p1965
sS'format'
p1966
S'2876'
p1967
sS'couple'
p1968
S'233'
p1969
sS'tweaks'
p1970
S'3897'
p1971
sS'quest'
p1972
S'3716'
p1973
sS'takamine'
p1974
S'1861'
p1975
sS'projects'
p1976
S'2302'
p1977
sS'chorus'
p1978
S'1357'
p1979
sS'continue'
p1980
S'35'
p1981
sS'stylish'
p1982
S'5510'
p1983
sS'spins'
p1984
S'2262'
p1985
sS'clipping'
p1986
S'2174'
p1987
sS'buddies'
p1988
S'3060'
p1989
sS'sheraton'
p1990
S'5172'
p1991
sS'spring'
p1992
S'2821'
p1993
sS'bounce'
p1994
S'2909'
p1995
sS'mighty'
p1996
S'1702'
p1997
sS'sight'
p1998
S'4369'
p1999
sS'curious'
p2000
S'644'
p2001
sS'momentary'
p2002
S'5449'
p2003
sS'and/or'
p2004
S'1915'
p2005
sS'measurements'
p2006
S'3634'
p2007
sS'novelty'
p2008
S'1786'
p2009
sS'behave'
p2010
S'4984'
p2011
sS'inserting'
p2012
S'4655'
p2013
sS'bb'
p2014
S'3333'
p2015
sS'bc'
p2016
S'5716'
p2017
sS'odor'
p2018
S'5183'
p2019
sS'bs'
p2020
S'5261'
p2021
sS'cranked'
p2022
S'2039'
p2023
sS'exaggerated'
p2024
S'3494'
p2025
sS'well-built'
p2026
S'5118'
p2027
sS'deserves'
p2028
S'3884'
p2029
sS'repair'
p2030
S'2431'
p2031
sS'garbage'
p2032
S'3014'
p2033
sS'no-name'
p2034
S'3709'
p2035
sS'span'
p2036
S'3689'
p2037
sS'spending'
p2038
S'1930'
p2039
sS'u2'
p2040
S'2807'
p2041
sS'downloadable'
p2042
S'1790'
p2043
sS'suit'
p2044
S'3576'
p2045
sS'considerably'
p2046
S'1863'
p2047
sS'jacks'
p2048
S'511'
p2049
sS'inches'
p2050
S'1161'
p2051
sS'lint'
p2052
S'4873'
p2053
sS'buttery'
p2054
S'2827'
p2055
sS'link'
p2056
S'686'
p2057
sS'considerable'
p2058
S'2726'
p2059
sS'posted'
p2060
S'3635'
p2061
sS'fades'
p2062
S'4223'
p2063
sS'ur'
p2064
S'4776'
p2065
sS'paired'
p2066
S'4268'
p2067
sS'uh'
p2068
S'2386'
p2069
sS'faded'
p2070
S'5439'
p2071
sS'storing'
p2072
S'4513'
p2073
sS'defined'
p2074
S'3922'
p2075
sS'influence'
p2076
S'3272'
p2077
sS'diverse'
p2078
S'3730'
p2079
sS'full-size'
p2080
S'1011'
p2081
sS'phantom'
p2082
S'2192'
p2083
sS'6-string'
p2084
S'1675'
p2085
sS'fixing'
p2086
S'3918'
p2087
sS'occasional'
p2088
S'2920'
p2089
sS'coded'
p2090
S'670'
p2091
sS'jcm'
p2092
S'5550'
p2093
sS'elements'
p2094
S'3484'
p2095
sS'sided'
p2096
S'3218'
p2097
sS'long-lasting'
p2098
S'4144'
p2099
sS'cranking'
p2100
S'4745'
p2101
sS'ago'
p2102
S'966'
p2103
sS'age'
p2104
S'1121'
p2105
sS'holes'
p2106
S'87'
p2107
sS'fresh'
p2108
S'3151'
p2109
sS'receive'
p2110
S'528'
p2111
sS'code'
p2112
S'5303'
p2113
sS'partial'
p2114
S'2931'
p2115
sS'scooped'
p2116
S'3806'
p2117
sS'scratch'
p2118
S'3270'
p2119
sS'cobalt'
p2120
S'4399'
p2121
sS'enjoyable'
p2122
S'1628'
p2123
sS'toggle'
p2124
S'3203'
p2125
sS'softer'
p2126
S'2214'
p2127
sS'broader'
p2128
S'5730'
p2129
sS'flashback'
p2130
S'5506'
p2131
sS'cheapy'
p2132
S'1984'
p2133
sS'concerned'
p2134
S'1293'
p2135
sS'send'
p2136
S'739'
p2137
sS'cheapo'
p2138
S'3641'
p2139
sS'switchcraft'
p2140
S'1848'
p2141
sS'dislike'
p2142
S'1961'
p2143
sS'scarlett'
p2144
S'2326'
p2145
sS'uploaded'
p2146
S'2678'
p2147
sS'h4n'
p2148
S'5735'
p2149
sS'continues'
p2150
S'2820'
p2151
sS'mixing'
p2152
S'3049'
p2153
sS'continued'
p2154
S'4583'
p2155
sS'wipe'
p2156
S'309'
p2157
sS'timely'
p2158
S'1603'
p2159
sS'magic'
p2160
S'4635'
p2161
sS'transmission'
p2162
S'3401'
p2163
sS'experiencing'
p2164
S'5192'
p2165
sS'fewer'
p2166
S'1114'
p2167
sS'trs'
p2168
S'4782'
p2169
sS'rack'
p2170
S'1597'
p2171
sS'rickenbacker'
p2172
S'4715'
p2173
sS'video'
p2174
S'503'
p2175
sS'dynamics'
p2176
S'2940'
p2177
sS'spaghetti'
p2178
S'4813'
p2179
sS'sweaty'
p2180
S'308'
p2181
sS'consistently'
p2182
S'2058'
p2183
sS'led'
p2184
S'840'
p2185
sS'lee'
p2186
S'5181'
p2187
sS'leg'
p2188
S'836'
p2189
sS'punch'
p2190
S'3252'
p2191
sS'delivering'
p2192
S'2018'
p2193
sS'busy'
p2194
S'2596'
p2195
sS'octave'
p2196
S'1324'
p2197
sS'consideration'
p2198
S'3885'
p2199
sS'invented'
p2200
S'2448'
p2201
sS'fifteen'
p2202
S'2006'
p2203
sS'casing'
p2204
S'5037'
p2205
sS'cts'
p2206
S'4350'
p2207
sS'technical'
p2208
S'4073'
p2209
sS'involved'
p2210
S'2434'
p2211
sS'opinion'
p2212
S'1413'
p2213
sS'maker'
p2214
S'3022'
p2215
sS'buffered'
p2216
S'5501'
p2217
sS'335'
p2218
S'5171'
p2219
sS'boxy'
p2220
S'5064'
p2221
sS'tools'
p2222
S'1994'
p2223
sS'standing'
p2224
S'1749'
p2225
sS'confidence'
p2226
S'2697'
p2227
sS'zip'
p2228
S'2312'
p2229
sS'lube'
p2230
S'5717'
p2231
sS'doubt'
p2232
S'1575'
p2233
sS'telecasters'
p2234
S'5066'
p2235
sS'unplug'
p2236
S'2459'
p2237
sS'carrying'
p2238
S'58'
p2239
sS'baby'
p2240
S'1819'
p2241
sS'gladly'
p2242
S'2101'
p2243
sS'flawless'
p2244
S'3680'
p2245
sS'customer'
p2246
S'566'
p2247
sS'balls'
p2248
S'3375'
p2249
sS'practicing'
p2250
S'354'
p2251
sS'portability'
p2252
S'459'
p2253
sS'challenge'
p2254
S'4483'
p2255
sS'reproduce'
p2256
S'2426'
p2257
sS'rubberized'
p2258
S'635'
p2259
sS'thin'
p2260
S'1164'
p2261
sS'drill'
p2262
S'2685'
p2263
sS'slid'
p2264
S'2983'
p2265
sS'weaker'
p2266
S'5682'
p2267
sS'gt-10'
p2268
S'5794'
p2269
sS'bent'
p2270
S'364'
p2271
sS'pawn'
p2272
S'3737'
p2273
sS'process'
p2274
S'1821'
p2275
sS'lock'
p2276
S'591'
p2277
sS'slim'
p2278
S'2848'
p2279
sS'rode'
p2280
S'681'
p2281
sS'purposes'
p2282
S'258'
p2283
sS'pieces'
p2284
S'536'
p2285
sS'bones'
p2286
S'1770'
p2287
sS'slit'
p2288
S'3994'
p2289
sS'on/off'
p2290
S'4188'
p2291
sS'bend'
p2292
S'363'
p2293
sS'slip'
p2294
S'1170'
p2295
sS'rods'
p2296
S'4784'
p2297
sS'trumpet'
p2298
S'5415'
p2299
sS'lunchbox'
p2300
S'2974'
p2301
sS'delay'
p2302
S'945'
p2303
sS'swivels'
p2304
S'1776'
p2305
sS're-tune'
p2306
S'4622'
p2307
sS'stand'
p2308
S'405'
p2309
sS'contraption'
p2310
S'4920'
p2311
sS'abrasive'
p2312
S'5223'
p2313
sS'blocks'
p2314
S'1522'
p2315
sS'11-52'
p2316
S'5709'
p2317
sS'tied'
p2318
S'3580'
p2319
sS'notebook'
p2320
S'5513'
p2321
sS'fits'
p2322
S'50'
p2323
sS'ties'
p2324
S'2313'
p2325
sS'racks'
p2326
S'4612'
p2327
sS'realized'
p2328
S'1052'
p2329
sS'noises'
p2330
S'973'
p2331
sS'redundant'
p2332
S'3974'
p2333
sS'element'
p2334
S'5224'
p2335
sS'alloy'
p2336
S'3101'
p2337
sS'produces'
p2338
S'721'
p2339
sS'volts'
p2340
S'3993'
p2341
sS'move'
p2342
S'1047'
p2343
sS'produced'
p2344
S'576'
p2345
sS'peavy'
p2346
S'4351'
p2347
sS'perfect'
p2348
S'432'
p2349
sS'decay'
p2350
S'5271'
p2351
sS'chosen'
p2352
S'117'
p2353
sS'degrees'
p2354
S'771'
p2355
sS'hobby'
p2356
S'3552'
p2357
sS'suppressor'
p2358
S'3248'
p2359
sS'2010'
p2360
S'5151'
p2361
sS'2013'
p2362
S'3092'
p2363
sS'2012'
p2364
S'729'
p2365
sS'designs'
p2366
S'5509'
p2367
sS'earn'
p2368
S'3529'
p2369
sS'mediocre'
p2370
S'2305'
p2371
sS'dock'
p2372
S'4190'
p2373
sS'nady'
p2374
S'3052'
p2375
sS'sandpaper'
p2376
S'4448'
p2377
sS'legendary'
p2378
S'3302'
p2379
sS'rotation'
p2380
S'4505'
p2381
sS'realize'
p2382
S'2438'
p2383
sS'clip-on'
p2384
S'2813'
p2385
sS'vibrations'
p2386
S'1380'
p2387
sS'truth'
p2388
S'3672'
p2389
sS'glasses'
p2390
S'3985'
p2391
sS'beginner'
p2392
S'612'
p2393
sS'bump'
p2394
S'1852'
p2395
sS'ambiance'
p2396
S'3981'
p2397
sS'frequency'
p2398
S'1549'
p2399
sS'static'
p2400
S'2021'
p2401
sS"'"
p2402
S'680'
p2403
sS'boutique'
p2404
S'1779'
p2405
sS'valve'
p2406
S'2517'
p2407
sS'sn-1'
p2408
S'2074'
p2409
sS'shut'
p2410
S'1438'
p2411
sS'tempo'
p2412
S'930'
p2413
sS'surely'
p2414
S'2486'
p2415
sS'shortest'
p2416
S'1743'
p2417
sS'latches'
p2418
S'3863'
p2419
sS'dvd'
p2420
S'5592'
p2421
sS'david'
p2422
S'3487'
p2423
sS'length'
p2424
S'642'
p2425
sS'lanikai'
p2426
S'4383'
p2427
sS'assumed'
p2428
S'2647'
p2429
sS'repeats'
p2430
S'3499'
p2431
sS'r-09'
p2432
S'5768'
p2433
sS'lettering'
p2434
S'3544'
p2435
sS'touring'
p2436
S'1130'
p2437
sS'owned'
p2438
S'717'
p2439
sS'owner'
p2440
S'2432'
p2441
sS'blows'
p2442
S'2133'
p2443
sS'scent'
p2444
S'1831'
p2445
sS'behaves'
p2446
S'5733'
p2447
sS'system'
p2448
S'271'
p2449
sS'percussion'
p2450
S'1907'
p2451
sS'painful'
p2452
S'1056'
p2453
sS'stars'
p2454
S'555'
p2455
sS'seymour'
p2456
S'3684'
p2457
sS'adaptor'
p2458
S'4481'
p2459
sS'gigbag'
p2460
S'5419'
p2461
sS'steel'
p2462
S'171'
p2463
sS'bother'
p2464
S'1452'
p2465
sS'appealing'
p2466
S'2335'
p2467
sS'reproduction'
p2468
S'4901'
p2469
sS'result'
p2470
S'1933'
p2471
sS'collecting'
p2472
S'4850'
p2473
sS'counter'
p2474
S'4502'
p2475
sS'false'
p2476
S'2865'
p2477
sS'j74'
p2478
S'5658'
p2479
sS'trusting'
p2480
S'1008'
p2481
sS'gently'
p2482
S'1970'
p2483
sS'gentle'
p2484
S'3636'
p2485
sS'viewed'
p2486
S'3142'
p2487
sS'heft'
p2488
S'1423'
p2489
sS'soak'
p2490
S'4889'
p2491
sS'mechanism'
p2492
S'1954'
p2493
sS'soap'
p2494
S'4573'
p2495
sS'accuracy'
p2496
S'496'
p2497
sS'uca222'
p2498
S'5739'
p2499
sS'delayed'
p2500
S'3391'
p2501
sS'**'
p2502
S'2946'
p2503
sS'device'
p2504
S'493'
p2505
sS'placement'
p2506
S'1857'
p2507
sS'stronger'
p2508
S'3760'
p2509
sS'mechanical'
p2510
S'797'
p2511
sS'bring'
p2512
S'458'
p2513
sS'bedroom'
p2514
S'1369'
p2515
sS'rough'
p2516
S'1282'
p2517
sS'decade'
p2518
S'2258'
p2519
sS'mute'
p2520
S'1042'
p2521
sS'buttons'
p2522
S'1403'
p2523
sS'jam'
p2524
S'1599'
p2525
sS'tape'
p2526
S'1116'
p2527
sS'hope'
p2528
S'961'
p2529
sS'meant'
p2530
S'304'
p2531
sS'handle'
p2532
S'1453'
p2533
sS'listened'
p2534
S'4580'
p2535
sS'familiar'
p2536
S'3320'
p2537
sS'lucky'
p2538
S'2429'
p2539
sS'wiggle'
p2540
S'500'
p2541
sS'shaping'
p2542
S'5138'
p2543
sS'stuff'
p2544
S'450'
p2545
sS'withstand'
p2546
S'3917'
p2547
sS'btw'
p2548
S'3750'
p2549
sS'configured'
p2550
S'4412'
p2551
sS'edition'
p2552
S'5698'
p2553
sS'nanowebs'
p2554
S'5148'
p2555
sS'packed'
p2556
S'3914'
p2557
sS'coils'
p2558
S'808'
p2559
sS'wire'
p2560
S'332'
p2561
sS'quickest'
p2562
S'3864'
p2563
sS'email'
p2564
S'4546'
p2565
sS'at2020'
p2566
S'2297'
p2567
sS'shapes'
p2568
S'4515'
p2569
sS'configuration'
p2570
S'4405'
p2571
sS'figured'
p2572
S'754'
p2573
sS'drum'
p2574
S'909'
p2575
sS'fingerstyle'
p2576
S'4888'
p2577
sS'recorders'
p2578
S'3793'
p2579
sS'gorgeous'
p2580
S'3584'
p2581
sS'adjusted'
p2582
S'1378'
p2583
sS'conclude'
p2584
S'5489'
p2585
sS'cm-100l'
p2586
S'5629'
p2587
sS'cd'
p2588
S'2114'
p2589
sS'adjuster'
p2590
S'2142'
p2591
sS'cr'
p2592
S'5299'
p2593
sS'rougher'
p2594
S'4042'
p2595
sS'powered'
p2596
S'1641'
p2597
sS'rockband'
p2598
S'5745'
p2599
sS'waste'
p2600
S'709'
p2601
sS'>'
p2602
S'5648'
p2603
sS'graphics'
p2604
S'4941'
p2605
sS'cardioid'
p2606
S'2189'
p2607
sS'c1'
p2608
S'5130'
p2609
sS'laser'
p2610
S'5112'
p2611
sS'2011'
p2612
S'5002'
p2613
sS'podcasts'
p2614
S'3199'
p2615
sS'intro'
p2616
S'4554'
p2617
sS'ultra'
p2618
S'2136'
p2619
sS've'
p2620
S'4528'
p2621
sS'omni'
p2622
S'2398'
p2623
sS'2mm'
p2624
S'3546'
p2625
sS'insanely'
p2626
S'5473'
p2627
sS'lush'
p2628
S'5060'
p2629
sS'site'
p2630
S'2430'
p2631
sS'hardware'
p2632
S'1017'
p2633
sS'counterweight'
p2634
S'2371'
p2635
sS'tenor'
p2636
S'3609'
p2637
sS'sits'
p2638
S'2016'
p2639
sS'pauls'
p2640
S'4051'
p2641
sS'digging'
p2642
S'3747'
p2643
sS'pickin'
p2644
S'5252'
p2645
sS'ball'
p2646
S'343'
p2647
sS'if/when'
p2648
S'3445'
p2649
sS'drink'
p2650
S'873'
p2651
sS'v1'
p2652
S'5662'
p2653
sS'v2'
p2654
S'5483'
p2655
sS'v5'
p2656
S'2089'
p2657
sS'dust'
p2658
S'3578'
p2659
sS'expand'
p2660
S'4091'
p2661
sS'pleasantly'
p2662
S'2170'
p2663
sS'shotgun'
p2664
S'5083'
p2665
sS'colour'
p2666
S'2069'
p2667
sS'patterns'
p2668
S'1614'
p2669
sS'daw'
p2670
S'3882'
p2671
sS'351'
p2672
S'2791'
p2673
sS'350'
p2674
S'1859'
p2675
sS'audio'
p2676
S'497'
p2677
sS'drawing'
p2678
S'4076'
p2679
sS'bothering'
p2680
S'3259'
p2681
sS'octaves'
p2682
S'4427'
p2683
sS'moments'
p2684
S'1710'
p2685
sS'paul'
p2686
S'593'
p2687
sS'glue'
p2688
S'1995'
p2689
sS'unplugged'
p2690
S'3966'
p2691
sS'clipper'
p2692
S'326'
p2693
sS'web'
p2694
S'1580'
p2695
sS'generous'
p2696
S'4050'
p2697
sS'wee'
p2698
S'4750'
p2699
sS'transparent'
p2700
S'577'
p2701
sS'combine'
p2702
S'3779'
p2703
sS'clipped'
p2704
S'2962'
p2705
sS'wet'
p2706
S'3277'
p2707
sS'wimpy'
p2708
S'3595'
p2709
sS'increased'
p2710
S'2861'
p2711
sS'checking'
p2712
S'1067'
p2713
sS'isolators'
p2714
S'5046'
p2715
sS'crud'
p2716
S'5472'
p2717
sS'haul'
p2718
S'409'
p2719
sS'cedar'
p2720
S'3146'
p2721
sS'desk'
p2722
S'1480'
p2723
sS'passable'
p2724
S'5301'
p2725
sS'crisp'
p2726
S'942'
p2727
sS'garage'
p2728
S'2579'
p2729
sS'inexperienced'
p2730
S'3554'
p2731
sS'replacement'
p2732
S'605'
p2733
sS'vst'
p2734
S'4410'
p2735
sS'daylight'
p2736
S'4225'
p2737
sS'choosing'
p2738
S'3903'
p2739
sS'loaded'
p2740
S'3602'
p2741
sS'hissing'
p2742
S'2325'
p2743
sS'humming'
p2744
S'5092'
p2745
sS'transport'
p2746
S'418'
p2747
sS'literally'
p2748
S'3541'
p2749
sS'avoid'
p2750
S'2151'
p2751
sS'selecting'
p2752
S'1672'
p2753
sS'pressure'
p2754
S'1057'
p2755
sS'cordless'
p2756
S'4913'
p2757
sS'stage'
p2758
S'1300'
p2759
sS'sister'
p2760
S'5564'
p2761
sS'krk'
p2762
S'5413'
p2763
sS'irig'
p2764
S'3532'
p2765
sS'on-stage'
p2766
S'4289'
p2767
sS'whistles'
p2768
S'2228'
p2769
sS'reproducing'
p2770
S'4837'
p2771
sS'9volt'
p2772
S'2026'
p2773
sS'software'
p2774
S'230'
p2775
sS'letters'
p2776
S'2840'
p2777
sS'screamer'
p2778
S'2085'
p2779
sS'retune'
p2780
S'3818'
p2781
sS'luna'
p2782
S'1720'
p2783
sS'mere'
p2784
S'1709'
p2785
sS'housing'
p2786
S'3318'
p2787
sS'spots'
p2788
S'1912'
p2789
sS'sp-2'
p2790
S'5601'
p2791
sS'frustration'
p2792
S'5344'
p2793
sS'sanded'
p2794
S'3626'
p2795
sS'gut'
p2796
S'4497'
p2797
sS'naturally'
p2798
S'4377'
p2799
sS'function'
p2800
S'1402'
p2801
sS'no-frills'
p2802
S'5285'
p2803
sS'delivery'
p2804
S'1559'
p2805
sS'lowered'
p2806
S'3115'
p2807
sS'delivers'
p2808
S'3159'
p2809
sS'count'
p2810
S'4213'
p2811
sS'tossed'
p2812
S'3496'
p2813
sS'calls'
p2814
S'190'
p2815
sS'smooth'
p2816
S'816'
p2817
sS'reinforcement'
p2818
S'2472'
p2819
sS'books'
p2820
S'1703'
p2821
sS'distribution'
p2822
S'4401'
p2823
sS'odds'
p2824
S'4102'
p2825
sS'irish'
p2826
S'5715'
p2827
sS'recognize'
p2828
S'2177'
p2829
sS'at2035'
p2830
S'5776'
p2831
sS'ins'
p2832
S'982'
p2833
sS'compared'
p2834
S'384'
p2835
sS'variety'
p2836
S'287'
p2837
sS'compares'
p2838
S'3046'
p2839
sS'details'
p2840
S'4226'
p2841
sS'repeat'
p2842
S'3859'
p2843
sS'outlets'
p2844
S'4798'
p2845
sS'chance'
p2846
S'857'
p2847
sS'badass'
p2848
S'4236'
p2849
sS'coloration'
p2850
S'296'
p2851
sS'lasted'
p2852
S'1906'
p2853
sS'rule'
p2854
S'2826'
p2855
sS'compete'
p2856
S'4937'
p2857
sS'hd-28'
p2858
S'5792'
p2859
sS'searched'
p2860
S'1309'
p2861
sS'straploks'
p2862
S'5695'
p2863
sS'kysers'
p2864
S'5754'
p2865
sS'magnetic'
p2866
S'3745'
p2867
sS'saves'
p2868
S'3154'
p2869
sS'saved'
p2870
S'1487'
p2871
sS'worth'
p2872
S'205'
p2873
sS'blanket'
p2874
S'2412'
p2875
sS'distort'
p2876
S'3224'
p2877
sS'sellers'
p2878
S'4946'
p2879
sS'progression'
p2880
S'5289'
p2881
sS'pinch'
p2882
S'382'
p2883
sS'humidity'
p2884
S'3171'
p2885
sS'phones'
p2886
S'3050'
p2887
sS'specs'
p2888
S'2035'
p2889
sS'machines'
p2890
S'3015'
p2891
sS'+'
p2892
S'1272'
p2893
sS'neat'
p2894
S'1639'
p2895
sS'told'
p2896
S'1107'
p2897
sS'crunch'
p2898
S'158'
p2899
sS'simultaneously'
p2900
S'1922'
p2901
sS'protection'
p2902
S'389'
p2903
sS'textured'
p2904
S'3063'
p2905
sS'studs'
p2906
S'1027'
p2907
sS'kudos'
p2908
S'3427'
p2909
sS'daughter'
p2910
S'3222'
p2911
sS'items'
p2912
S'2563'
p2913
sS'study'
p2914
S'2435'
p2915
sS'itunes'
p2916
S'5438'
p2917
sS'smoke'
p2918
S'2531'
p2919
sS'gls'
p2920
S'4168'
p2921
sS'akg'
p2922
S'3871'
p2923
sS'diameter'
p2924
S'1249'
p2925
sS'secure'
p2926
S'600'
p2927
sS'highly'
p2928
S'142'
p2929
sS'sparkling'
p2930
S'5479'
p2931
sS'glance'
p2932
S'2896'
p2933
sS'total'
p2934
S'708'
p2935
sS'experimentation'
p2936
S'5486'
p2937
sS'gloss'
p2938
S'4848'
p2939
sS'negative'
p2940
S'614'
p2941
sS'bundled'
p2942
S'2293'
p2943
sS'abusing'
p2944
S'5012'
p2945
sS'snarks'
p2946
S'1311'
p2947
sS'haha'
p2948
S'4998'
p2949
sS'aware'
p2950
S'84'
p2951
sS'1990'
p2952
S'5724'
p2953
sS'word'
p2954
S'1339'
p2955
sS'wore'
p2956
S'3820'
p2957
sS'worn'
p2958
S'533'
p2959
sS'era'
p2960
S'3797'
p2961
sS'mechanic'
p2962
S'5076'
p2963
sS'elbow'
p2964
S'4891'
p2965
sS'violin'
p2966
S'1325'
p2967
sS'ukes'
p2968
S'2550'
p2969
sS'provide'
p2970
S'874'
p2971
sS'verify'
p2972
S'2863'
p2973
sS'chameleon'
p2974
S'5204'
p2975
sS'nuts'
p2976
S'3174'
p2977
sS'disappoint'
p2978
S'4119'
p2979
sS'ordinary'
p2980
S'4071'
p2981
sS'beach'
p2982
S'2125'
p2983
sS'pizza'
p2984
S'4988'
p2985
sS'firebox'
p2986
S'5821'
p2987
sS'reamer'
p2988
S'2994'
p2989
sS'earlier'
p2990
S'1929'
p2991
sS'lab'
p2992
S'4561'
p2993
sS'lay'
p2994
S'3575'
p2995
sS'law'
p2996
S'5748'
p2997
sS'lap'
p2998
S'3109'
p2999
sS'rogue'
p3000
S'2132'
p3001
sS'green'
p3002
S'2759'
p3003
sS'fan'
p3004
S'543'
p3005
sS'office'
p3006
S'2356'
p3007
sS'satisfied'
p3008
S'657'
p3009
sS'awful'
p3010
S'2316'
p3011
sS'slimmer'
p3012
S'5668'
p3013
sS'blown'
p3014
S'2127'
p3015
sS'pricier'
p3016
S'5679'
p3017
sS'production'
p3018
S'1401'
p3019
sS'workable'
p3020
S'3443'
p3021
sS'split'
p3022
S'2638'
p3023
sS'versus'
p3024
S'3597'
p3025
sS'eventually'
p3026
S'365'
p3027
sS'coffee'
p3028
S'872'
p3029
sS'safe'
p3030
S'388'
p3031
sS'break'
p3032
S'341'
p3033
sS'band'
p3034
S'1314'
p3035
sS'bang'
p3036
S'3736'
p3037
sS'fear'
p3038
S'3850'
p3039
sS'bank'
p3040
S'2453'
p3041
sS'pegs'
p3042
S'18'
p3043
sS'rocks'
p3044
S'2129'
p3045
sS'reasonable'
p3046
S'2979'
p3047
sS'dings'
p3048
S'4647'
p3049
sS'logo'
p3050
S'1210'
p3051
sS'pickguard'
p3052
S'64'
p3053
sS'hooked'
p3054
S'1205'
p3055
sS'forty'
p3056
S'4639'
p3057
sS'safety'
p3058
S'1141'
p3059
sS'sliding'
p3060
S'2679'
p3061
sS'gigged'
p3062
S'4088'
p3063
sS'oskar'
p3064
S'5182'
p3065
sS'pg58'
p3066
S'5713'
p3067
sS'standard'
p3068
S'551'
p3069
sS'created'
p3070
S'2483'
p3071
sS'installs'
p3072
S'4766'
p3073
sS'creates'
p3074
S'4021'
p3075
sS'lousy'
p3076
S'2664'
p3077
sS'pignose'
p3078
S'4269'
p3079
sS'organize'
p3080
S'3905'
p3081
sS'daunting'
p3082
S'4963'
p3083
sS'thick'
p3084
S'790'
p3085
sS'tangle'
p3086
S'5019'
p3087
sS'electronic'
p3088
S'1727'
p3089
sS'mojo'
p3090
S'4184'
p3091
sS'rated'
p3092
S'1018'
p3093
sS'vibrato'
p3094
S'3723'
p3095
sS'overs'
p3096
S'3026'
p3097
sS'vibrate'
p3098
S'2904'
p3099
sS'compromise'
p3100
S'3068'
p3101
sS'observations'
p3102
S'4802'
p3103
sS'airy'
p3104
S'3452'
p3105
sS'john'
p3106
S'3273'
p3107
sS'dogs'
p3108
S'2715'
p3109
sS'damaging'
p3110
S'4306'
p3111
sS'5-10'
p3112
S'5371'
p3113
sS'happily'
p3114
S'2233'
p3115
sS'wasted'
p3116
S'5531'
p3117
sS'guild'
p3118
S'5574'
p3119
sS'target'
p3120
S'4683'
p3121
sS'magnet'
p3122
S'5576'
p3123
sS'seated'
p3124
S'1748'
p3125
sS'ebay'
p3126
S'3615'
p3127
sS'iron'
p3128
S'3718'
p3129
sS'ypg-235'
p3130
S'5787'
p3131
sS'solely'
p3132
S'5329'
p3133
sS'minus'
p3134
S'4273'
p3135
sS'manner'
p3136
S'1604'
p3137
sS'gear'
p3138
S'720'
p3139
sS'latency'
p3140
S'2289'
p3141
sS'quieter'
p3142
S'2409'
p3143
sS'strength'
p3144
S'1356'
p3145
sS'genuine'
p3146
S'3729'
p3147
sS'convenient'
p3148
S'1649'
p3149
sS'shorts'
p3150
S'4993'
p3151
sS'808'
p3152
S'5043'
p3153
sS'forces'
p3154
S'3061'
p3155
sS'explanation'
p3156
S'2210'
p3157
sS'extending'
p3158
S'2245'
p3159
sS'optimized'
p3160
S'4728'
p3161
sS'germany'
p3162
S'5282'
p3163
sS'802'
p3164
S'5457'
p3165
sS'phase'
p3166
S'4693'
p3167
sS'consumers'
p3168
S'4060'
p3169
sS'bracket'
p3170
S'4631'
p3171
sS'responded'
p3172
S'5770'
p3173
sS'fitted'
p3174
S'3175'
p3175
sS'fussy'
p3176
S'2787'
p3177
sS'shubb'
p3178
S'3767'
p3179
sS'subtle'
p3180
S'1236'
p3181
sS'd5'
p3182
S'5766'
p3183
sS'enjoyed'
p3184
S'719'
p3185
sS'toast'
p3186
S'5696'
p3187
sS'guidance'
p3188
S'5420'
p3189
sS'adequate'
p3190
S'1868'
p3191
sS'dj'
p3192
S'3055'
p3193
sS'di'
p3194
S'2872'
p3195
sS'de'
p3196
S'4817'
p3197
sS'db'
p3198
S'3811'
p3199
sS'dc'
p3200
S'1258'
p3201
sS'preferred'
p3202
S'1051'
p3203
sS'degradation'
p3204
S'1187'
p3205
sS'nasty'
p3206
S'1176'
p3207
sS'dr'
p3208
S'2476'
p3209
sS'cleanly'
p3210
S'2996'
p3211
sS'runs'
p3212
S'1175'
p3213
sS'covering'
p3214
S'4360'
p3215
sS'hohner'
p3216
S'4851'
p3217
sS'headstock'
p3218
S'988'
p3219
sS'sp01'
p3220
S'5808'
p3221
sS'steal'
p3222
S'1653'
p3223
sS'fullness'
p3224
S'5351'
p3225
sS'w/'
p3226
S'3287'
p3227
sS'depends'
p3228
S'4353'
p3229
sS'christian'
p3230
S'5121'
p3231
sS'optimum'
p3232
S'1696'
p3233
sS'techniques'
p3234
S'2433'
p3235
sS'wahs'
p3236
S'5254'
p3237
sS'draws'
p3238
S'2752'
p3239
sS'fingerboard'
p3240
S'1100'
p3241
sS'unable'
p3242
S'4775'
p3243
sS'humidipak'
p3244
S'4939'
p3245
sS'terms'
p3246
S'2582'
p3247
sS'wo'
p3248
S'133'
p3249
sS'handful'
p3250
S'4138'
p3251
sS'packaged'
p3252
S'1558'
p3253
sS'oomph'
p3254
S'3197'
p3255
sS'kitchen'
p3256
S'2736'
p3257
sS'received'
p3258
S'674'
p3259
sS'climate'
p3260
S'3849'
p3261
sS'ds-1'
p3262
S'718'
p3263
sS'strummed'
p3264
S'5031'
p3265
sS'ill'
p3266
S'3314'
p3267
sS'strummer'
p3268
S'5689'
p3269
sS'receiver'
p3270
S'3980'
p3271
sS'exceeds'
p3272
S'5294'
p3273
sS'con'
p3274
S'4164'
p3275
sS'tone'
p3276
S'121'
p3277
sS'excess'
p3278
S'2547'
p3279
sS'tons'
p3280
S'1464'
p3281
sS'wider'
p3282
S'1203'
p3283
sS'speak'
p3284
S'671'
p3285
sS'flexible'
p3286
S'217'
p3287
sS'dozens'
p3288
S'3269'
p3289
sS'warmth'
p3290
S'924'
p3291
sS'cutouts'
p3292
S'5789'
p3293
sS'beloved'
p3294
S'5402'
p3295
sS'applied'
p3296
S'2919'
p3297
sS'drumset'
p3298
S'2598'
p3299
sS'air'
p3300
S'1451'
p3301
sS'aim'
p3302
S'4731'
p3303
sS'remo'
p3304
S'4388'
p3305
sS'thrash'
p3306
S'5412'
p3307
sS'voice'
p3308
S'1225'
p3309
sS'mistake'
p3310
S'2687'
p3311
sS'stink'
p3312
S'1449'
p3313
sS'cons'
p3314
S'1507'
p3315
sS'good-sounding'
p3316
S'2065'
p3317
sS'sticker'
p3318
S'1334'
p3319
sS'sting'
p3320
S'4935'
p3321
sS'cone'
p3322
S'4452'
p3323
sS'confirmed'
p3324
S'3456'
p3325
sS'perform'
p3326
S'446'
p3327
sS'plated'
p3328
S'5292'
p3329
sS'extremes'
p3330
S'5248'
p3331
sS'incorrectly'
p3332
S'2750'
p3333
sS'plates'
p3334
S'1846'
p3335
sS'wheel'
p3336
S'3930'
p3337
sS'independent'
p3338
S'4541'
p3339
sS'plating'
p3340
S'601'
p3341
sS'fuss'
p3342
S'1827'
p3343
sS'swell'
p3344
S'4989'
p3345
sS'hang'
p3346
S'558'
p3347
sS'counterparts'
p3348
S'4555'
p3349
sS'hand'
p3350
S'15'
p3351
sS'fuse'
p3352
S'2589'
p3353
sS'knockoff'
p3354
S'3006'
p3355
sS'humble'
p3356
S'3221'
p3357
sS'drip'
p3358
S'5203'
p3359
sS'1970'
p3360
S'3099'
p3361
sS'tho'
p3362
S'5152'
p3363
sS'contact'
p3364
S'2118'
p3365
sS'epi'
p3366
S'3285'
p3367
sS'musical'
p3368
S'288'
p3369
sS'kala'
p3370
S'5095'
p3371
sS'photo'
p3372
S'3127'
p3373
sS'mid'
p3374
S'1222'
p3375
sS'farther'
p3376
S'5352'
p3377
sS'swears'
p3378
S'4593'
p3379
sS'clamped'
p3380
S'852'
p3381
sS'adding'
p3382
S'2972'
p3383
sS'transformer'
p3384
S'2458'
p3385
sS'unique'
p3386
S'525'
p3387
sS'yamaha'
p3388
S'1496'
p3389
sS'passive'
p3390
S'420'
p3391
sS'belongs'
p3392
S'5411'
p3393
sS'board'
p3394
S'939'
p3395
sS'usable'
p3396
S'3457'
p3397
sS'basses'
p3398
S'1598'
p3399
sS'caps'
p3400
S'4349'
p3401
sS'boxes'
p3402
S'2674'
p3403
sS'capo'
p3404
S'38'
p3405
sS'disadvantage'
p3406
S'1422'
p3407
sS'cooler'
p3408
S'5764'
p3409
sS'535'
p3410
S'5822'
p3411
sS'night'
p3412
S'1911'
p3413
sS'invaluable'
p3414
S'5523'
p3415
sS'security'
p3416
S'2460'
p3417
sS'pyle-pro'
p3418
S'1535'
p3419
sS'sends'
p3420
S'3004'
p3421
sS'flatter'
p3422
S'3475'
p3423
sS'add-on'
p3424
S'5676'
p3425
sS'hassle'
p3426
S'448'
p3427
sS'bore'
p3428
S'5048'
p3429
sS'confusing'
p3430
S'4681'
p3431
sS'purple'
p3432
S'2609'
p3433
sS'phenomenal'
p3434
S'4983'
p3435
sS'comments'
p3436
S'1750'
p3437
sS'tascam'
p3438
S'1541'
p3439
sS'beating'
p3440
S'1080'
p3441
sS'peel'
p3442
S'4722'
p3443
sS'marketing'
p3444
S'189'
p3445
sS'ply'
p3446
S'1168'
p3447
sS'post'
p3448
S'2273'
p3449
sS'xt'
p3450
S'1468'
p3451
sS'months'
p3452
S'1494'
p3453
sS'accepts'
p3454
S'5142'
p3455
sS'treble'
p3456
S'2622'
p3457
sS'considerations'
p3458
S'457'
p3459
sS'dilemma'
p3460
S'4191'
p3461
sS'wasting'
p3462
S'2507'
p3463
sS'pays'
p3464
S'4303'
p3465
sS'carpal'
p3466
S'5680'
p3467
sS'delighted'
p3468
S'2181'
p3469
sS'balanced'
p3470
S'3160'
p3471
sS'wan'
p3472
S'3301'
p3473
sS'compression'
p3474
S'273'
p3475
sS'wah'
p3476
S'212'
p3477
sS'fight'
p3478
S'4110'
p3479
sS'quirks'
p3480
S'5370'
p3481
sS'slapback'
p3482
S'4990'
p3483
sS'wav'
p3484
S'2878'
p3485
sS'fizz'
p3486
S'2669'
p3487
sS'lowest'
p3488
S'1654'
p3489
sS'true'
p3490
S'193'
p3491
sS'reset'
p3492
S'997'
p3493
sS'high-quality'
p3494
S'3150'
p3495
sS'maximum'
p3496
S'1758'
p3497
sS'crystal'
p3498
S'943'
p3499
sS'back-up'
p3500
S'2306'
p3501
sS'a-style'
p3502
S'2497'
p3503
sS'hotter'
p3504
S'2332'
p3505
sS'lowering'
p3506
S'3156'
p3507
sS'evidence'
p3508
S'4175'
p3509
sS'guessed'
p3510
S'4384'
p3511
sS'promised'
p3512
S'3915'
p3513
sS'gibsons'
p3514
S'5078'
p3515
sS'physical'
p3516
S'4081'
p3517
sS'dying'
p3518
S'2567'
p3519
sS'topped'
p3520
S'5041'
p3521
sS'reality'
p3522
S'4291'
p3523
sS'holding'
p3524
S'760'
p3525
sS'test'
p3526
S'266'
p3527
sS'shrink'
p3528
S'4987'
p3529
sS"o'clock"
p3530
S'154'
p3531
sS'convincing'
p3532
S'3564'
p3533
sS'update'
p3534
S'728'
p3535
sS'ebow'
p3536
S'5814'
p3537
sS'modules'
p3538
S'4189'
p3539
sS'loyal'
p3540
S'1594'
p3541
sS'songs'
p3542
S'811'
p3543
sS'concept'
p3544
S'2278'
p3545
sS'impulse'
p3546
S'1806'
p3547
sS'switched'
p3548
S'138'
p3549
sS'dance'
p3550
S'3834'
p3551
sS'sn-13'
p3552
S'4589'
p3553
sS'switches'
p3554
S'785'
p3555
sS'layers'
p3556
S'4116'
p3557
sS'supposedly'
p3558
S'1101'
p3559
sS'hurry'
p3560
S'3731'
p3561
sS'zone'
p3562
S'4394'
p3563
sS'graph'
p3564
S'1332'
p3565
sS'hump'
p3566
S'3794'
p3567
sS'flash'
p3568
S'1417'
p3569
sS'tusq'
p3570
S'3172'
p3571
sS'gigs'
p3572
S'447'
p3573
sS're-stringing'
p3574
S'0'
p3575
sS'compensate'
p3576
S'2976'
p3577
sS'permanently'
p3578
S'2048'
p3579
sS'rhythm'
p3580
S'2051'
p3581
sS'terror'
p3582
S'5314'
p3583
sS'brown'
p3584
S'3018'
p3585
sS'protective'
p3586
S'826'
p3587
sS'baggie'
p3588
S'5099'
p3589
sS'seemingly'
p3590
S'4085'
p3591
sS'trouble'
p3592
S'167'
p3593
sS'blast'
p3594
S'1368'
p3595
sS'ezdrummer'
p3596
S'5310'
p3597
sS'ragin'
p3598
S'5456'
p3599
sS'12th'
p3600
S'3633'
p3601
sS'fragile'
p3602
S'2888'
p3603
sS'gun'
p3604
S'507'
p3605
sS'soooo'
p3606
S'1373'
p3607
sS'guitars'
p3608
S'387'
p3609
sS'guitarr'
p3610
S'4999'
p3611
sS'guy'
p3612
S'311'
p3613
sS'upper'
p3614
S'1223'
p3615
sS'regret'
p3616
S'3498'
p3617
sS'discover'
p3618
S'3627'
p3619
sS'cost'
p3620
S'865'
p3621
sS'uniform'
p3622
S'5176'
p3623
sS'appeal'
p3624
S'4247'
p3625
sS'pedal-'
p3626
S'5632'
p3627
sS'satisfy'
p3628
S'3337'
p3629
sS'supporting'
p3630
S'5444'
p3631
sS'unsure'
p3632
S'2311'
p3633
sS'vocalists'
p3634
S'3028'
p3635
sS'downloaded'
p3636
S'1475'
p3637
sS'suckers'
p3638
S'4286'
p3639
sS'rubbery'
p3640
S'1284'
p3641
sS'electrics'
p3642
S'4013'
p3643
sS'change'
p3644
S'156'
p3645
sS'buck'
p3646
S'738'
p3647
sS'mellower'
p3648
S'4586'
p3649
sS'trial'
p3650
S'3076'
p3651
sS'shifting'
p3652
S'4538'
p3653
sS'fbv'
p3654
S'5366'
p3655
sS'extra'
p3656
S'150'
p3657
sS'marked'
p3658
S'2781'
p3659
sS'sincerely'
p3660
S'5699'
p3661
sS'stings'
p3662
S'4772'
p3663
sS'illumination'
p3664
S'5406'
p3665
sS'rarely'
p3666
S'839'
p3667
sS'market'
p3668
S'653'
p3669
sS'prove'
p3670
S'1807'
p3671
sS'live'
p3672
S'177'
p3673
sS'wonderfully'
p3674
S'1583'
p3675
sS'microfiber'
p3676
S'4872'
p3677
sS'marginally'
p3678
S'3819'
p3679
sS'club'
p3680
S'4738'
p3681
sS'envelope'
p3682
S'3642'
p3683
sS'plexi'
p3684
S'3802'
p3685
sS'clue'
p3686
S'5391'
p3687
sS'slinky'
p3688
S'2165'
p3689
sS'instructional'
p3690
S'4808'
p3691
sS'graphic'
p3692
S'5122'
p3693
sS'car'
p3694
S'2474'
p3695
sS'cap'
p3696
S'3743'
p3697
sS'cat'
p3698
S'174'
p3699
sS'hardest'
p3700
S'3764'
p3701
sS'cab'
p3702
S'2635'
p3703
sS'cad'
p3704
S'5476'
p3705
sS'heart'
p3706
S'1081'
p3707
sS'dedicated'
p3708
S'3424'
p3709
sS'hears'
p3710
S'5165'
p3711
sS'december'
p3712
S'5409'
p3713
sS'chip'
p3714
S'5530'
p3715
sS'heard'
p3716
S'1366'
p3717
sS'occur'
p3718
S'1923'
p3719
sS'fortunately'
p3720
S'4416'
p3721
sS'spreads'
p3722
S'1685'
p3723
sS'write'
p3724
S'1510'
p3725
sS'ca-40'
p3726
S'3782'
p3727
sS'deteriorate'
p3728
S'4255'
p3729
sS'product'
p3730
S'303'
p3731
sS'dive'
p3732
S'5071'
p3733
sS'unobtrusive'
p3734
S'4308'
p3735
sS'produce'
p3736
S'594'
p3737
sS'drastic'
p3738
S'3310'
p3739
sS'compatibility'
p3740
S'4566'
p3741
sS'lifting'
p3742
S'1960'
p3743
sS'remember'
p3744
S'214'
p3745
sS'grandson'
p3746
S'3012'
p3747
sS'ghs'
p3748
S'2951'
p3749
sS'corona'
p3750
S'2023'
p3751
sS'typical'
p3752
S'1690'
p3753
sS'displayed'
p3754
S'1418'
p3755
sS'brain'
p3756
S'4212'
p3757
sS'cold'
p3758
S'2237'
p3759
sS'birds'
p3760
S'3601'
p3761
sS'window'
p3762
S'4418'
p3763
sS'nod'
p3764
S'4838'
p3765
sS'introduce'
p3766
S'4352'
p3767
sS'half'
p3768
S'502'
p3769
sS'hall'
p3770
S'3949'
p3771
sS'wont'
p3772
S'366'
p3773
sS'layering'
p3774
S'2284'
p3775
sS'streaks'
p3776
S'3192'
p3777
sS'james'
p3778
S'4139'
p3779
sS'drop'
p3780
S'55'
p3781
sS'intrigued'
p3782
S'3138'
p3783
sS'concerts'
p3784
S'3852'
p3785
sS'em'
p3786
S'1885'
p3787
sS'el'
p3788
S'2520'
p3789
sS'eh'
p3790
S'2706'
p3791
sS'straplok'
p3792
S'3481'
p3793
sS'yeah'
p3794
S'3020'
p3795
sS'eb'
p3796
S'1257'
p3797
sS'goose'
p3798
S'1526'
p3799
sS'ez'
p3800
S'5311'
p3801
sS'happen'
p3802
S'1262'
p3803
sS'ev'
p3804
S'3472'
p3805
sS'eq'
p3806
S'2637'
p3807
sS'ep'
p3808
S'4143'
p3809
sS'es'
p3810
S'5823'
p3811
sS'album'
p3812
S'3370'
p3813
sS'accomplish'
p3814
S'4823'
p3815
sS'space'
p3816
S'424'
p3817
sS'mt-2'
p3818
S'4801'
p3819
sS'increase'
p3820
S'778'
p3821
sS'wholeheartedly'
p3822
S'4338'
p3823
sS'side-by-side'
p3824
S'4033'
p3825
sS'receiving'
p3826
S'756'
p3827
sS'inevitably'
p3828
S'2722'
p3829
sS'cart'
p3830
S'3588'
p3831
sS'lugging'
p3832
S'399'
p3833
sS'unwanted'
p3834
S'2172'
p3835
sS'inevitable'
p3836
S'4475'
p3837
sS'card'
p3838
S'1342'
p3839
sS'care'
p3840
S'395'
p3841
sS'es-57'
p3842
S'2624'
p3843
sS'transition'
p3844
S'891'
p3845
sS'british'
p3846
S'5315'
p3847
sS'honest'
p3848
S'3274'
p3849
sS'tangled'
p3850
S'3661'
p3851
sS'suffice'
p3852
S'3183'
p3853
sS'blind'
p3854
S'4701'
p3855
sS'low-end'
p3856
S'3712'
p3857
sS'flying'
p3858
S'2243'
p3859
sS'xl'
p3860
S'2948'
p3861
sS'striking'
p3862
S'4443'
p3863
sS'xd'
p3864
S'253'
p3865
sS'blink'
p3866
S'5372'
p3867
sS'directly'
p3868
S'267'
p3869
sS'impossible'
p3870
S'1896'
p3871
sS'ring'
p3872
S'1174'
p3873
sS'cr2032'
p3874
S'3901'
p3875
sS"'em"
p3876
S'3220'
p3877
sS'guitarists'
p3878
S'1624'
p3879
sS'sheer'
p3880
S'3938'
p3881
sS'sheet'
p3882
S'2524'
p3883
sS'silent'
p3884
S'1506'
p3885
sS'caught'
p3886
S'4453'
p3887
sS'frame'
p3888
S'3205'
p3889
sS'friend'
p3890
S'74'
p3891
sS'eliminates'
p3892
S'3843'
p3893
sS'x2'
p3894
S'3232'
p3895
sS'eliminated'
p3896
S'5433'
p3897
sS'appreciated'
p3898
S'4364'
p3899
sS'professionals'
p3900
S'5085'
p3901
sS'rugged'
p3902
S'429'
p3903
sS'vocals'
p3904
S'2188'
p3905
sS'cymbals'
p3906
S'917'
p3907
sS'sennheisers'
p3908
S'4498'
p3909
sS'remained'
p3910
S'1297'
p3911
sS'correction'
p3912
S'4611'
p3913
sS'slap'
p3914
S'954'
p3915
sS'anytime'
p3916
S'541'
p3917
sS'distorted'
p3918
S'1511'
p3919
sS'80/20'
p3920
S'3120'
p3921
sS'form'
p3922
S'4137'
p3923
sS'manufacturers'
p3924
S'2942'
p3925
sS'terrific'
p3926
S'1626'
p3927
sS'equipment'
p3928
S'402'
p3929
sS'nuances'
p3930
S'4860'
p3931
sS'online'
p3932
S'646'
p3933
sS'cordoba'
p3934
S'4640'
p3935
sS'price'
p3936
S'42'
p3937
sS'neatly'
p3938
S'1077'
p3939
sS'importantly'
p3940
S'737'
p3941
sS'pricy'
p3942
S'5651'
p3943
sS'america'
p3944
S'3638'
p3945
sS'forever'
p3946
S'10'
p3947
sS'flawlessly'
p3948
S'1875'
p3949
sS'steady'
p3950
S'2235'
p3951
sS'professional'
p3952
S'1129'
p3953
sS'typically'
p3954
S'1585'
p3955
sS'filing'
p3956
S'1712'
p3957
sS'german'
p3958
S'3402'
p3959
sS'fifty'
p3960
S'855'
p3961
sS'discovered'
p3962
S'1295'
p3963
sS'modelers'
p3964
S'3503'
p3965
sS'crackling'
p3966
S'2607'
p3967
sS'pivots'
p3968
S'5227'
p3969
sS'upgrade'
p3970
S'239'
p3971
sS'ratio'
p3972
S'2406'
p3973
sS'title'
p3974
S'381'
p3975
sS'texture'
p3976
S'1283'
p3977
sS'od-3'
p3978
S'747'
p3979
sS'stain'
p3980
S'2452'
p3981
sS'shrill'
p3982
S'5612'
p3983
sS'leather'
p3984
S'1209'
p3985
sS'craftsmanship'
p3986
S'4503'
p3987
sS'sonar'
p3988
S'5426'
p3989
sS'husband'
p3990
S'7'
p3991
sS'concert'
p3992
S'1904'
p3993
sS'burst'
p3994
S'5408'
p3995
sS'physically'
p3996
S'5007'
p3997
sS'concern'
p3998
S'1089'
p3999
sS'colours'
p4000
S'1973'
p4001
sS'3'
p4002
S'352'
p4003
sS'import'
p4004
S'1850'
p4005
sS'notice'
p4006
S'552'
p4007
sS'pluck'
p4008
S'2283'
p4009
sS'blame'
p4010
S'2401'
p4011
sS'hurts'
p4012
S'1878'
p4013
sS'cakewalk'
p4014
S'4150'
p4015
sS'discernible'
p4016
S'3962'
p4017
sS'installation'
p4018
S'2310'
p4019
sS'crisper'
p4020
S'5157'
p4021
sS'mono'
p4022
S'523'
p4023
sS'nearby'
p4024
S'3512'
p4025
sS'learning'
p4026
S'1495'
p4027
sS'cares'
p4028
S'347'
p4029
sS'cared'
p4030
S'2580'
p4031
sS'nickle'
p4032
S'5540'
p4033
sS'dead-on'
p4034
S'1648'
p4035
sS'wounds'
p4036
S'4464'
p4037
sS'external'
p4038
S'422'
p4039
sS'suspected'
p4040
S'4018'
p4041
sS'ruby'
p4042
S'5712'
p4043
sS'countless'
p4044
S'3479'
p4045
sS'4-5'
p4046
S'3948'
p4047
sS'trick'
p4048
S'461'
p4049
sS'freely'
p4050
S'2263'
p4051
sS'cherub'
p4052
S'3827'
p4053
sS'coolest'
p4054
S'4126'
p4055
sS'orientation'
p4056
S'2196'
p4057
sS'metalheads'
p4058
S'4755'
p4059
sS'sweetwater'
p4060
S'5596'
p4061
sS'awhile'
p4062
S'1484'
p4063
sS'worry'
p4064
S'1693'
p4065
sS'develop'
p4066
S'2219'
p4067
sS'figuring'
p4068
S'832'
p4069
sS'lite'
p4070
S'2754'
p4071
sS'finish'
p4072
S'1288'
p4073
sS'closest'
p4074
S'2984'
p4075
sS'foam'
p4076
S'691'
p4077
sS'cymbal'
p4078
S'1908'
p4079
sS'favorites'
p4080
S'3264'
p4081
sS'complained'
p4082
S'1669'
p4083
sS'casio'
p4084
S'4976'
p4085
sS'breeze'
p4086
S'1500'
p4087
sS'shock-mount'
p4088
S'4845'
p4089
sS'preamp'
p4090
S'412'
p4091
sS'valuable'
p4092
S'3932'
p4093
sS'touch'
p4094
S'1349'
p4095
sS'speed'
p4096
S'926'
p4097
sS'death'
p4098
S'1705'
p4099
sS'thinking'
p4100
S'202'
p4101
sS'improvement'
p4102
S'3117'
p4103
sS'guessing'
p4104
S'1184'
p4105
sS'treatment'
p4106
S'4058'
p4107
sS'versa'
p4108
S'5161'
p4109
sS'struck'
p4110
S'4436'
p4111
sS'seams'
p4112
S'3989'
p4113
sS'spectacular'
p4114
S'4'
p4115
sS'read'
p4116
S'101'
p4117
sS'listening'
p4118
S'294'
p4119
sS'amp'
p4120
S'98'
p4121
sS'rear'
p4122
S'2272'
p4123
sS'fortune'
p4124
S'3909'
p4125
sS'pounds'
p4126
S'1949'
p4127
sS'sc-1'
p4128
S'5665'
p4129
sS'miracle'
p4130
S'5125'
p4131
sS'benefit'
p4132
S'1230'
p4133
sS'harmonicas'
p4134
S'3585'
p4135
sS'output'
p4136
S'262'
p4137
sS'downward'
p4138
S'4514'
p4139
sS'twelve'
p4140
S'4417'
p4141
sS'exposed'
p4142
S'1879'
p4143
sS'eddie'
p4144
S'1708'
p4145
sS'duration'
p4146
S'5020'
p4147
sS'rehearsing'
p4148
S'3328'
p4149
sS'capability'
p4150
S'2677'
p4151
sS'kaiser'
p4152
S'5527'
p4153
sS'squire'
p4154
S'1371'
p4155
sS'recorded'
p4156
S'696'
p4157
sS'recorder'
p4158
S'1542'
p4159
sS'assembly'
p4160
S'4274'
p4161
sS'business'
p4162
S'2504'
p4163
sS'asap'
p4164
S'4843'
p4165
sS'indestructible'
p4166
S'5297'
p4167
sS'equivalent'
p4168
S'3161'
p4169
sS'restring'
p4170
S'2532'
p4171
sS'assemble'
p4172
S'2543'
p4173
sS'throw'
p4174
S'1125'
p4175
sS'comparison'
p4176
S'578'
p4177
sS'greatly'
p4178
S'1844'
p4179
sS'backup'
p4180
S'1980'
p4181
sS'processor'
p4182
S'2443'
p4183
sS'researching'
p4184
S'5390'
p4185
sS'malfunction'
p4186
S'5756'
p4187
sS'child'
p4188
S'5145'
p4189
sS'variable'
p4190
S'2343'
p4191
sS'poly'
p4192
S'3296'
p4193
sS'nowadays'
p4194
S'3305'
p4195
sS'log'
p4196
S'1460'
p4197
sS'removing'
p4198
S'1813'
p4199
sS'lol'
p4200
S'2767'
p4201
sS'start'
p4202
S'373'
p4203
sS'stealth'
p4204
S'5805'
p4205
sS'cats'
p4206
S'5429'
p4207
sS'low'
p4208
S'539'
p4209
sS'lot'
p4210
S'313'
p4211
sS'pitches'
p4212
S'1655'
p4213
sS'metalic'
p4214
S'5283'
p4215
sS'pitched'
p4216
S'2324'
p4217
sS'podcast'
p4218
S'3362'
p4219
sS'cheapies'
p4220
S'5532'
p4221
sS'default'
p4222
S'3896'
p4223
sS'5/8'
p4224
S'1763'
p4225
sS'bucket'
p4226
S'4621'
p4227
sS'tones'
p4228
S'146'
p4229
sS'600'
p4230
S'2539'
p4231
sS'moved'
p4232
S'3033'
p4233
sS'sales'
p4234
S'1981'
p4235
sS'loops'
p4236
S'913'
p4237
sS'reliability'
p4238
S'2169'
p4239
sS'multi-effects'
p4240
S'5212'
p4241
sS'moves'
p4242
S'2628'
p4243
sS'cabinets'
p4244
S'2621'
p4245
sS'limborg'
p4246
S'5795'
p4247
sS'storage'
p4248
S'1137'
p4249
sS'modding'
p4250
S'3030'
p4251
sS'humbucker'
p4252
S'3311'
p4253
sS'poor'
p4254
S'1367'
p4255
sS'polar'
p4256
S'2344'
p4257
sS'60s'
p4258
S'3241'
p4259
sS'peak'
p4260
S'4675'
p4261
sS'suited'
p4262
S'1774'
p4263
sS'building'
p4264
S'232'
p4265
sS'chords'
p4266
S'580'
p4267
sS'3-4'
p4268
S'964'
p4269
sS'strings'
p4270
S'14'
p4271
sS'jazzmaster'
p4272
S'1005'
p4273
sS'splitting'
p4274
S'5445'
p4275
sS'month'
p4276
S'240'
p4277
sS'mp3'
p4278
S'2879'
p4279
sS'messy'
p4280
S'3381'
p4281
sS'carpet'
p4282
S'2300'
p4283
sS'fostex'
p4284
S'4490'
p4285
sS'jensen'
p4286
S'5288'
p4287
sS'voicing'
p4288
S'1591'
p4289
sS'superglue'
p4290
S'4753'
p4291
sS'screwdriver'
p4292
S'2689'
p4293
sS'verb'
p4294
S'3567'
p4295
sS'balancing'
p4296
S'2733'
p4297
sS'decide'
p4298
S'1420'
p4299
sS'securely'
p4300
S'2298'
p4301
sS'heaven'
p4302
S'3688'
p4303
sS'multi-effect'
p4304
S'3087'
p4305
sS'fence'
p4306
S'4519'
p4307
sS'enhancement'
p4308
S'3696'
p4309
sS'switchable'
p4310
S'5634'
p4311
sS'casual'
p4312
S'3118'
p4313
sS'shockmount'
p4314
S'3593'
p4315
sS'nano'
p4316
S'2617'
p4317
sS'investing'
p4318
S'5239'
p4319
sS'thickness'
p4320
S'668'
p4321
sS'learned'
p4322
S'351'
p4323
sS'edited'
p4324
S'4028'
p4325
sS'loose'
p4326
S'26'
p4327
sS'modify'
p4328
S'3179'
p4329
sS'tracks'
p4330
S'319'
p4331
sS'amplification'
p4332
S'3659'
p4333
sS'trunk'
p4334
S'3129'
p4335
sS'marring'
p4336
S'4518'
p4337
sS'strong'
p4338
S'327'
p4339
sS'colored'
p4340
S'3347'
p4341
sS'ahead'
p4342
S'2047'
p4343
sS'inspired'
p4344
S'4334'
p4345
sS'exceptionally'
p4346
S'2041'
p4347
sS'amount'
p4348
S'392'
p4349
sS'advertising'
p4350
S'3403'
p4351
sS'c-1'
p4352
S'3038'
p4353
sS'family'
p4354
S'2351'
p4355
sS'requiring'
p4356
S'2348'
p4357
sS'cosmetic'
p4358
S'3379'
p4359
sS'chunky'
p4360
S'1804'
p4361
sS'aimed'
p4362
S'5400'
p4363
sS'toys'
p4364
S'2140'
p4365
sS'conventional'
p4366
S'1877'
p4367
sS'flaws'
p4368
S'2097'
p4369
sS'takes'
p4370
S'331'
p4371
sS'overdubbing'
p4372
S'3029'
p4373
sS'turbo'
p4374
S'4800'
p4375
sS'surprisingly'
p4376
S'1259'
p4377
sS'instrumental'
p4378
S'4493'
p4379
sS'excuse'
p4380
S'1158'
p4381
sS'broke'
p4382
S'1969'
p4383
sS'7000'
p4384
S'5600'
p4385
sS'suction'
p4386
S'3527'
p4387
sS'mounted'
p4388
S'1716'
p4389
sS'producing'
p4390
S'3983'
p4391
sS'grill'
p4392
S'3950'
p4393
sS'sweeps'
p4394
S'4301'
p4395
sS'playable'
p4396
S'1002'
p4397
sS'history'
p4398
S'3464'
p4399
sS'pushes'
p4400
S'5030'
p4401
sS'pushed'
p4402
S'3244'
p4403
sS'phosphor'
p4404
S'3123'
p4405
sS'ukelele'
p4406
S'469'
p4407
sS'phrase'
p4408
S'5386'
p4409
sS'lacks'
p4410
S'2019'
p4411
sS'firmly'
p4412
S'1424'
p4413
sS'processors'
p4414
S'2404'
p4415
sS'utilize'
p4416
S'2676'
p4417
sS'stayed'
p4418
S'2569'
p4419
sS'menus'
p4420
S'4275'
p4421
sS'ft'
p4422
S'2978'
p4423
sS'fx'
p4424
S'3790'
p4425
sS'biyang'
p4426
S'4194'
p4427
sS'horizontal'
p4428
S'2466'
p4429
sS'fl'
p4430
S'5755'
p4431
sS'fm'
p4432
S'5055'
p4433
sS'workstation'
p4434
S'5312'
p4435
sS'laminate'
p4436
S'4056'
p4437
sS'documentation'
p4438
S'113'
p4439
sS'overnight'
p4440
S'4324'
p4441
sS'4/4'
p4442
S'3130'
p4443
sS'negligible'
p4444
S'4882'
p4445
sS'banks'
p4446
S'1470'
p4447
sS'inline'
p4448
S'1772'
p4449
sS'straplock'
p4450
S'3537'
p4451
sS'dream'
p4452
S'2073'
p4453
sS'feed'
p4454
S'3417'
p4455
sS'held'
p4456
S'587'
p4457
sS'committed'
p4458
S'3824'
p4459
sS'hell'
p4460
S'3378'
p4461
sS'hendrix'
p4462
S'3237'
p4463
sS'carpeted'
p4464
S'2911'
p4465
sS'overhead'
p4466
S'911'
p4467
sS'systems'
p4468
S'2182'
p4469
sS'finer'
p4470
S'3581'
p4471
sS'fool'
p4472
S'3364'
p4473
sS'evening'
p4474
S'2194'
p4475
sS'yo'
p4476
S'3616'
p4477
sS'ya'
p4478
S'3058'
p4479
sS'floating'
p4480
S'2033'
p4481
sS'anticipated'
p4482
S'238'
p4483
sS'foot'
p4484
S'140'
p4485
sS'ultex'
p4486
S'545'
p4487
sS'feet'
p4488
S'1046'
p4489
sS'occasions'
p4490
S'3754'
p4491
sS'payed'
p4492
S'2197'
p4493
sS'flubby'
p4494
S'1226'
p4495
sS'stopped'
p4496
S'2747'
p4497
sS'cleaners'
p4498
S'3133'
p4499
sS'heavy'
p4500
S'144'
p4501
sS'positioned'
p4502
S'1199'
p4503
sS'halen'
p4504
S'4979'
p4505
sS'event'
p4506
S'3556'
p4507
sS'hooray'
p4508
S'4265'
p4509
sS'trusty'
p4510
S'4211'
p4511
sS'kyser'
p4512
S'2071'
p4513
sS'sustain'
p4514
S'792'
p4515
sg3991
S'225'
p4516
sS'issue'
p4517
S'633'
p4518
sS'ass'
p4519
S'3594'
p4520
sS'pun'
p4521
S'1684'
p4522
sS'earns'
p4523
S'2156'
p4524
sS'bass'
p4525
S'298'
p4526
sS'dirt'
p4527
S'2154'
p4528
sS'labs'
p4529
S'5054'
p4530
sS'reason'
p4531
S'39'
p4532
sS'base'
p4533
S'662'
p4534
sS'brightest'
p4535
S'4644'
p4536
sS'ash'
p4537
S'5692'
p4538
sS'dip'
p4539
S'3876'
p4540
sS'terrible'
p4541
S'3591'
p4542
sS'terribly'
p4543
S'3587'
p4544
sS'american'
p4545
S'1768'
p4546
sS'expecting'
p4547
S'1499'
p4548
sS'daisy'
p4549
S'5052'
p4550
sS'heartbeat'
p4551
S'4031'
p4552
sS'sacrifice'
p4553
S'3558'
p4554
sS'knocking'
p4555
S'1490'
p4556
sS'arsenal'
p4557
S'2064'
p4558
sS'infinite'
p4559
S'3490'
p4560
sS'unexpected'
p4561
S'5123'
p4562
sS'effortless'
p4563
S'3465'
p4564
sS'warts'
p4565
S'2657'
p4566
sS'maple'
p4567
S'1152'
p4568
sS'station'
p4569
S'4841'
p4570
sS'fingerboards'
p4571
S'2514'
p4572
sS'selling'
p4573
S'3353'
p4574
sS'overdrive'
p4575
S'744'
p4576
sS'shifter'
p4577
S'3416'
p4578
sS'grew'
p4579
S'890'
p4580
sS'grey'
p4581
S'2640'
p4582
sS'squeaks'
p4583
S'5091'
p4584
sS'non-locking'
p4585
S'5636'
p4586
sS'kindle'
p4587
S'5815'
p4588
sS'deciding'
p4589
S'5317'
p4590
sS'wasnt'
p4591
S'3928'
p4592
sS'alongside'
p4593
S'609'
p4594
sS'randomly'
p4595
S'5584'
p4596
sS'steel-string'
p4597
S'3103'
p4598
sS'substantial'
p4599
S'1730'
p4600
sS'mooer'
p4601
S'956'
p4602
sS'cumbersome'
p4603
S'1070'
p4604
sS'option'
p4605
S'472'
p4606
sS'lid'
p4607
S'4818'
p4608
sS'ratings'
p4609
S'1083'
p4610
sS'lil'
p4611
S'310'
p4612
sS'lit'
p4613
S'1777'
p4614
sS'lip'
p4615
S'2577'
p4616
sS'useless'
p4617
S'1111'
p4618
sS'exl110'
p4619
S'4617'
p4620
sS'experienced'
p4621
S'1416'
p4622
sS'experiences'
p4623
S'4665'
p4624
sS'position'
p4625
S'1637'
p4626
sS'watt'
p4627
S'967'
p4628
sS'alpha'
p4629
S'4982'
p4630
sS'sturdy'
p4631
S'599'
p4632
sS'mobile'
p4633
S'2494'
p4634
sS'performances'
p4635
S'4118'
p4636
sS'snapping'
p4637
S'4674'
p4638
sS'clean'
p4639
S'120'
p4640
sS'rechargeable'
p4641
S'5458'
p4642
sS'tubes'
p4643
S'1842'
p4644
sS'humid'
p4645
S'4460'
p4646
sS'registers'
p4647
S'1224'
p4648
sS'top-notch'
p4649
S'3265'
p4650
sS'reminiscent'
p4651
S'5065'
p4652
sS'parameters'
p4653
S'243'
p4654
sS'duncan'
p4655
S'2849'
p4656
sS'justice'
p4657
S'4641'
p4658
sS'pretty'
p4659
S'128'
p4660
sS'king'
p4661
S'4516'
p4662
sS'trees'
p4663
S'4087'
p4664
sS'famous'
p4665
S'3697'
p4666
sS'feels'
p4667
S'105'
p4668
sS'3/4'
p4669
S'1024'
p4670
sS'strum'
p4671
S'3344'
p4672
sS'basement'
p4673
S'2411'
p4674
sS'combinations'
p4675
S'1924'
p4676
sS'3/8'
p4677
S'1883'
p4678
sS'duracell'
p4679
S'5640'
p4680
sS'underlying'
p4681
S'5622'
p4682
sS'hype'
p4683
S'3964'
p4684
sS'throwing'
p4685
S'1399'
p4686
sS'crackle'
p4687
S'5209'
p4688
sS'descriptions'
p4689
S'2420'
p4690
sS'protecting'
p4691
S'1154'
p4692
sS'close'
p4693
S'619'
p4694
sS'dampit'
p4695
S'5347'
p4696
sS'humidipaks'
p4697
S'4929'
p4698
sS'pictures'
p4699
S'2185'
p4700
sS'wow'
p4701
S'1454'
p4702
sS'won'
p4703
S'4315'
p4704
sS'conditions'
p4705
S'2834'
p4706
sS'pictured'
p4707
S'3560'
p4708
sS'missing'
p4709
S'901'
p4710
sS'line-in'
p4711
S'5558'
p4712
sS'spray'
p4713
S'2121'
p4714
sS'genre'
p4715
S'5313'
p4716
sS'zipper'
p4717
S'1698'
p4718
sS'useable'
p4719
S'1409'
p4720
sS'sensitive'
p4721
S'1722'
p4722
sS'anon'
p4723
S'5816'
p4724
sS'guitar/bass'
p4725
S'4906'
p4726
sS'buzz'
p4727
S'2789'
p4728
sS'protector'
p4729
S'3105'
p4730
sS'cuts'
p4731
S'1233'
p4732
sS'likes'
p4733
S'2226'
p4734
sS'linux'
p4735
S'3703'
p4736
sS'steels'
p4737
S'2490'
p4738
sS'rebate'
p4739
S'5673'
p4740
sS'muting'
p4741
S'1268'
p4742
sS'damp'
p4743
S'5582'
p4744
sS'describes'
p4745
S'5493'
p4746
sS'damn'
p4747
S'4048'
p4748
sS'maintenance'
p4749
S'1780'
p4750
sS'collected'
p4751
S'4613'
p4752
sS'territory'
p4753
S'1238'
p4754
sS'empty'
p4755
S'5208'
p4756
sS'alto'
p4757
S'5653'
p4758
sS'lived'
p4759
S'4692'
p4760
sS'partly'
p4761
S'4192'
p4762
sS'packs'
p4763
S'79'
p4764
sS'crack'
p4765
S'505'
p4766
sS'imac'
p4767
S'5465'
p4768
sS'lives'
p4769
S'4658'
p4770
sS'dialing'
p4771
S'4534'
p4772
sS'juice'
p4773
S'5551'
p4774
sS'dimarzio'
p4775
S'3091'
p4776
sS'pace'
p4777
S'1646'
p4778
sS'accidently'
p4779
S'841'
p4780
sS'smart'
p4781
S'3340'
p4782
sS'guide'
p4783
S'3740'
p4784
sS'loop'
p4785
S'960'
p4786
sS'pack'
p4787
S'72'
p4788
sS'costly'
p4789
S'3473'
p4790
sS'petal'
p4791
S'5185'
p4792
sS'reads'
p4793
S'5580'
p4794
sS'loosened'
p4795
S'3251'
p4796
sS'ready'
p4797
S'862'
p4798
sS'earthwood'
p4799
S'5557'
p4800
sS'potentiometers'
p4801
S'4206'
p4802
sS'sliders'
p4803
S'4595'
p4804
sS'grand'
p4805
S'3613'
p4806
sS'modification'
p4807
S'740'
p4808
sS'dime'
p4809
S'5140'
p4810
sS'bonus'
p4811
S'1029'
p4812
sS'000'
p4813
S'2461'
p4814
sS'user'
p4815
S'464'
p4816
sS'rockabilly'
p4817
S'3395'
p4818
sS'amplug'
p4819
S'4543'
p4820
sS'assortment'
p4821
S'4002'
p4822
sS'conveniently'
p4823
S'4646'
p4824
sS'ziplock'
p4825
S'3643'
p4826
sS'increases'
p4827
S'1292'
p4828
sS'grind'
p4829
S'4065'
p4830
sS'2gb'
p4831
S'5514'
p4832
sS'berhinger'
p4833
S'3939'
p4834
sS'consistency'
p4835
S'4429'
p4836
sS'mid-range'
p4837
S'3491'
p4838
sS'reverbs'
p4839
S'3098'
p4840
sS'distances'
p4841
S'1463'
p4842
sS'chore'
p4843
S'1625'
p4844
sS'chord'
p4845
S'3434'
p4846
sS'powering'
p4847
S'1374'
p4848
sS'reviewed'
p4849
S'2487'
p4850
sS'reviewer'
p4851
S'2299'
p4852
sS'pre-amp'
p4853
S'3002'
p4854
sS'guaranteed'
p4855
S'603'
p4856
sS'remaining'
p4857
S'5238'
p4858
sS'march'
p4859
S'4746'
p4860
sS'lacking'
p4861
S'2309'
p4862
sS'evaluate'
p4863
S'5569'
p4864
sS'game'
p4865
S'4347'
p4866
sS'tunings'
p4867
S'3557'
p4868
sS'signal'
p4869
S'935'
p4870
sS'popular'
p4871
S'2268'
p4872
sS'neumann'
p4873
S'5806'
p4874
sS'saddles'
p4875
S'3173'
p4876
sS'restrung'
p4877
S'1489'
p4878
sS'mustang'
p4879
S'2594'
p4880
sS'delivered'
p4881
S'1602'
p4882
sS'describing'
p4883
S'2159'
p4884
sS'pounding'
p4885
S'4041'
p4886
sS'fishman'
p4887
S'3789'
p4888
sS'minimal'
p4889
S'3460'
p4890
sS'rub'
p4891
S'1102'
p4892
sS'booklet'
p4893
S'4700'
p4894
sS'processing'
p4895
S'3040'
p4896
sS'cushioning'
p4897
S'3194'
p4898
sS'snake'
p4899
S'2508'
p4900
sS'stem'
p4901
S'1561'
p4902
sS'jazzy'
p4903
S'2135'
p4904
sS'step'
p4905
S'495'
p4906
sS'negatives'
p4907
S'2817'
p4908
sS'lasts'
p4909
S'2566'
p4910
sS'subtract'
p4911
S'4936'
p4912
sS'shine'
p4913
S'1483'
p4914
sS'faith'
p4915
S'4059'
p4916
sS'wouldnt'
p4917
S'3371'
p4918
sS'hinge'
p4919
S'1962'
p4920
sS'bassman'
p4921
S'1216'
p4922
sS'idk'
p4923
S'4186'
p4924
sS'wicker'
p4925
S'810'
p4926
sS'classics'
p4927
S'803'
p4928
sS'shiny'
p4929
S'60'
p4930
sS'block'
p4931
S'1515'
p4932
sS'miracles'
p4933
S'5109'
p4934
sS'visit'
p4935
S'5236'
p4936
sS'nonsense'
p4937
S'1754'
p4938
sS'rolls'
p4939
S'3927'
p4940
sS'smells'
p4941
S'1162'
p4942
sS'placing'
p4943
S'1958'
p4944
sS'palomino'
p4945
S'5790'
p4946
sS'manufacture'
p4947
S'1884'
p4948
sS'sizzle'
p4949
S'4950'
p4950
sS'registered'
p4951
S'2555'
p4952
sS'properly'
p4953
S'1298'
p4954
sS'reed'
p4955
S'1800'
p4956
sS'injection'
p4957
S'1180'
p4958
sS'dull'
p4959
S'2886'
p4960
sS'info'
p4961
S'1579'
p4962
sS'intuitive'
p4963
S'2887'
p4964
sS'circuits'
p4965
S'5377'
p4966
sS'accustomed'
p4967
S'3067'
p4968
sS'tu-3'
p4969
S'1344'
p4970
sS'chromes'
p4971
S'4651'
p4972
sS'schecter'
p4973
S'2693'
p4974
sS'flush'
p4975
S'2690'
p4976
sS'cotton'
p4977
S'3857'
p4978
sS'amounts'
p4979
S'788'
p4980
sS'application'
p4981
S'3647'
p4982
sS'-the'
p4983
S'5199'
p4984
sS'electrical'
p4985
S'2060'
p4986
sS're-string'
p4987
S'27'
p4988
sS'b/c'
p4989
S'5058'
p4990
sS'draw'
p4991
S'3085'
p4992
sS'korg'
p4993
S'559'
p4994
sS'drag'
p4995
S'3258'
p4996
sS'structure'
p4997
S'5362'
p4998
sS'independently'
p4999
S'4542'
p5000
sS'practically'
p5001
S'3734'
p5002
sS'blend'
p5003
S'2884'
p5004
sS'required'
p5005
S'2147'
p5006
sS'youtube'
p5007
S'130'
p5008
sS'depth'
p5009
S'927'
p5010
sS'requires'
p5011
S'1955'
p5012
sS'sounded'
p5013
S'1048'
p5014
sS'gt'
p5015
S'1113'
p5016
sS'tweeter'
p5017
S'5620'
p5018
sS'gc'
p5019
S'1361'
p5020
sS'gb'
p5021
S'3326'
p5022
sS'compact'
p5023
S'281'
p5024
sS'goosenecks'
p5025
S'2365'
p5026
sS'bx5'
p5027
S'5625'
p5028
sS'suits'
p5029
S'2926'
p5030
sS'shack'
p5031
S'5666'
p5032
sS'friendly'
p5033
S'848'
p5034
sS'g7'
p5035
S'4340'
p5036
sS'g2'
p5037
S'4393'
p5038
sS'ukulele'
p5039
S'3016'
p5040
sS'uni-vibe'
p5041
S'5633'
p5042
sS'wave'
p5043
S'3097'
p5044
sS'rattling'
p5045
S'4451'
p5046
sS'telling'
p5047
S'667'
p5048
sS'tm-40'
p5049
S'4558'
p5050
sS'tonal'
p5051
S'191'
p5052
sS'stiff'
p5053
S'1050'
p5054
sS'positions'
p5055
S'2816'
p5056
sS'button'
p5057
S'152'
p5058
sS'michael'
p5059
S'5073'
p5060
sS'configurations'
p5061
S'4603'
p5062
sS'picker'
p5063
S'5133'
p5064
sS'compensated'
p5065
S'4103'
p5066
sS'jump'
p5067
S'2902'
p5068
sS'sm58s'
p5069
S'4825'
p5070
sS'muffs'
p5071
S'5762'
p5072
sS'picked'
p5073
S'2110'
p5074
sS'download'
p5075
S'1469'
p5076
sS'okina'
p5077
S'5810'
p5078
sS'click'
p5079
S'168'
p5080
sS'plays'
p5081
S'838'
p5082
sS'wallet'
p5083
S'5101'
p5084
sS'marketed'
p5085
S'5188'
p5086
sS'cell'
p5087
S'4879'
p5088
sS'experiment'
p5089
S'672'
p5090
sS'poles'
p5091
S'5442'
p5092
sS'pristine'
p5093
S'3531'
p5094
sS'values'
p5095
S'3316'
p5096
sS'stance'
p5097
S'4107'
p5098
sS'focused'
p5099
S'4952'
p5100
sS'straplocks'
p5101
S'4550'
p5102
sS'convert'
p5103
S'702'
p5104
sS'blackface'
p5105
S'5661'
p5106
sS'products'
p5107
S'147'
p5108
sS'win'
p5109
S'2038'
p5110
sS'manage'
p5111
S'3637'
p5112
sS'apprehensive'
p5113
S'3902'
p5114
sS'buildup'
p5115
S'5504'
p5116
sS'gimmick'
p5117
S'3752'
p5118
sS'singing'
p5119
S'443'
p5120
sS'manipulate'
p5121
S'5253'
p5122
sS'strapped'
p5123
S'2866'
p5124
sS'crap'
p5125
S'1338'
p5126
sS'remains'
p5127
S'1732'
p5128
sS'camera'
p5129
S'4600'
p5130
sS'noisy'
p5131
S'1503'
p5132
sS'popped'
p5133
S'1197'
p5134
sS'1/4'
p5135
S'2304'
p5136
sS'1/3'
p5137
S'165'
p5138
sS'1/2'
p5139
S'2705'
p5140
sS'started'
p5141
S'2050'
p5142
sS'visibility'
p5143
S'3778'
p5144
sS'1/8'
p5145
S'2929'
p5146
sS'starter'
p5147
S'1003'
p5148
sS'socket'
p5149
S'2815'
p5150
sS'ride'
p5151
S'2830'
p5152
sS'meet'
p5153
S'881'
p5154
sS'windscreens'
p5155
S'5304'
p5156
sS'drops'
p5157
S'4239'
p5158
sS'spyder'
p5159
S'5791'
p5160
sS'control'
p5161
S'1064'
p5162
sS'allowed'
p5163
S'685'
p5164
sS'pulling'
p5165
S'1751'
p5166
sS'wonderful'
p5167
S'119'
p5168
sS'hesitate'
p5169
S'1605'
p5170
sS'defective'
p5171
S'2329'
p5172
sS'vibe'
p5173
S'3293'
p5174
sS'arrangement'
p5175
S'2928'
p5176
sS'located'
p5177
S'5579'
p5178
sS'elliptical'
p5179
S'2851'
p5180
sS'circular'
p5181
S'4442'
p5182
sS'fatigue'
p5183
S'1251'
p5184
sS'graphtech'
p5185
S'4607'
p5186
sS'engineering'
p5187
S'3387'
p5188
sS'capsule'
p5189
S'5688'
p5190
sS'scoop'
p5191
S'3377'
p5192
sS'a/d'
p5193
S'5684'
p5194
sS'a/c'
p5195
S'5516'
p5196
sS'a/b'
p5197
S'3471'
p5198
sS'competing'
p5199
S'5628'
p5200
sS'including'
p5201
S'2456'
p5202
sS'hums'
p5203
S'5677'
p5204
sS'mentioned'
p5205
S'99'
p5206
sS'brittle'
p5207
S'4086'
p5208
sS'xcg4'
p5209
S'2152'
p5210
sS'outer'
p5211
S'1271'
p5212
sS'slinkies'
p5213
S'4965'
p5214
sS'articulation'
p5215
S'3673'
p5216
sS'surrounds'
p5217
S'5480'
p5218
sS'auto'
p5219
S'3784'
p5220
sS'hands'
p5221
S'33'
p5222
sS'front'
p5223
S'53'
p5224
sS'handy'
p5225
S'452'
p5226
sS'mods'
p5227
S'3505'
p5228
sS'muff'
p5229
S'796'
p5230
sS'mode'
p5231
S'263'
p5232
sS'promises'
p5233
S'4927'
p5234
sS'soften'
p5235
S'5226'
p5236
sS'chunk'
p5237
S'3795'
p5238
sS'700'
p5239
S'4039'
p5240
sS'bluetooth'
p5241
S'5432'
p5242
sS'exceeded'
p5243
S'4221'
p5244
sS'special'
p5245
S'2287'
p5246
sS'tunner'
p5247
S'3031'
p5248
sS'entertainment'
p5249
S'4863'
p5250
sS'confess'
p5251
S'3553'
p5252
sS'exp16s'
p5253
S'5602'
p5254
sS'trashy'
p5255
S'3945'
p5256
sS'undo'
p5257
S'5718'
p5258
sS'70s'
p5259
S'3242'
p5260
sS'completely'
p5261
S'999'
p5262
sS'corrosion'
p5263
S'3281'
p5264
sS'elastic'
p5265
S'1426'
p5266
sS"'captain"
p5267
S'5074'
p5268
sS'route'
p5269
S'5190'
p5270
sS'florida'
p5271
S'4253'
p5272
sS'timer'
p5273
S'4201'
p5274
sS'times'
p5275
S'814'
p5276
sS'shred'
p5277
S'3844'
p5278
sS'austin'
p5279
S'5453'
p5280
sS'mad'
p5281
S'4657'
p5282
sS'soldered'
p5283
S'3965'
p5284
sS'evans'
p5285
S'4392'
p5286
sS'swapped'
p5287
S'2610'
p5288
sS'powerful'
p5289
S'2040'
p5290
sS'wayyy'
p5291
S'1572'
p5292
sS'eminence'
p5293
S'2973'
p5294
sS'precisely'
p5295
S'1721'
p5296
sS'quality'
p5297
S'69'
p5298
sS'durable'
p5299
S'172'
p5300
sS'attach'
p5301
S'436'
p5302
sS'attack'
p5303
S'1323'
p5304
sS'wrapped'
p5305
S'3579'
p5306
sS'perfectly'
p5307
S'62'
p5308
sS'final'
p5309
S'2341'
p5310
sS'prone'
p5311
S'3217'
p5312
sS'2-3'
p5313
S'78'
p5314
sS'cutaway'
p5315
S'5098'
p5316
sS"d'addarios"
p5317
S'3889'
p5318
sS'lists'
p5319
S'5460'
p5320
sS'chemicals'
p5321
S'5793'
p5322
sS'bassist'
p5323
S'4570'
p5324
sS'dyna'
p5325
S'4197'
p5326
sS'fuzzy'
p5327
S'5207'
p5328
sS'endpin'
p5329
S'4712'
p5330
sS'overwhelming'
p5331
S'805'
p5332
sS'masking'
p5333
S'4896'
p5334
sS'updating'
p5335
S'4899'
p5336
sS'neck'
p5337
S'636'
p5338
sS'unboxed'
p5339
S'5588'
p5340
sS'yrs'
p5341
S'965'
p5342
sS'5-string'
p5343
S'4636'
p5344
sS'bed'
p5345
S'3483'
p5346
sS'bare'
p5347
S'2276'
p5348
sS'providing'
p5349
S'2802'
p5350
sS'bet'
p5351
S'2831'
p5352
sS'drunk'
p5353
S'4601'
p5354
sS'2014'
p5355
S'3686'
p5356
sS'lightly'
p5357
S'1220'
p5358
sS'tabs'
p5359
S'2072'
p5360
sS'beefy'
p5361
S'4740'
p5362
sS'sings'
p5363
S'5117'
p5364
sS'microphone'
p5365
S'477'
p5366
sS'purchasing'
p5367
S'36'
p5368
sS'instance'
p5369
S'4171'
p5370
sS'grounding'
p5371
S'4781'
p5372
sS'mileage'
p5373
S'4115'
p5374
sS'plugging'
p5375
S'1276'
p5376
sS'connected'
p5377
S'542'
p5378
sS'hi-hat'
p5379
S'1920'
p5380
sS'64-bit'
p5381
S'227'
p5382
sS'stereo'
p5383
S'2428'
p5384
sS'sg'
p5385
S'4455'
p5386
sS'upset'
p5387
S'649'
p5388
sS'construction'
p5389
S'629'
p5390
sS'impression'
p5391
S'1916'
p5392
sS'indoor'
p5393
S'3991'
p5394
sS'crate'
p5395
S'3566'
p5396
sS'12s'
p5397
S'4578'
p5398
sS'12v'
p5399
S'4480'
p5400
sS'based'
p5401
S'3008'
p5402
sS'unfinished'
p5403
S'3645'
p5404
sS'earned'
p5405
S'2388'
p5406
sS'winner'
p5407
S'2874'
p5408
sS'brighten'
p5409
S'5321'
p5410
sS'brighter'
p5411
S'2491'
p5412
sS'lightest'
p5413
S'5777'
p5414
sS'bases'
p5415
S'3561'
p5416
sS'fuel'
p5417
S'3675'
p5418
sS'achieve'
p5419
S'2396'
p5420
sS'six-string'
p5421
S'1128'
p5422
sS'120'
p5423
S'4162'
p5424
sS'joint'
p5425
S'441'
p5426
sS'125'
p5427
S'5565'
p5428
sS'buyer'
p5429
S'3155'
p5430
sS'simpler'
p5431
S'437'
p5432
sS'endless'
p5433
S'908'
p5434
sS'gray'
p5435
S'5586'
p5436
sS'shy'
p5437
S'2843'
p5438
sS'tuned'
p5439
S'626'
p5440
sS'processed'
p5441
S'4734'
p5442
sS'tunes'
p5443
S'1893'
p5444
sS'tuner'
p5445
S'151'
p5446
sS'grab'
p5447
S'984'
p5448
sS'mixcraft'
p5449
S'3047'
p5450
sS'hardwood'
p5451
S'3291'
p5452
sS'pitch'
p5453
S'869'
p5454
sS'operates'
p5455
S'4011'
p5456
sS'legacy'
p5457
S'4092'
p5458
sS'powder'
p5459
S'2261'
p5460
sS'overtones'
p5461
S'2964'
p5462
sS'nightmare'
p5463
S'3831'
p5464
sS'tend'
p5465
S'1455'
p5466
sS'written'
p5467
S'4986'
p5468
sS'joyo'
p5469
S'1595'
p5470
sS'correctly'
p5471
S'2743'
p5472
sS'lug'
p5473
S'2081'
p5474
sS'comparable'
p5475
S'3954'
p5476
sS'semi-tones'
p5477
S'4995'
p5478
sS'zager'
p5479
S'5022'
p5480
sS'interfere'
p5481
S'3621'
p5482
sS'screamers'
p5483
S'5367'
p5484
sS'kicking'
p5485
S'4915'
p5486
sS'key'
p5487
S'651'
p5488
sS'precious'
p5489
S'2867'
p5490
sS'bendable'
p5491
S'5113'
p5492
sS'hits'
p5493
S'4949'
p5494
sS'limits'
p5495
S'5214'
p5496
sS'career'
p5497
S'5757'
p5498
sS'aqua'
p5499
S'5162'
p5500
sS'admit'
p5501
S'1315'
p5502
sS'torn'
p5503
S'3774'
p5504
sS'8211'
p5505
S'4522'
p5506
sS'tuesday'
p5507
S'5394'
p5508
sS'harmonic'
p5509
S'3772'
p5510
sS'8217'
p5511
S'4523'
p5512
sS'8216'
p5513
S'4527'
p5514
sS'invisible'
p5515
S'1623'
p5516
sS'harmonix'
p5517
S'3096'
p5518
sS'quit'
p5519
S'1667'
p5520
sS'yay'
p5521
S'5410'
p5522
sS'addition'
p5523
S'809'
p5524
sS'cent'
p5525
S'4831'
p5526
sS'slowly'
p5527
S'3407'
p5528
sS'treat'
p5529
S'1532'
p5530
sS'isolating'
p5531
S'2650'
p5532
sS'shoulders'
p5533
S'4251'
p5534
sS'circus'
p5535
S'5075'
p5536
sS'controlled'
p5537
S'439'
p5538
sS'guitarlele'
p5539
S'5578'
p5540
sS'octive'
p5541
S'5798'
p5542
sS'controller'
p5543
S'2959'
p5544
sS'kicks'
p5545
S'4166'
p5546
sS'license'
p5547
S'2590'
p5548
sS'harder'
p5549
S'1492'
p5550
sS'brainer'
p5551
S'4957'
p5552
sS'owns'
p5553
S'4015'
p5554
sS'haller'
p5555
S'5072'
p5556
sS"'65"
p5557
S'2044'
p5558
sS'demo'
p5559
S'1978'
p5560
sS'coating'
p5561
S'2215'
p5562
sS'surface'
p5563
S'554'
p5564
sS'bucks'
p5565
S'292'
p5566
sS'capture'
p5567
S'2355'
p5568
sS'podcasting'
p5569
S'4964'
p5570
sS'generic'
p5571
S'4368'
p5572
sS'harmonies'
p5573
S'5218'
p5574
sS'speaker'
p5575
S'270'
p5576
sS'party'
p5577
S'4517'
p5578
sS'experimented'
p5579
S'1952'
p5580
sS'absorb'
p5581
S'4445'
p5582
sS'forgotten'
p5583
S'5262'
p5584
sS'frequently'
p5585
S'1824'
p5586
sS'weld'
p5587
S'5268'
p5588
sS'reflection'
p5589
S'5235'
p5590
sS'modeled'
p5591
S'122'
p5592
sS'riff'
p5593
S'5455'
p5594
sS'mixers'
p5595
S'2357'
p5596
sS'modeler'
p5597
S'2620'
p5598
sS'restore'
p5599
S'5451'
p5600
sS'taller'
p5601
S'1440'
p5602
sS'accurate'
p5603
S'295'
p5604
sS'43'
p5605
S'5646'
p5606
sS'sources'
p5607
S'2601'
p5608
sS'nitrocellulose'
p5609
S'5279'
p5610
sS'40'
p5611
S'751'
p5612
sS'advertised'
p5613
S'899'
p5614
sS'skill'
p5615
S'380'
p5616
sS'battery'
p5617
S'844'
p5618
sS'extends'
p5619
S'4630'
p5620
sS'accomodate'
p5621
S'3744'
p5622
sS'homework'
p5623
S'5325'
p5624
sS'sonic'
p5625
S'3555'
p5626
sS'ample'
p5627
S'2746'
p5628
sS'power-grip'
p5629
S'4549'
p5630
sS'loss'
p5631
S'1586'
p5632
sS'lost'
p5633
S'1252'
p5634
sS'sizes'
p5635
S'2564'
p5636
sS'fingerprints'
p5637
S'1815'
p5638
sS'candy'
p5639
S'5255'
p5640
sS'sized'
p5641
S'407'
p5642
sS'lose'
p5643
S'2200'
p5644
sS'setups'
p5645
S'1108'
p5646
sS'warmed'
p5647
S'5525'
p5648
sS'warmer'
p5649
S'2605'
p5650
sS'liking'
p5651
S'3348'
p5652
sS'leery'
p5653
S'1942'
p5654
sS'competitor'
p5655
S'4894'
p5656
sS'broad'
p5657
S'3148'
p5658
sS'cradle'
p5659
S'3861'
p5660
sS'fretted'
p5661
S'3888'
p5662
sS'limitations'
p5663
S'2799'
p5664
sS'coated'
p5665
S'568'
p5666
sS'inaccurate'
p5667
S'2427'
p5668
sS'reaching'
p5669
S'2856'
p5670
sS'bundle'
p5671
S'2292'
p5672
sS'offset'
p5673
S'2078'
p5674
sS'slap-back'
p5675
S'3327'
p5676
sS'cleans'
p5677
S'1829'
p5678
sS'recognized'
p5679
S'514'
p5680
sS'compatible'
p5681
S'2029'
p5682
sS'celluloid'
p5683
S'2529'
p5684
sS'recognizes'
p5685
S'5200'
p5686
sS'wedgie'
p5687
S'3763'
p5688
sS'equally'
p5689
S'4336'
p5690
sS'soundstage'
p5691
S'5475'
p5692
sS'h2'
p5693
S'5146'
p5694
sS'h1'
p5695
S'4910'
p5696
sS'h4'
p5697
S'5187'
p5698
sS'artists'
p5699
S'2450'
p5700
sS'pointless'
p5701
S'2957'
p5702
sS'utility'
p5703
S'4759'
p5704
sS'additional'
p5705
S'3577'
p5706
sS'noticed'
p5707
S'256'
p5708
sS'hz'
p5709
S'5001'
p5710
sS'north'
p5711
S'5356'
p5712
sS'hp'
p5713
S'5189'
p5714
sS'triangular'
p5715
S'4670'
p5716
sS'subjective'
p5717
S'2740'
p5718
sS'neutral'
p5719
S'5474'
p5720
sS'gain'
p5721
S'125'
p5722
sS'ha'
p5723
S'4733'
p5724
sS'eat'
p5725
S'1318'
p5726
sS'hd'
p5727
S'46'
p5728
sS'converter'
p5729
S'2059'
p5730
sS'limit'
p5731
S'4320'
p5732
sS'cello'
p5733
S'5004'
p5734
sS'piece'
p5735
S'1023'
p5736
sS'display'
p5737
S'1074'
p5738
sS'mackie'
p5739
S'4971'
p5740
sS'reservations'
p5741
S'5267'
p5742
sS'universal'
p5743
S'3822'
p5744
sS'penny'
p5745
S'1992'
p5746
sS'twist'
p5747
S'501'
p5748
sS'beats'
p5749
S'1724'
p5750
sS'eric'
p5751
S'3725'
p5752
sS'functions'
p5753
S'2575'
p5754
sS'meteor'
p5755
S'5434'
p5756
sS'humidify'
p5757
S'4934'
p5758
sS'jamming'
p5759
S'4653'
p5760
sS'star'
p5761
S'596'
p5762
sS'stay'
p5763
S'1412'
p5764
sS'foil'
p5765
S'5613'
p5766
sS'additionally'
p5767
S'1376'
p5768
sS'friends'
p5769
S'2179'
p5770
sS'martin'
p5771
S'820'
p5772
sS'portion'
p5773
S'2370'
p5774
sS'extras'
p5775
S'3053'
p5776
sS'dynamic'
p5777
S'2183'
p5778
sS'muffling'
p5779
S'1901'
p5780
sS'buddy'
p5781
S'4895'
p5782
sS'swap'
p5783
S'2944'
p5784
sS'aux'
p5785
S'2113'
p5786
sS'bulkier'
p5787
S'5403'
p5788
sS'onstage'
p5789
S'2857'
p5790
sS'saver'
p5791
S'3313'
p5792
sS'updated'
p5793
S'4437'
p5794
sS'activation'
p5795
S'5335'
p5796
sS'connects'
p5797
S'4079'
p5798
sS'blackheart'
p5799
S'5811'
p5800
sS'updates'
p5801
S'235'
p5802
sS'affect'
p5803
S'1291'
p5804
sS'sleek'
p5805
S'4121'
p5806
sS'vast'
p5807
S'3653'
p5808
sS'skills'
p5809
S'3728'
p5810
sS'companies'
p5811
S'2777'
p5812
sS'solution'
p5813
S'434'
p5814
sS'convenience'
p5815
S'4844'
p5816
sS'enhance'
p5817
S'1642'
p5818
sS'force'
p5819
S'2893'
p5820
sS'gator'
p5821
S'1939'
p5822
sS'winder'
p5823
S'325'
p5824
sS'10s'
p5825
S'5425'
p5826
sS'asio'
p5827
S'5437'
p5828
sS'preferences'
p5829
S'4049'
p5830
sS'integrity'
p5831
S'3513'
p5832
sS'orchestra'
p5833
S'4743'
p5834
sS'lights'
p5835
S'1682'
p5836
sS'sideways'
p5837
S'2841'
p5838
sS'tips'
p5839
S'3062'
p5840
sS'med'
p5841
S'3342'
p5842
sS'niche'
p5843
S'4931'
p5844
sS'screams'
p5845
S'4842'
p5846
sS'meh'
p5847
S'1717'
p5848
sS'met'
p5849
S'1944'
p5850
sS'4-star'
p5851
S'5605'
p5852
sS'active'
p5853
S'268'
p5854
sS'100'
p5855
S'654'
p5856
sS'cardboard'
p5857
S'2271'
p5858
sS'dry'
p5859
S'1797'
p5860
sS'jams'
p5861
S'1304'
p5862
sS'rests'
p5863
S'2916'
p5864
sS'bumps'
p5865
S'3907'
p5866
sS'buckles'
p5867
S'3193'
p5868
sS'credit'
p5869
S'4396'
p5870
sS'suitable'
p5871
S'4833'
p5872
sS'whatnot'
p5873
S'1118'
p5874
sS'specifics'
p5875
S'5812'
p5876
sS'jackets'
p5877
S'3548'
p5878
sS'counts'
p5879
S'3149'
p5880
sS'army'
p5881
S'3390'
p5882
sS'arms'
p5883
S'1196'
p5884
sS'thinnest'
p5885
S'2572'
p5886
sS'tele'
p5887
S'764'
p5888
sS'recommend'
p5889
g4002
sS'survive'
p5890
S'818'
p5891
sS'type'
p5892
S'692'
p5893
sS'wary'
p5894
S'5694'
p5895
sS'wart'
p5896
S'3325'
p5897
sS'warn'
p5898
S'5524'
p5899
sS'warm'
p5900
S'922'
p5901
sS'adult'
p5902
S'3668'
p5903
sS'1700ma'
p5904
S'5206'
p5905
sS'tepper'
p5906
S'5606'
p5907
sS'setup'
p5908
S'265'
p5909
sS"mic'ing"
p5910
S'4735'
p5911
sS'spec'
p5912
S'3275'
p5913
sS'movies'
p5914
S'4258'
p5915
sS'2x12'
p5916
S'2636'
p5917
sS'programming'
p5918
S'4540'
p5919
sS'skype'
p5920
S'5168'
p5921
sS'honey'
p5922
S'887'
p5923
sS'amazing'
p5924
S'114'
p5925
sS'answer'
p5926
S'3622'
p5927
sS'faulty'
p5928
S'2062'
p5929
sS'config'
p5930
S'4128'
p5931
sS'massive'
p5932
S'1991'
p5933
sS"d'addario"
p5934
S'565'
p5935
sS'replacing'
p5936
S'176'
p5937
sS'manuals'
p5938
S'5607'
p5939
sS'curiosity'
p5940
S'3338'
p5941
sS'purchase'
p5942
S'699'
p5943
sS'attempt'
p5944
S'4108'
p5945
sS'recieved'
p5946
S'3057'
p5947
sS'stand-alone'
p5948
S'5116'
p5949
sS'maintain'
p5950
S'2753'
p5951
sS'waited'
p5952
S'2798'
p5953
sS'operate'
p5954
S'2570'
p5955
sS'deck'
p5956
S'2794'
p5957
sS'keyboard'
p5958
S'282'
p5959
sS'responsive'
p5960
S'1820'
p5961
sS'harmonica'
p5962
S'3357'
p5963
sS'personal'
p5964
S'427'
p5965
sS'crew'
p5966
S'5488'
p5967
sS'sprays'
p5968
S'5494'
p5969
sS'harmonics'
p5970
S'383'
p5971
sS'weeks'
p5972
S'1166'
p5973
sS'apogee'
p5974
S'4238'
p5975
sS'overcome'
p5976
S'3545'
p5977
sS'dm80'
p5978
S'5820'
p5979
sS'combination'
p5980
S'278'
p5981
sS'workout'
p5982
S'4479'
p5983
sS'mxr'
p5984
S'958'
p5985
sS'mxl'
p5986
S'2223'
p5987
sS'brightness'
p5988
S'3185'
p5989
sS'mounts'
p5990
S'1514'
p5991
sS'acoustic'
p5992
S'126'
p5993
sS'bone'
p5994
S'3271'
p5995
sS'luck'
p5996
S'2068'
p5997
sS'inserts'
p5998
S'4778'
p5999
sS'durability'
p6000
S'531'
p6001
sS'taught'
p6002
S'4751'
p6003
sS'forgot'
p6004
S'2212'
p6005
sS'collector'
p6006
S'2010'
p6007
sS'enclosure'
p6008
S'5339'
p6009
sS'realtime'
p6010
S'5799'
p6011
sS'sparkly'
p6012
S'5243'
p6013
sS'content'
p6014
S'5395'
p6015
sS'sparkle'
p6016
S'4499'
p6017
sS'surprise'
p6018
S'1436'
p6019
sS'mando'
p6020
S'3825'
p6021
sS'grease'
p6022
S'1832'
p6023
sS'whammy'
p6024
S'3722'
p6025
sS'struggle'
p6026
S'1437'
p6027
sS'backlit'
p6028
S'2961'
p6029
sS'greasy'
p6030
S'3761'
p6031
sS'starts'
p6032
S'2285'
p6033
sS'signature'
p6034
S'4302'
p6035
sS'arrived'
p6036
S'845'
p6037
sS'loud'
p6038
S'179'
p6039
sS'bite'
p6040
S'4981'
p6041
sS'cleaning'
p6042
S'2512'
p6043
sS'hartke'
p6044
S'3916'
p6045
sS'features'
p6046
S'148'
p6047
sS'grade'
p6048
S'2775'
p6049
sS'hook'
p6050
S'1053'
p6051
sS'warped'
p6052
S'2126'
p6053
sS'downside'
p6054
S'782'
p6055
sS'plugs'
p6056
S'1012'
p6057
sS'4x12'
p6058
S'3229'
p6059
sS'girls'
p6060
S'5132'
p6061
sS'twisted'
p6062
S'2937'
p6063
sS'cabling'
p6064
S'4259'
p6065
sS'bouncing'
p6066
S'4938'
p6067
sS'swells'
p6068
S'5505'
p6069
sS'stocking'
p6070
S'4244'
p6071
sS'distance'
p6072
S'1317'
p6073
sS'1x12'
p6074
S'655'
p6075
sS'princeton'
p6076
S'3355'
p6077
sS'enabled'
p6078
S'5534'
p6079
sS'matter'
p6080
S'581'
p6081
sS'street'
p6082
S'3685'
p6083
sS'silly'
p6084
S'1607'
p6085
sS'enables'
p6086
S'5784'
p6087
sS'mini'
p6088
S'897'
p6089
sS'rattle'
p6090
S'1389'
p6091
sS'modern'
p6092
S'1837'
p6093
sS'mind'
p6094
S'13'
p6095
sS'mine'
p6096
S'315'
p6097
sS'acoustic/electric'
p6098
S'2803'
p6099
sS'sounding'
p6100
S'355'
p6101
sS'mint'
p6102
S'5603'
p6103
sS'tells'
p6104
S'3607'
p6105
sS'floppy'
p6106
S'2571'
p6107
sS'fitting'
p6108
S'1431'
p6109
sS'niece'
p6110
S'5507'
p6111
sS'clapton'
p6112
S'2683'
p6113
sS'regular'
p6114
S'77'
p6115
sS'don'
p6116
S'4525'
p6117
sS'mushy'
p6118
S'5126'
p6119
sS'dog'
p6120
S'1769'
p6121
sS'competitors'
p6122
S'3405'
p6123
sS'pointy'
p6124
S'5526'
p6125
sS'consumer'
p6126
S'5021'
p6127
sS'annoyed'
p6128
S'4602'
p6129
sS'dot'
p6130
S'690'
p6131
sS'lyrics'
p6132
S'5461'
p6133
sS'brilliance'
p6134
S'3449'
p6135
sS'attempts'
p6136
S'5388'
p6137
sS'stepping'
p6138
S'2444'
p6139
sS'trade-off'
p6140
S'1119'
p6141
sS'mogami'
p6142
S'573'
p6143
sS'explain'
p6144
S'2107'
p6145
sS'folded'
p6146
S'1938'
p6147
sS'godlyke'
p6148
S'5802'
p6149
sS'folks'
p6150
S'3278'
p6151
sS'bread'
p6152
S'5615'
p6153
sS'wearing'
p6154
S'892'
p6155
sS'set-up'
p6156
S'4057'
p6157
sS'colorful'
p6158
S'1075'
p6159
sS'coast'
p6160
S'5652'
p6161
sS'12'
p6162
S'70'
p6163
sS'bat'
p6164
S'370'
p6165
sS'bar'
p6166
S'903'
p6167
sS'dp-03'
p6168
S'4470'
p6169
sS'bag'
p6170
S'284'
p6171
sS'bad'
p6172
S'307'
p6173
sS'softly'
p6174
S'1882'
p6175
sS'18'
p6176
S'2367'
p6177
sS'ears'
p6178
S'183'
p6179
sS'attest'
p6180
S'2353'
p6181
sS'reference'
p6182
S'293'
p6183
sS'testing'
p6184
S'905'
p6185
sS'decided'
p6186
S'76'
p6187
sS'subject'
p6188
S'4426'
p6189
sS'pedaltrain'
p6190
S'4545'
p6191
sS'07'
p6192
S'5463'
p6193
sS'05'
p6194
S'5785'
p6195
sS'sorta'
p6196
S'3374'
p6197
sS'artificial'
p6198
S'3492'
p6199
sS'simplest'
p6200
S'2858'
p6201
sS'sorts'
p6202
S'1243'
p6203
sS'lazy'
p6204
S'3969'
p6205
sS'wears'
p6206
S'1289'
p6207
sS'modeling'
p6208
S'261'
p6209
sS'picking'
p6210
S'1155'
p6211
sS'blueridge'
p6212
S'5478'
p6213
sS'suggested'
p6214
S'3410'
p6215
sS'resistant'
p6216
S'3476'
p6217
sS'appeared'
p6218
S'4710'
p6219
sS'height'
p6220
S'1264'
p6221
sS'offerings'
p6222
S'4947'
p6223
sS'drilled'
p6224
S'3640'
p6225
sS'springs'
p6226
S'1835'
p6227
sS'brassy'
p6228
S'3865'
p6229
sS'sam'
p6230
S'5691'
p6231
sS'basis'
p6232
S'3873'
p6233
sS'tiny'
p6234
S'834'
p6235
sS'earnie'
p6236
S'5663'
p6237
sS'trigger'
p6238
S'652'
p6239
sS'replicate'
p6240
S'2161'
p6241
sS'basic'
p6242
S'56'
p6243
sS'lovely'
p6244
S'1156'
p6245
sS'threw'
p6246
S'1432'
p6247
sS'website'
p6248
S'688'
p6249
sS'fingerpicks'
p6250
S'5350'
p6251
sS'deeper'
p6252
S'3126'
p6253
sS'quantities'
p6254
S'5570'
p6255
sS'tapping'
p6256
S'4787'
p6257
sS'personally'
p6258
S'170'
p6259
sS'one-spot'
p6260
S'4680'
p6261
sS'distorts'
p6262
S'2634'
p6263
sS'exception'
p6264
S'2825'
p6265
sS'tank'
p6266
S'1946'
p6267
sS'ugly'
p6268
S'4276'
p6269
sS'suppose'
p6270
S'712'
p6271
sS'balance'
p6272
S'182'
p6273
sS'anchor'
p6274
S'5070'
p6275
sS'backrest'
p6276
S'2725'
p6277
sS'diaphragm'
p6278
S'2408'
p6279
sS'customers'
p6280
S'884'
p6281
sS'iv'
p6282
S'3214'
p6283
sS'ii'
p6284
S'2066'
p6285
sS'shame'
p6286
S'3304'
p6287
sS'cans'
p6288
S'2649'
p6289
sS'disappear'
p6290
S'2451'
p6291
sS'grown'
p6292
S'3738'
p6293
sS'growl'
p6294
S'4322'
p6295
sS'shimmering'
p6296
S'3683'
p6297
sS'realizing'
p6298
S'2899'
p6299
sS'roland'
p6300
S'415'
p6301
sS'unfortunate'
p6302
S'4158'
p6303
sS'80s'
p6304
S'3219'
p6305
sS'bells'
p6306
S'2227'
p6307
sS'meets'
p6308
S'4083'
p6309
sS'fretboards'
p6310
S'3644'
p6311
sS'differing'
p6312
S'5011'
p6313
sS'kit'
p6314
S'1738'
p6315
sS'delight'
p6316
S'4756'
p6317
sS'opportunity'
p6318
S'4672'
p6319
sS'kid'
p6320
S'4348'
p6321
sS'butter'
p6322
S'4564'
p6323
sS'programs'
p6324
S'4131'
p6325
sS'failing'
p6326
S'499'
p6327
sS'materials'
p6328
S'1398'
p6329
sS'qualities'
p6330
S'2162'
p6331
sS'claims'
p6332
S'606'
p6333
sS'800'
p6334
S'5154'
p6335
sS'us-100'
p6336
S'4403'
p6337
sS'left'
p6338
S'864'
p6339
sS'yea'
p6340
S'3631'
p6341
sS'upgrading'
p6342
S'4052'
p6343
sS'unfair'
p6344
S'5336'
p6345
sS'identify'
p6346
S'4652'
p6347
sS'human'
p6348
S'3210'
p6349
sS'plug-in'
p6350
S'5105'
p6351
sS'yep'
p6352
S'867'
p6353
sS'yer'
p6354
S'5446'
p6355
sS'buyers'
p6356
S'4824'
p6357
sS'agile'
p6358
S'5135'
p6359
sS'character'
p6360
S'1647'
p6361
sS'affinity'
p6362
S'83'
p6363
sS'save'
p6364
S'1198'
p6365
sS'opt'
p6366
S'5614'
p6367
sS'knock-off'
p6368
S'3970'
p6369
sS'whichever'
p6370
S'4023'
p6371
sS'discreet'
p6372
S'4645'
p6373
sS'background'
p6374
S'1307'
p6375
sS'lint-free'
p6376
S'4440'
p6377
sS'feelings'
p6378
S'5624'
p6379
sS'shoulder'
p6380
S'2255'
p6381
sS'visible'
p6382
S'4698'
p6383
sS'performing'
p6384
S'607'
p6385
sS'manual'
p6386
S'1679'
p6387
sS'unnecessary'
p6388
S'2441'
p6389
sS'dean'
p6390
S'3836'
p6391
sS'deal'
p6392
S'350'
p6393
sS'deaf'
p6394
S'3618'
p6395
sS'dead'
p6396
S'2049'
p6397
sS'fingering'
p6398
S'3081'
p6399
sS'separately'
p6400
S'2481'
p6401
sS'uncoated'
p6402
S'3450'
p6403
sS'dense'
p6404
S'4557'
p6405
sS'bold'
p6406
S'666'
p6407
sS'burn'
p6408
S'2084'
p6409
sS'banjos'
p6410
S'2090'
p6411
sS'bolt'
p6412
S'3286'
p6413
sS'keeper'
p6414
S'2102'
p6415
sS'super'
p6416
S'251'
p6417
sS'afternoon'
p6418
S'4547'
p6419
sS'automatically'
p6420
S'2917'
p6421
sS'thinner'
p6422
S'1611'
p6423
sS'lies'
p6424
S'4488'
p6425
sS'overkill'
p6426
S'4199'
p6427
sS'chime'
p6428
S'4037'
p6429
sS'annoyance'
p6430
S'1688'
p6431
sS'amazingly'
p6432
S'1622'
p6433
sS'initial'
p6434
S'831'
p6435
sS'editor'
p6436
S'1791'
p6437
sS'fraction'
p6438
S'4122'
p6439
sS'fork'
p6440
S'1069'
p6441
sS'offering'
p6442
S'4084'
p6443
sS'forks'
p6444
S'5005'
p6445
sS'nyxl'
p6446
S'4145'
p6447
sS'failure'
p6448
S'4991'
p6449
sS'lows'
p6450
S'1231'
p6451
sS'222'
p6452
S'5616'
p6453
sS'220'
p6454
S'5097'
p6455
sS'prevents'
p6456
S'1974'
p6457
sS'attached'
p6458
S'1425'
p6459
sS'attaches'
p6460
S'1525'
p6461
sS'separated'
p6462
S'5511'
p6463
sS'sticks'
p6464
S'3525'
p6465
sS'classic'
p6466
S'734'
p6467
sS'toss'
p6468
S'2503'
p6469
sS'covers'
p6470
S'1557'
p6471
sS'sticky'
p6472
S'1115'
p6473
sS'ship'
p6474
S'703'
p6475
sS'vista'
p6476
S'4407'
p6477
sS'handed'
p6478
S'4861'
p6479
sS'digital'
p6480
S'944'
p6481
sS'warehouse'
p6482
S'3912'
p6483
sS'sling'
p6484
S'3482'
p6485
sS'me70'
p6486
S'5737'
p6487
sS'dies'
p6488
S'4623'
p6489
sS'fell'
p6490
S'3368'
p6491
sS'transfers'
p6492
S'4846'
p6493
sS'weekend'
p6494
S'3429'
p6495
sS'died'
p6496
S'4973'
p6497
sS'jacked'
p6498
S'1757'
p6499
sS'happening'
p6500
S'2322'
p6501
sS'assume'
p6502
S'2220'
p6503
sS'daily'
p6504
S'1253'
p6505
sS'jacket'
p6506
S'4994'
p6507
sS'gorilla'
p6508
S'3727'
p6509
sS'multitrack'
p6510
S'5627'
p6511
sS'teeth'
p6512
S'2202'
p6513
sS'overdub'
p6514
S'2873'
p6515
sS'shop'
p6516
S'1105'
p6517
sS'managed'
p6518
S'2244'
p6519
sS'tuners'
p6520
S'89'
p6521
sS'skip'
p6522
S'2739'
p6523
sS'mild'
p6524
S'1237'
p6525
sS'skin'
p6526
S'3165'
p6527
sS'seller'
p6528
S'2012'
p6529
sS'depend'
p6530
S'4095'
p6531
sS'technique'
p6532
S'375'
p6533
sS'father'
p6534
S'774'
p6535
sg3575
S'2014'
p6536
sS'finally'
p6537
S'485'
p6538
sS'unpleasant'
p6539
S'4563'
p6540
sS'marks'
p6541
S'2565'
p6542
sS'suffered'
p6543
S'2845'
p6544
sS'verbzilla'
p6545
S'5803'
p6546
sS'string'
p6547
S'324'
p6548
sS'multi-plug'
p6549
S'3324'
p6550
sS'advised'
p6551
S'3568'
p6552
sS'dim'
p6553
S'1747'
p6554
sS'swapping'
p6555
S'3623'
p6556
sS'die'
p6557
S'4992'
p6558
sS'dig'
p6559
S'103'
p6560
sS'accidentally'
p6561
S'1662'
p6562
sS'travels'
p6563
S'4074'
p6564
sS'item'
p6565
S'878'
p6566
sS'diy'
p6567
S'2956'
p6568
sS'stiffer'
p6569
S'2208'
p6570
sS'round'
p6571
S'1021'
p6572
sS'talked'
p6573
S'4250'
p6574
sS'dealing'
p6575
S'4474'
p6576
sS'hobbyist'
p6577
S'207'
p6578
sS'pitchblack'
p6579
S'560'
p6580
sS'adds'
p6581
S'948'
p6582
sS'filler'
p6583
S'4165'
p6584
sS'dc9'
p6585
S'5617'
p6586
sS'suspect'
p6587
S'1106'
p6588
sS'template'
p6589
S'4923'
p6590
sS'filled'
p6591
S'1714'
p6592
sS'ms'
p6593
S'5732'
p6594
sS'guardian'
p6595
S'5604'
p6596
sS'french'
p6597
S'3573'
p6598
sS'wait'
p6599
S'876'
p6600
sS'box'
p6601
S'186'
p6602
sS'boy'
p6603
S'2700'
p6604
sS'canadian'
p6605
S'2030'
p6606
sS'shift'
p6607
S'4512'
p6608
sS'bow'
p6609
S'3074'
p6610
sS'suggestion'
p6611
S'3211'
p6612
sS'phospher'
p6613
S'3349'
p6614
sS'priceless'
p6615
S'4648'
p6616
sS'bob'
p6617
S'4928'
p6618
sS'nylon'
p6619
S'588'
p6620
sS'adjustable'
p6621
S'242'
p6622
sS'flexibility'
p6623
S'1736'
p6624
sS'verge'
p6625
S'4112'
p6626
sS'sharper'
p6627
S'2586'
p6628
sS'sake'
p6629
S'3724'
p6630
sS'pluses'
p6631
S'3519'
p6632
sS'dude'
p6633
S'2122'
p6634
sS'connector'
p6635
S'1530'
p6636
sS'creamy'
p6637
S'3698'
p6638
sS'acceptable'
p6639
S'3119'
p6640
sS'tandem'
p6641
S'5430'
p6642
sS'rigid'
p6643
S'3973'
p6644
sS'effort'
p6645
S'1719'
p6646
sS'capturing'
p6647
S'2871'
p6648
sS'fly'
p6649
S'2898'
p6650
sS'soul'
p6651
S'2707'
p6652
sS'reviews'
p6653
S'100'
p6654
sS'volume/wah'
p6655
S'4078'
p6656
sS'growing'
p6657
S'4001'
p6658
sS'arrive'
p6659
S'858'
p6660
sS'thicknesses'
p6661
S'2574'
p6662
sS'claim'
p6663
S'3639'
p6664
sS'crazy'
p6665
S'1723'
p6666
sS'audiophile'
p6667
S'3699'
p6668
sS'confused'
p6669
S'1975'
p6670
sS'agent'
p6671
S'4960'
p6672
sS'sample'
p6673
S'1394'
p6674
sS'drawer'
p6675
S'4113'
p6676
sS'shorting'
p6677
S'4367'
p6678
sS'sn5'
p6679
S'5298'
p6680
sS'sn1'
p6681
S'4948'
p6682
sS'pink'
p6683
S'3393'
p6684
sS'stompboxes'
p6685
S'3817'
p6686
sS'soundboard'
p6687
S'3223'
p6688
sS'tilt'
p6689
S'4402'
p6690
sS'ping'
p6691
S'4626'
p6692
sS'pine'
p6693
S'1025'
p6694
sS'chemical'
p6695
S'4807'
p6696
sS'till'
p6697
S'768'
p6698
sS'pure'
p6699
S'1246'
p6700
sS'pins'
p6701
S'1059'
p6702
sS'nyc'
p6703
S'5721'
p6704
sS'inputs'
p6705
S'611'
p6706
sS'staying'
p6707
S'2632'
p6708
sS'mar'
p6709
S'3732'
p6710
sS'mat'
p6711
S'5491'
p6712
sS'max'
p6713
S'3440'
p6714
sS'accessory'
p6715
S'1963'
p6716
sS'mac'
p6717
S'228'
p6718
sS'designed'
p6719
S'257'
p6720
sS'guys'
p6721
S'704'
p6722
sS'waist'
p6723
S'2949'
p6724
sS'johnson'
p6725
S'5743'
p6726
sS'6th'
p6727
S'3235'
p6728
sS'switch'
p6729
S'141'
p6730
sS'tall'
p6731
S'1740'
p6732
sS'talk'
p6733
S'2442'
p6734
sS'cute'
p6735
S'2756'
p6736
sS'shield'
p6737
S'4875'
p6738
sS'wishing'
p6739
S'752'
p6740
sS'stability'
p6741
S'993'
p6742
sS'shake'
p6743
S'1178'
p6744
sS'solder'
p6745
S'3719'
p6746
sS'peterson'
p6747
S'5664'
p6748
sS'sm57'
p6749
S'3036'
p6750
sS'adhesive'
p6751
S'3106'
p6752
sS'monitor'
p6753
S'428'
p6754
sS'listing'
p6755
S'1761'
p6756
sS'policy'
p6757
S'2934'
p6758
sS'mail'
p6759
S'866'
p6760
sS'main'
p6761
S'104'
p6762
sS'texas'
p6763
S'3233'
p6764
sS'emailed'
p6765
S'2935'
p6766
sS'rattled'
p6767
S'4969'
p6768
sS'killer'
p6769
S'4568'
p6770
sS'sooner'
p6771
S'2077'
p6772
sS'touching'
p6773
S'1608'
p6774
sS'rattles'
p6775
S'1260'
p6776
sS'leds'
p6777
S'1965'
p6778
sS'settings'
p6779
S'1095'
p6780
sS'careless'
p6781
S'5114'
p6782
sS'rock'
p6783
S'735'
p6784
sS'xls'
p6785
S'4463'
p6786
sS'xlr'
p6787
S'1529'
p6788
sS'unlock'
p6789
S'1956'
p6790
sS'fingertips'
p6791
S'3592'
p6792
sS'girl'
p6793
S'5396'
p6794
sS'summary'
p6795
S'1576'
p6796
sS'canada'
p6797
S'1208'
p6798
sS'living'
p6799
S'425'
p6800
sS'jackson'
p6801
S'4828'
p6802
sS'3rd'
p6803
S'2782'
p6804
sS'interference'
p6805
S'3398'
p6806
sS'stupid'
p6807
S'4972'
p6808
sS'sensor'
p6809
S'475'
p6810
sS'correct'
p6811
S'246'
p6812
sS'sm-57'
p6813
S'414'
p6814
sS'monster'
p6815
S'356'
p6816
sS'hefty'
p6817
S'2558'
p6818
sS'mechanisms'
p6819
S'4111'
p6820
sS'sm-58'
p6821
S'3946'
p6822
sS'california'
p6823
S'2024'
p6824
sS'vinyl'
p6825
S'1934'
p6826
sS'headband'
p6827
S'3652'
p6828
sS'watts'
p6829
S'3017'
p6830
sS'headphones'
p6831
S'260'
p6832
sS'funky'
p6833
S'1448'
p6834
sS'nuff'
p6835
S'4552'
p6836
sS'frequent'
p6837
S'3674'
p6838
sS'exotic'
p6839
S'5555'
p6840
sS'carry'
p6841
S'1456'
p6842
sS'sounds'
p6843
S'19'
p6844
sS'cheesy'
p6845
S'3019'
p6846
sS'moisture'
p6847
S'2187'
p6848
sS'speaking'
p6849
S'3459'
p6850
sS'eyes'
p6851
S'620'
p6852
sS'continuous'
p6853
S'1261'
p6854
sS'accurately'
p6855
S'1305'
p6856
sS'broadcast'
p6857
S'5331'
p6858
sS'butt'
p6859
S'5552'
p6860
sS'11'
p6861
S'762'
p6862
sS'10'
p6863
S'71'
p6864
sS'13'
p6865
S'1195'
p6866
sS'cracks'
p6867
S'1609'
p6868
sS'15'
p6869
S'2362'
p6870
sS'14'
p6871
S'1279'
p6872
sS'17'
p6873
S'4019'
p6874
sS'16'
p6875
S'2822'
p6876
sS'19'
p6877
S'5773'
p6878
sS'notches'
p6879
S'4885'
p6880
sS'lugs'
p6881
S'4385'
p6882
sS'protected'
p6883
S'2106'
p6884
sS'notched'
p6885
S'1232'
p6886
sS'files'
p6887
S'4326'
p6888
sS'stubby'
p6889
S'4379'
p6890
sS'voices'
p6891
S'3397'
p6892
sS'winding'
p6893
S'1621'
p6894
sS'hellraiser'
p6895
S'5767'
p6896
sS'speakers'
p6897
S'2028'
p6898
sS'dreadnaught'
p6899
S'4718'
p6900
sS'efficient'
p6901
S'1773'
p6902
sS'isolate'
p6903
S'4342'
p6904
sS'shocked'
p6905
S'2462'
p6906
sS'rehearsals'
p6907
S'2870'
p6908
sS'potential'
p6909
S'1798'
p6910
sS'interior'
p6911
S'1136'
p6912
sS'performance'
p6913
S'1940'
p6914
sS'switching'
p6915
S'1596'
p6916
sS'channel'
p6917
S'118'
p6918
sS'200'
p6919
S'2392'
p6920
sS'v67g'
p6921
S'2224'
p6922
sS'pain'
p6923
S'3215'
p6924
sS'trace'
p6925
S'5621'
p6926
sS'normal'
p6927
S'793'
p6928
sS'track'
p6929
S'2217'
p6930
sS'paid'
p6931
S'471'
p6932
sS'rehearsal'
p6933
S'2773'
p6934
sS'beta'
p6935
S'5032'
p6936
sS'sheets'
p6937
S'2544'
p6938
sS'pair'
p6939
S'2645'
p6940
sS'20+'
p6941
S'2699'
p6942
sS'20-'
p6943
S'2036'
p6944
sS'surprising'
p6945
S'1435'
p6946
sS'fills'
p6947
S'915'
p6948
sS'voodoo'
p6949
S'4560'
p6950
sS'precise'
p6951
S'342'
p6952
sS'rating'
p6953
S'529'
p6954
sS'lexicon'
p6955
S'5443'
p6956
sS'shot'
p6957
S'650'
p6958
sS'winders'
p6959
S'1872'
p6960
sS'shoe'
p6961
S'3574'
p6962
sS'corner'
p6963
S'184'
p6964
sS'enthusiast'
p6965
S'3428'
p6966
sS'dice'
p6967
S'4129'
p6968
sS'500ma'
p6969
S'5205'
p6970
sS'elixers'
p6971
S'5522'
p6972
sS'collapses'
p6973
S'5003'
p6974
sS'nickels'
p6975
S'4270'
p6976
sS'black'
p6977
S'65'
p6978
sS'p90'
p6979
S'3312'
p6980
sS'stomp'
p6981
S'3436'
p6982
sS'conjunction'
p6983
S'3409'
p6984
sS'gem'
p6985
S'4012'
p6986
sS'secondary'
p6987
S'4945'
p6988
sS'keyboards'
p6989
S'2698'
p6990
sS'bearings'
p6991
S'4569'
p6992
sS'morning'
p6993
S'2720'
p6994
sS'threading'
p6995
S'2995'
p6996
sS'miles'
p6997
S'2936'
p6998
sS'finishing'
p6999
S'3176'
p7000
sS'worrying'
p7001
S'1650'
p7002
sS'kernel'
p7003
S'5800'
p7004
sS'honesty'
p7005
S'2168'
p7006
sS'seat'
p7007
S'2546'
p7008
sS'relative'
p7009
S'3840'
p7010
sS'eliminating'
p7011
S'1900'
p7012
sS'seal'
p7013
S'3358'
p7014
sS'satisfying'
p7015
S'1794'
p7016
sS'camping'
p7017
S'3605'
p7018
sS'label'
p7019
S'2518'
p7020
sS'pump'
p7021
S'5144'
p7022
sS'tu-2'
p7023
S'1343'
p7024
sS'reading'
p7025
S'1302'
p7026
sS'smooths'
p7027
S'5660'
p7028
sS'oversized'
p7029
S'2201'
p7030
sS'affordable'
p7031
S'348'
p7032
sS'jr'
p7033
S'397'
p7034
sS'killing'
p7035
S'4036'
p7036
sS'jj'
p7037
S'2045'
p7038
sS'singers'
p7039
S'1538'
p7040
sS'tour'
p7041
S'4316'
p7042
sS'disappointment'
p7043
S'3198'
p7044
sS'holders'
p7045
S'1700'
p7046
sS'traded'
p7047
S'4217'
p7048
sS'venues'
p7049
S'1936'
p7050
sS'maintained'
p7051
S'2692'
p7052
sS'stretched'
p7053
S'2989'
p7054
sS'unusual'
p7055
S'3140'
p7056
sS'tuning'
p7057
S'330'
p7058
sS'capable'
p7059
S'3550'
p7060
sS'valvetronix'
p7061
S'5714'
p7062
sS'mark'
p7063
S'2250'
p7064
sS'attaching'
p7065
S'1718'
p7066
sS'dependable'
p7067
S'1312'
p7068
sS'barre'
p7069
S'5722'
p7070
sS'judging'
p7071
S'5094'
p7072
sS'shopping'
p7073
S'705'
p7074
sS'bugera'
p7075
S'2088'
p7076
sS'dramatic'
p7077
S'3392'
p7078
sS'sound'
p7079
S'16'
p7080
sS'disconnected'
p7081
S'5343'
p7082
sS'ratchet'
p7083
S'2688'
p7084
sS'slapping'
p7085
S'4537'
p7086
sS'characteristics'
p7087
S'192'
p7088
sS'rubbing'
p7089
S'586'
p7090
sS'sleeping'
p7091
S'2440'
p7092
sS'middle'
p7093
S'932'
p7094
sS'pressing'
p7095
S'2987'
p7096
sS'everyday'
p7097
S'2485'
p7098
sS'movements'
p7099
S'5672'
p7100
sS'bags'
p7101
S'1866'
p7102
sS'par'
p7103
S'2654'
p7104
sS'harsh'
p7105
S'2655'
p7106
sS'doctor'
p7107
S'2502'
p7108
sS'pay'
p7109
S'537'
p7110
sS'pad'
p7111
S'2407'
p7112
sS'stepped'
p7113
S'2204'
p7114
sS'pan'
p7115
S'4414'
p7116
sS'oil'
p7117
S'1814'
p7118
sS'g-dec'
p7119
S'4747'
p7120
sS'companion'
p7121
S'5464'
p7122
sS'running'
p7123
S'1372'
p7124
sS'totally'
p7125
S'187'
p7126
sS'drain'
p7127
S'1383'
p7128
sS'amplitube'
p7129
S'3336'
p7130
sS'intermittent'
p7131
S'5018'
p7132
sS'roughly'
p7133
S'4477'
p7134
sS'ts808'
p7135
S'5159'
p7136
sS'solve'
p7137
S'4105'
p7138
sS'bottle'
p7139
S'2515'
p7140
sS'bumping'
p7141
S'4897'
p7142
sS'amazed'
p7143
S'1486'
p7144
sS'gates'
p7145
S'2403'
p7146
sS'outdoor'
p7147
S'3826'
p7148
sS'money'
p7149
S'710'
p7150
sS'adjustments'
p7151
S'1989'
p7152
sS'reputable'
p7153
S'563'
p7154
sS'aspect'
p7155
S'659'
p7156
sS'flavor'
p7157
S'4174'
p7158
sS'vt999'
p7159
S'5322'
p7160
sS'pups'
p7161
S'5308'
p7162
sS'pile'
p7163
S'3521'
p7164
sg4115
S'535'
p7165
sS'heavier'
p7166
S'115'
p7167
sS'grip'
p7168
S'1247'
p7169
sS'grit'
p7170
S'5024'
p7171
sS'disappointed'
p7172
S'1864'
p7173
sS'mod'
p7174
S'748'
p7175
sS'vertically'
p7176
S'3143'
p7177
sS'serves'
p7178
S'1036'
p7179
sS'xotic'
p7180
S'4730'
p7181
sS'facing'
p7182
S'2190'
p7183
sS'chamber'
p7184
S'3835'
p7185
sS'audience'
p7186
S'1664'
p7187
sS'nose'
p7188
S'4942'
p7189
sS'retailers'
p7190
S'4294'
p7191
sS'served'
p7192
S'2499'
p7193
sS'images'
p7194
S'4476'
p7195
sS'cabs'
p7196
S'3255'
p7197
sS'matching'
p7198
S'4205'
p7199
sS'generates'
p7200
S'1543'
p7201
sS'gross'
p7202
S'5706'
p7203
sS'outs'
p7204
S'4415'
p7205
sS'sn-8'
p7206
S'1616'
p7207
sS'confirm'
p7208
S'4521'
p7209
sS'sn-6'
p7210
S'5069'
p7211
sS'stages'
p7212
S'4318'
p7213
sS'extensively'
p7214
S'3678'
p7215
sS'sn-2'
p7216
S'5216'
p7217
sS'critical'
p7218
S'3898'
p7219
sS'moderate'
p7220
S'2969'
p7221
sS'knife'
p7222
S'2314'
p7223
sS'measuring'
p7224
S'4177'
p7225
sS'manufactured'
p7226
S'3177'
p7227
sS'notable'
p7228
S'3152'
p7229
sS'awsome'
p7230
S'4594'
p7231
sS'notably'
p7232
S'4862'
p7233
sS'broken'
p7234
S'1849'
p7235
sS'drums'
p7236
S'1739'
p7237
sS'finicky'
p7238
S'3776'
p7239
sS'manufacturer'
p7240
S'1577'
p7241
sS'roar'
p7242
S'4233'
p7243
sS'mixer'
p7244
S'2209'
p7245
sS'mixes'
p7246
S'2500'
p7247
sS'practical'
p7248
S'2331'
p7249
sS'airline'
p7250
S'5029'
p7251
sS'pockets'
p7252
S'827'
p7253
sS'mixed'
p7254
S'2897'
p7255
sS'road'
p7256
S'1865'
p7257
sS'quietly'
p7258
S'1902'
p7259
sS'spreading'
p7260
S'5440'
p7261
sS'strip'
p7262
S'1803'
p7263
sS'telescoping'
p7264
S'2473'
p7265
sS'shells'
p7266
S'4389'
p7267
sS'washers'
p7268
S'2860'
p7269
sS'tripod'
p7270
S'2253'
p7271
sS'sophisticated'
p7272
S'5528'
p7273
sS'wiping'
p7274
S'2608'
p7275
sS'intonated'
p7276
S'3069'
p7277
sS'operating'
p7278
S'3533'
p7279
sS'noiseless'
p7280
S'3204'
p7281
sS'suitcase'
p7282
S'3611'
p7283
sS'videos'
p7284
S'131'
p7285
sS'deep'
p7286
S'812'
p7287
sS'fellow'
p7288
S'2792'
p7289
sS'imagination'
p7290
S'2484'
p7291
sS'examine'
p7292
S'5237'
p7293
sS'file'
p7294
S'2993'
p7295
sS'girlfriend'
p7296
S'1351'
p7297
sS'48v'
p7298
S'2193'
p7299
sS'cables'
p7300
S'54'
p7301
sS'film'
p7302
S'4539'
p7303
sS'fill'
p7304
S'1316'
p7305
sS'tedious'
p7306
S'1891'
p7307
sS'genres'
p7308
S'3854'
p7309
sS'drivers'
p7310
S'223'
p7311
sS'pedals'
p7312
S'169'
p7313
sS'hybrid'
p7314
S'1167'
p7315
sS'field'
p7316
S'2358'
p7317
sS'offered'
p7318
S'2930'
p7319
sS'indestructable'
p7320
S'5270'
p7321
sS'students'
p7322
S'5269'
p7323
sS'brands'
p7324
S'1467'
p7325
sS'remote'
p7326
S'3890'
p7327
sS'resale'
p7328
S'5139'
p7329
sS'alright'
p7330
S'2286'
p7331
sS'deluxe'
p7332
S'920'
p7333
sS'starting'
p7334
S'349'
p7335
sS'looped'
p7336
S'5813'
p7337
sS'forget'
p7338
S'1382'
p7339
sS'dollar'
p7340
S'1894'
p7341
sS'zing'
p7342
S'4465'
p7343
sS'looper'
p7344
S'209'
p7345
sS'zinc'
p7346
S'3303'
p7347
sS'children'
p7348
S'763'
p7349
sS'reluctant'
p7350
S'3502'
p7351
sS'responsiveness'
p7352
S'4435'
p7353
sS'restringing'
p7354
S'4912'
p7355
sS'shredding'
p7356
S'4866'
p7357
sS'enjoying'
p7358
S'2581'
p7359
sS'premium'
p7360
S'4633'
p7361
sS'returning'
p7362
S'648'
p7363
sS'ts-808'
p7364
S'3695'
p7365
sS'fall'
p7366
S'2000'
p7367
sS'difference'
p7368
S'195'
p7369
sS'washer'
p7370
S'2819'
p7371
sS'splitter'
p7372
S'5047'
p7373
sS'forking'
p7374
S'5752'
p7375
sS'washing'
p7376
S'4375'
p7377
sS'dampen'
p7378
S'4441'
p7379
sS'portable'
p7380
S'817'
p7381
sS'strung'
p7382
S'4034'
p7383
sS'residue'
p7384
S'1629'
p7385
sS'90s'
p7386
S'1215'
p7387
sS'dial'
p7388
S'245'
p7389
sS'stood'
p7390
S'2195'
p7391
sS'opted'
p7392
S'2923'
p7393
sS'brackets'
p7394
S'4562'
p7395
sS'stool'
p7396
S'2525'
p7397
sS'public'
p7398
S'5309'
p7399
sS'movement'
p7400
S'2536'
p7401
sS'entry-level'
p7402
S'3694'
p7403
sS'5005'
p7404
S'4241'
p7405
sS'twang'
p7406
S'3207'
p7407
sS'component'
p7408
S'3984'
p7409
sS'ranges'
p7410
S'123'
p7411
sS'threads'
p7412
S'1764'
p7413
sS'fatter'
p7414
S'1634'
p7415
sS'search'
p7416
S'643'
p7417
sS'stretching'
p7418
S'3911'
p7419
sS'narrow'
p7420
S'3141'
p7421
sS'boosting'
p7422
S'3246'
p7423
sS'eye'
p7424
S'2735'
p7425
sS'distinct'
p7426
S'3072'
p7427
sS'wiped'
p7428
S'5468'
p7429
sS'comparing'
p7430
S'2384'
p7431
sS'exp16'
p7432
S'3446'
p7433
sS'wipes'
p7434
S'5079'
p7435
sS'diamond'
p7436
S'4669'
p7437
sS'varying'
p7438
S'787'
p7439
sS'karaoke'
p7440
S'2307'
p7441
sS'town'
p7442
S'3620'
p7443
sS'hour'
p7444
S'627'
p7445
sS'strain'
p7446
S'1033'
p7447
sS'recall'
p7448
S'3543'
p7449
sS'sucks'
p7450
S'2279'
p7451
sS'guards'
p7452
S'4007'
p7453
sS'remain'
p7454
S'2714'
p7455
sS'sudden'
p7456
S'4996'
p7457
sS'mediums'
p7458
S'3168'
p7459
sS'specialized'
p7460
S'3501'
p7461
sS'def'
p7462
S'4777'
p7463
sS'purchases'
p7464
S'1087'
p7465
sS'shark'
p7466
S'4760'
p7467
sS'stacking'
p7468
S'5287'
p7469
sS'share'
p7470
S'3509'
p7471
sS'minimum'
p7472
S'3955'
p7473
sS'purchased'
p7474
S'43'
p7475
sS'sharp'
p7476
S'1171'
p7477
sS'vibro'
p7478
S'2087'
p7479
sS'awkward'
p7480
S'583'
p7481
sS'nanoweb'
p7482
S'2221'
p7483
sS'comfort'
p7484
S'2303'
p7485
sS'ensemble'
p7486
S'4628'
p7487
sS'wuhans'
p7488
S'4967'
p7489
sS'frills'
p7490
S'2092'
p7491
sS'connectivity'
p7492
S'4491'
p7493
sS'coming'
p7494
S'25'
p7495
sS'response'
p7496
S'482'
p7497
sS'coax'
p7498
S'1124'
p7499
sS'crowded'
p7500
S'5281'
p7501
sS'coat'
p7502
S'1287'
p7503
sS'eats'
p7504
S'5548'
p7505
sS'pleasure'
p7506
S'4450'
p7507
sS'playing'
p7508
S'12'
p7509
sS'oacute'
p7510
S'5000'
p7511
sS'rounded'
p7512
S'1997'
p7513
sS'schaller'
p7514
S'2139'
p7515
sS'rounder'
p7516
S'3147'
p7517
sS'filters'
p7518
S'2042'
p7519
sS'suffer'
p7520
S'1618'
p7521
sS'24'
p7522
S'1185'
p7523
sS'25'
p7524
S'291'
p7525
sS'27'
p7526
S'1566'
p7527
sS'20'
p7528
S'1488'
p7529
sS'21'
p7530
S'4968'
p7531
sS'22'
p7532
S'3838'
p7533
sS'bx5a'
p7534
S'5424'
p7535
sS'pcs'
p7536
S'3356'
p7537
sS'28'
p7538
S'4068'
p7539
sS'29'
p7540
S'5111'
p7541
sS'late'
p7542
S'1910'
p7543
sS'detected'
p7544
S'4614'
p7545
sS'speech'
p7546
S'4248'
p7547
sS'hurting'
p7548
S'1652'
p7549
sS'seeking'
p7550
S'5323'
p7551
sS'walls'
p7552
S'2413'
p7553
sS'starcaster'
p7554
S'3924'
p7555
sS'complain'
p7556
S'358'
p7557
sS'easily'
p7558
S'478'
p7559
sS'headroom'
p7560
S'2968'
p7561
sS'2x'
p7562
S'4178'
p7563
sS'micro'
p7564
S'521'
p7565
sS'goofy'
p7566
S'5008'
p7567
sS'ports'
p7568
S'524'
p7569
sS'clamp'
p7570
S'1524'
p7571
sS'harm'
p7572
S'4796'
p7573
sS'clams'
p7574
S'5593'
p7575
sS'house'
p7576
S'1266'
p7577
sS'energy'
p7578
S'5040'
p7579
sS'hard'
p7580
S'385'
p7581
sS'idea'
p7582
S'508'
p7583
sS'engaging'
p7584
S'974'
p7585
sS'extended'
p7586
S'2238'
p7587
sS'connect'
p7588
S'3056'
p7589
sS'insurance'
p7590
S'5416'
p7591
sS'harp'
p7592
S'3034'
p7593
sS'print'
p7594
S'2009'
p7595
sS'geared'
p7596
S'4921'
p7597
sS'difficulty'
p7598
S'3070'
p7599
sS'benefits'
p7600
S'5156'
p7601
sS'computers'
p7602
S'5166'
p7603
sS'audacity'
p7604
S'2796'
p7605
sS'barber'
p7606
S'5264'
p7607
sS'reinforced'
p7608
S'2890'
p7609
sS'copper'
p7610
S'4876'
p7611
sS'dont'
p7612
S'337'
p7613
sS'instances'
p7614
S'3352'
p7615
sS'utilized'
p7616
S'2334'
p7617
sS'cups'
p7618
S'3664'
p7619
sS'twenty'
p7620
S'1534'
p7621
sS'5th'
p7622
S'2098'
p7623
sS'smoother'
p7624
S'527'
p7625
sS'obligatory'
p7626
S'4346'
p7627
sS'paint'
p7628
S'759'
p7629
sS'leash'
p7630
S'5538'
p7631
sS'amplifiers'
p7632
S'2967'
p7633
sS'rates'
p7634
S'4314'
p7635
sS'booster'
p7636
S'423'
p7637
sS'akai'
p7638
S'5232'
p7639
sS'synthetic'
p7640
S'2143'
p7641
sS'favorably'
p7642
S'3474'
p7643
sS'needle'
p7644
S'3749'
p7645
sS'park'
p7646
S'344'
p7647
sS'excels'
p7648
S'4705'
p7649
sS'selector'
p7650
S'5220'
p7651
sS'favorable'
p7652
S'2925'
p7653
sS'compliments'
p7654
S'3230'
p7655
sS'pickups'
p7656
S'1227'
p7657
sS'recording'
p7658
S'320'
p7659
sS'2020'
p7660
S'2339'
p7661
sS'supposed'
p7662
S'244'
p7663
sS'polishing'
p7664
S'1811'
p7665
sS'treated'
p7666
S'2205'
p7667
sS'sturdier'
p7668
S'3486'
p7669
sS'aged'
p7670
S'5539'
p7671
sS'mountain'
p7672
S'3078'
p7673
sS'built'
p7674
S'48'
p7675
sS'depending'
p7676
S'789'
p7677
sS'couch'
p7678
S'2717'
p7679
sS'majority'
p7680
S'2043'
p7681
sS'build'
p7682
S'92'
p7683
sS'dunlop'
p7684
S'1112'
p7685
sS'flute'
p7686
S'4272'
p7687
sS'chart'
p7688
S'4428'
p7689
sS'charm'
p7690
S'1360'
p7691
sS'extremely'
p7692
S'1458'
p7693
sS'univibe'
p7694
S'5378'
p7695
sS'cramped'
p7696
S'4420'
p7697
sS'weigh'
p7698
S'5619'
p7699
sS'mahalo'
p7700
S'5536'
p7701
sS'carefully'
p7702
S'1734'
p7703
sS'fine'
p7704
S'489'
p7705
sS'giant'
p7706
S'4267'
p7707
sS'nervous'
p7708
S'4096'
p7709
sS'ruin'
p7710
S'3376'
p7711
sS'chimey'
p7712
S'1240'
p7713
sS'unhappy'
p7714
S'5035'
p7715
sS'8'
p7716
S'804'
p7717
sS'polyweb'
p7718
S'4170'
p7719
sS'express'
p7720
S'4702'
p7721
sS'cheaper'
p7722
S'163'
p7723
sS'batter'
p7724
S'4390'
p7725
sS'danelectro'
p7726
S'896'
p7727
sS'silk'
p7728
S'3000'
p7729
sS'remove'
p7730
S'2369'
p7731
sS'common'
p7732
S'830'
p7733
sS'gospel'
p7734
S'3041'
p7735
sS'vine'
p7736
S'5431'
p7737
sS'individual'
p7738
S'579'
p7739
sS'leslie'
p7740
S'3421'
p7741
sS'repairs'
p7742
S'3757'
p7743
sS'expert'
p7744
S'715'
p7745
sS'fans'
p7746
S'2410'
p7747
sS'envelopes'
p7748
S'5573'
p7749
sS'sm58'
p7750
S'3470'
p7751
sS'rosin'
p7752
S'3073'
p7753
sS'interfaces'
p7754
S'2327'
p7755
sS'nashville'
p7756
S'5643'
p7757
sS'folding'
p7758
S'1996'
p7759
sS'reverse'
p7760
S'1274'
p7761
sS'tipping'
p7762
S'1560'
p7763
sS'tapered'
p7764
S'2998'
p7765
sS'suede'
p7766
S'1160'
p7767
sS'alot'
p7768
S'2600'
p7769
sS'upgraded'
p7770
S'4061'
p7771
sS'rag'
p7772
S'3202'
p7773
sS'simple'
p7774
S'136'
p7775
sS'2i2'
p7776
S'2319'
p7777
sS'flatwounds'
p7778
S'4536'
p7779
sS'simply'
p7780
S'983'
p7781
sS'upgrades'
p7782
S'4062'
p7783
sS'supple'
p7784
S'1159'
p7785
sS'expensive'
p7786
S'106'
p7787
sS'ensures'
p7788
S'602'
p7789
sS'mikes'
p7790
S'1546'
p7791
sS'raise'
p7792
S'3839'
p7793
sS'frets'
p7794
S'815'
p7795
sS'create'
p7796
S'2079'
p7797
sS'electro-harmonix'
p7798
S'3708'
p7799
sS'secret'
p7800
S'2144'
p7801
sS'dropping'
p7802
S'4099'
p7803
sS'96k'
p7804
S'5786'
p7805
sS'slips'
p7806
S'2760'
p7807
sS'assorted'
p7808
S'5495'
p7809
sS'gas'
p7810
S'2414'
p7811
sS'priced'
p7812
S'562'
p7813
sS'bigsby'
p7814
S'5180'
p7815
sS'pricey'
p7816
S'1133'
p7817
sS'understand'
p7818
S'522'
p7819
sS'prices'
p7820
S'556'
p7821
sS'replaces'
p7822
S'4868'
p7823
sS'raw'
p7824
S'3812'
p7825
sS'solid'
p7826
S'49'
p7827
sS'bill'
p7828
S'1895'
p7829
sS'amplugs'
p7830
S'5725'
p7831
sS'suhr'
p7832
S'5726'
p7833
sS'replaced'
p7834
S'900'
p7835
sS'fun'
p7836
S'723'
p7837
sS'behringer'
p7838
S'276'
p7839
sS'cents'
p7840
S'3780'
p7841
sS'drawbacks'
p7842
S'5418'
p7843
sS'encountered'
p7844
S'5175'
p7845
sS'complaints'
p7846
S'1040'
p7847
sS'emphasize'
p7848
S'3121'
p7849
sS'focusrite'
p7850
S'2337'
p7851
sS'strips'
p7852
S'2378'
p7853
sS'itch'
p7854
S'1127'
p7855
sS'forced'
p7856
S'3257'
p7857
sS'gilmour'
p7858
S'3394'
p7859
sS'yesterday'
p7860
S'3329'
p7861
sS'moment'
p7862
S'3396'
p7863
sS'purpose'
p7864
S'595'
p7865
sS'realm'
p7866
S'5017'
p7867
sS'woofer'
p7868
S'272'
p7869
sS'task'
p7870
S'2661'
p7871
sS'spent'
p7872
S'290'
p7873
sS'swiss'
p7874
S'4209'
p7875
sS'entry'
p7876
S'2338'
p7877
sS'jbl'
p7878
S'2975'
p7879
sS'spend'
p7880
S'617'
p7881
sS'darn'
p7882
S'1491'
p7883
sS'cubase'
p7884
S'4404'
p7885
sS'distracting'
p7886
S'3170'
p7887
sS'shape'
p7888
S'526'
p7889
sS'alternative'
p7890
S'3590'
p7891
sS'snare'
p7892
S'1919'
p7893
sS'alignment'
p7894
S'5515'
p7895
sS'letting'
p7896
S'2239'
p7897
sS'cut'
p7898
S'622'
p7899
sS'dslr'
p7900
S'678'
p7901
sS'cup'
p7902
S'4362'
p7903
sS'hated'
p7904
S'1068'
p7905
sS'alternate'
p7906
S'1172'
p7907
sS'cuz'
p7908
S'3625'
p7909
sS'source'
p7910
S'2425'
p7911
sS'snap'
p7912
S'624'
p7913
sS'clamping'
p7914
S'2892'
p7915
sS'excited'
p7916
S'4064'
p7917
sS'ridiculously'
p7918
S'4703'
p7919
sS'matters'
p7920
S'2424'
p7921
sS'win7'
p7922
S'4408'
p7923
sS'bit'
p7924
g1021
sS"'fizz"
p7925
S'2671'
p7926
sS'semi'
p7927
S'4581'
p7928
sS'glove'
p7929
S'2805'
p7930
sS'snowflake'
p7931
S'5683'
p7932
sS'indication'
p7933
S'2093'
p7934
sS'google'
p7935
S'3720'
p7936
sS'absolutely'
p7937
S'616'
p7938
sS'302usb'
p7939
S'5233'
p7940
sS'pricing'
p7941
S'1082'
p7942
sS'lightning'
p7943
S'5379'
p7944
sS'pronounced'
p7945
S'2938'
p7946
sS'scale'
p7947
S'1567'
p7948
sS'decision'
p7949
S'962'
p7950
sS'modest'
p7951
S'1990'
p7952
sS'pen'
p7953
S'4305'
p7954
sS'connecting'
p7955
S'1766'
p7956
sS'eliminate'
p7957
S'1886'
p7958
sS'accoustic'
p7959
S'4245'
p7960
sS'patient'
p7961
S'4106'
p7962
sS'300'
p7963
S'222'
p7964
sS'30+'
p7965
S'2779'
p7966
sS'oem'
p7967
S'4312'
p7968
sS'tripping'
p7969
S'1043'
p7970
sS'rumble'
p7971
S'3881'
p7972
sS'jimmy'
p7973
S'4854'
p7974
sS'retailer'
p7975
S'2933'
p7976
sS'lesson'
p7977
S'4185'
p7978
sS'homemade'
p7979
S'4278'
p7980
sS'forward'
p7981
S'430'
p7982
sS'translate'
p7983
S'4588'
p7984
sS'pounded'
p7985
S'3926'
p7986
sS'adjusting'
p7987
S'2728'
p7988
sS'hoped'
p7989
S'1584'
p7990
sS'boys'
p7991
S'5059'
p7992
sS'hopes'
p7993
S'2889'
p7994
sS'biggie'
p7995
S'5202'
p7996
sS'planet'
p7997
S'328'
p7998
sS'jumbo'
p7999
S'2755'
p8000
sS'groove'
p8001
S'2985'
p8002
sS'constant'
p8003
S'2496'
p8004
sS'stripped'
p8005
S'2583'
p8006
sS'non-coated'
p8007
S'3447'
p8008
sS'single'
p8009
S'807'
p8010
sS'necks'
p8011
S'2246'
p8012
sS'dragging'
p8013
S'1099'
p8014
sS'forewarned'
p8015
S'2519'
p8016
sS'functionality'
p8017
S'1925'
p8018
sS'lend'
p8019
S'5746'
p8020
sS'prepared'
p8021
S'5080'
p8022
sS'lent'
p8023
S'5259'
p8024
sS'implies'
p8025
S'3065'
p8026
sS'silvertone'
p8027
S'5096'
p8028
sS'2000'
p8029
S'2004'
p8030
sS'failures'
p8031
S'4310'
p8032
sS'2008'
p8033
S'5654'
p8034
sS'tube'
p8035
S'247'
p8036
sS'amplifier'
p8037
S'255'
p8038
sS'overly'
p8039
S'2115'
p8040
sS'amplified'
p8041
S'3245'
p8042
sS'corroding'
p8043
S'4871'
p8044
sS'helps'
p8045
S'312'
p8046
sS'ambience'
p8047
S'3500'
p8048
sS'pleasing'
p8049
S'2315'
p8050
sS'putting'
p8051
S'17'
p8052
sS'resonant'
p8053
S'1550'
p8054
sS'severely'
p8055
S'4271'
p8056
sS'shock'
p8057
S'2295'
p8058
sS'fabulous'
p8059
S'3132'
p8060
sS'havent'
p8061
S'3462'
p8062
sS'unsatisfied'
p8063
S'1715'
p8064
sS'tinny'
p8065
S'1638'
p8066
sS'fusion'
p8067
S'5327'
p8068
sS'uncomfortable'
p8069
S'1982'
p8070
sS'grooves'
p8071
S'910'
p8072
sS'quick-change'
p8073
S'4916'
p8074
sS'3x'
p8075
S'5225'
p8076
sS'unwound'
p8077
S'4577'
p8078
sS'practices'
p8079
S'4153'
p8080
sS'access'
p8081
S'882'
p8082
sS'body'
p8083
S'68'
p8084
sS'exchange'
p8085
S'1277'
p8086
sS'440'
p8087
S'4424'
p8088
sS'spacing'
p8089
S'3112'
p8090
sS'iconic'
p8091
S'5670'
p8092
sS'packing'
p8093
S'3444'
p8094
sS'objects'
p8095
S'3178'
p8096
sS'sink'
p8097
S'2818'
p8098
sS'sing'
p8099
S'396'
p8100
sS'safer'
p8101
S'4101'
p8102
sS'extreme'
p8103
S'1094'
p8104
sS'talent'
p8105
S'5581'
p8106
sS'32'
p8107
S'1354'
p8108
sS'30'
p8109
S'630'
p8110
sS'35'
p8111
S'2447'
p8112
sS'34'
p8113
S'990'
p8114
sS'detune'
p8115
S'490'
p8116
sS'proof'
p8117
S'2382'
p8118
sS'named'
p8119
S'5228'
p8120
sS'private'
p8121
S'4816'
p8122
sS'decrease'
p8123
S'4507'
p8124
sS'names'
p8125
S'1633'
p8126
sS'tap'
p8127
S'1078'
p8128
sS'clockwise'
p8129
S'5729'
p8130
sS'staple'
p8131
S'1897'
p8132
sS'breakup'
p8133
S'5057'
p8134
sS'humidifier'
p8135
S'2146'
p8136
sS'readable'
p8137
S'479'
p8138
sS'oils'
p8139
S'4903'
p8140
sS'humidified'
p8141
S'4820'
p8142
sS'oily'
p8143
S'4908'
p8144
sS'prized'
p8145
S'2680'
p8146
sS'train'
p8147
S'2436'
p8148
sS'iii'
p8149
S'544'
p8150
sS'account'
p8151
S'4461'
p8152
sS'fooling'
p8153
S'4768'
p8154
sS'obvious'
p8155
S'2800'
p8156
sS'praise'
p8157
S'1497'
p8158
sS'closing'
p8159
S'750'
p8160
sS'didnt'
p8161
S'2257'
p8162
sS'sanding'
p8163
S'5025'
p8164
sS'effectively'
p8165
S'2333'
p8166
sS'spruce'
p8167
S'3250'
p8168
sS'lame'
p8169
S'5242'
p8170
sS'line6'
p8171
S'2970'
p8172
sS'holds'
p8173
S'631'
p8174
sS'noisey'
p8175
S'5231'
p8176
sS'varies'
p8177
S'5591'
p8178
sS'attachment'
p8179
S'1699'
p8180
sS'stock'
p8181
S'88'
p8182
sS'profile'
p8183
S'1188'
p8184
sS'specifications'
p8185
S'3770'
p8186
sS'highs'
p8187
S'1241'
p8188
sS'collection'
p8189
S'3384'
p8190
sS'bothered'
p8191
S'1461'
p8192
sS'fray'
p8193
S'5498'
p8194
sS'chasing'
p8195
S'4285'
p8196
sS'sm7b'
p8197
S'3039'
p8198
sS'bind'
p8199
S'4181'
p8200
sS'lines'
p8201
S'3064'
p8202
sS'solos'
p8203
S'2052'
p8204
sS'subsequently'
p8205
S'5108'
p8206
sS'lined'
p8207
S'2498'
p8208
sS'marshalls'
p8209
S'3813'
p8210
sS'meter'
p8211
S'868'
p8212
sS'looping'
p8213
S'2229'
p8214
sS'squier'
p8215
S'82'
p8216
sS'onboard'
p8217
S'411'
p8218
sS'bunch'
p8219
S'2883'
p8220
sS'le'
p8221
S'5090'
p8222
sS'la'
p8223
S'3399'
p8224
sS'lo'
p8225
S'5541'
p8226
sS'll'
p8227
S'5518'
p8228
sS'labor'
p8229
S'4176'
p8230
sS'lt'
p8231
S'2604'
p8232
sS'lp'
p8233
S'767'
p8234
sS'us-322'
p8235
S'5783'
p8236
sS'dad'
p8237
S'3986'
p8238
sS'dab'
p8239
S'5306'
p8240
sS'dan'
p8241
S'4202'
p8242
sS'emg'
p8243
S'5667'
p8244
sS'mention'
p8245
S'2342'
p8246
sS'cutting'
p8247
S'335'
p8248
sS'trade'
p8249
S'2915'
p8250
sS'day'
p8251
S'534'
p8252
sS'all-in-one'
p8253
S'5194'
p8254
sS'warned'
p8255
S'3032'
p8256
sS'dp-008ex'
p8257
S'4468'
p8258
sS'slipping'
p8259
S'2535'
p8260
sS'beringer'
p8261
S'3935'
p8262
sS'ts9'
p8263
S'4799'
p8264
sS'tubing'
p8265
S'1935'
p8266
sS'lie'
p8267
S'4524'
p8268
sS'activate'
p8269
S'5107'
p8270
sS'calibrate'
p8271
S'3423'
p8272
sS'58a'
p8273
S'5033'
p8274
sS'tubular'
p8275
S'2153'
p8276
sS'popping'
p8277
S'1517'
p8278
sS'mate'
p8279
S'1706'
p8280
sS'stud'
p8281
S'2691'
p8282
sS'electronics'
p8283
S'1544'
p8284
sS'red'
p8285
S'1278'
p8286
sS'gears'
p8287
S'2988'
p8288
sS'iriffport'
p8289
S'5360'
p8290
sS'backwards'
p8291
S'5173'
p8292
sS'midi'
p8293
S'916'
p8294
sS'automatic'
p8295
S'2924'
p8296
sS'retain'
p8297
S'5273'
p8298
sS'retail'
p8299
S'4933'
p8300
sS'mids'
p8301
S'777'
p8302
sS'finest'
p8303
S'4495'
p8304
sS'reaches'
p8305
S'5520'
p8306
sS'embarrassed'
p8307
S'4047'
p8308
sS'reached'
p8309
S'5006'
p8310
sS'owning'
p8311
S'4373'
p8312
sS'ancient'
p8313
S'3163'
p8314
sS'sadly'
p8315
S'1038'
p8316
sS'monkey'
p8317
S'2868'
p8318
sS'pots'
p8319
S'1092'
p8320
sS'intermediate'
p8321
S'3867'
p8322
sS'messing'
p8323
S'2623'
p8324
sS'nitro'
p8325
S'1853'
p8326
sS'completed'
p8327
S'2660'
p8328
sS'adjusts'
p8329
S'1554'
p8330
sS'9-volt'
p8331
S'895'
p8332
sS'ipad'
p8333
S'3988'
p8334
sS'loved'
p8335
S'1781'
p8336
sS'slack'
p8337
S'623'
p8338
sS'compensation'
p8339
S'3279'
p8340
sS'transducer'
p8341
S'4711'
p8342
sS'loves'
p8343
S'3059'
p8344
sS'comfortable'
p8345
S'299'
p8346
sS"'just"
p8347
S'2788'
p8348
sS'connectors'
p8349
S'1179'
p8350
sS'comfortably'
p8351
S'3110'
p8352
sS'curved'
p8353
S'1439'
p8354
sS'mim'
p8355
S'1150'
p8356
sS'min'
p8357
S'4980'
p8358
sS'mic'
p8359
S'317'
p8360
sS'gravity'
p8361
S'2696'
p8362
sS'mix'
p8363
S'2241'
p8364
sS'concerns'
p8365
S'1932'
p8366
sS'strikes'
p8367
S'4395'
p8368
sS'capacity'
p8369
S'1007'
p8370
sS'occasion'
p8371
S'3599'
p8372
sS'skinny'
p8373
S'3830'
p8374
sS'selection'
p8375
S'1590'
p8376
sS'rotating'
p8377
S'3363'
p8378
sS'kits'
p8379
S'4434'
p8380
sS'thicker'
p8381
S'550'
p8382
sS'coloring'
p8383
S'5630'
p8384
sS'grabbed'
p8385
S'1805'
p8386
sS'knowledge'
p8387
S'730'
p8388
sS'controls'
p8389
S'208'
p8390
sS'prolong'
p8391
S'3330'
p8392
sS'bracing'
p8393
S'3107'
p8394
sS'amplify'
p8395
S'3572'
p8396
sS'inferior'
p8397
S'3768'
p8398
sS'regularly'
p8399
S'1631'
p8400
sS'exceptional'
p8401
S'4004'
p8402
sS'beat'
p8403
S'736'
p8404
sS'unbeatable'
p8405
S'4382'
p8406
sS'bear'
p8407
S'940'
p8408
sS'perfection'
p8409
S'4791'
p8410
sS'timing'
p8411
S'4859'
p8412
sS'arranged'
p8413
S'5678'
p8414
sS'organ'
p8415
S'933'
p8416
sS'fixes'
p8417
S'237'
p8418
sS'calling'
p8419
S'4659'
p8420
sS'vht'
p8421
S'3967'
p8422
sS'tightening'
p8423
S'2469'
p8424
sS'fixed'
p8425
S'2557'
p8426
sS'gibson'
p8427
S'3100'
p8428
sS'enhances'
p8429
S'3598'
p8430
sS'national'
p8431
S'5349'
p8432
sS'intensity'
p8433
S'1966'
p8434
sS'enhanced'
p8435
S'4918'
p8436
sS'phaser'
p8437
S'1096'
p8438
sS'attempting'
p8439
S'2260'
p8440
sS'pattern'
p8441
S'1539'
p8442
sS'difficulties'
p8443
S'5484'
p8444
sS'routing'
p8445
S'218'
p8446
sS'progress'
p8447
S'4748'
p8448
sS'dr-07mkii'
p8449
S'5385'
p8450
sS'decibels'
p8451
S'3667'
p8452
sS'horizontally'
p8453
S'2854'
p8454
sS'deliver'
p8455
S'3453'
p8456
sS'optional'
p8457
S'139'
p8458
sS'legit'
p8459
S'3961'
p8460
sS'instant'
p8461
S'4473'
p8462
sS'joke'
p8463
S'4634'
p8464
sS'equal'
p8465
S'2613'
p8466
sS'trips'
p8467
S'3606'
p8468
sS'assure'
p8469
S'4254'
p8470
sS'passing'
p8471
S'4575'
p8472
sS'comment'
p8473
S'2795'
p8474
sS'aa'
p8475
S'4656'
p8476
sS'relevant'
p8477
S'4749'
p8478
sS'm13'
p8479
S'249'
p8480
sS'laugh'
p8481
S'4288'
p8482
sS'news'
p8483
S'2719'
p8484
sS'tremendous'
p8485
S'1988'
p8486
sS'muddy'
p8487
S'1319'
p8488
sS'copies'
p8489
S'4196'
p8490
sS'seasoned'
p8491
S'4770'
p8492
sS'indicators'
p8493
S'2321'
p8494
sS'angled'
p8495
S'359'
p8496
sS'finishes'
p8497
S'1854'
p8498
sS'neotech'
p8499
S'4673'
p8500
sS'essentially'
p8501
S'769'
p8502
sS'bulk'
p8503
S'4309'
p8504
sS'finished'
p8505
S'687'
p8506
sS'angles'
p8507
S'481'
p8508
sS'bulb'
p8509
S'1694'
p8510
sS'ac/dc'
p8511
S'2711'
p8512
sS'multi'
p8513
S'3308'
p8514
sS'splits'
p8515
S'3003'
p8516
sS'plain'
p8517
S'837'
p8518
sS'appearance'
p8519
S'1562'
p8520
sS'frustrating'
p8521
S'2748'
p8522
sS'overdriven'
p8523
S'160'
p8524
sS'manually'
p8525
S'1619'
p8526
sS'helped'
p8527
S'378'
p8528
sS'lifetime'
p8529
S'1799'
p8530
sS'claimed'
p8531
S'1578'
p8532
sS'partner'
p8533
S'520'
p8534
sS'tighten'
p8535
S'2248'
p8536
sS'practice'
p8537
S'30'
p8538
sS'overdrives'
p8539
S'4232'
p8540
sS'ios'
p8541
S'5087'
p8542
sS'judgment'
p8543
S'5740'
p8544
sS'tighter'
p8545
S'4786'
p8546
sS'bluesy'
p8547
S'4684'
p8548
sS'center'
p8549
S'987'
p8550
sS'oops'
p8551
S'4163'
p8552
sS'sets'
p8553
S'1498'
p8554
sS'comparisons'
p8555
S'2475'
p8556
sS'muscle'
p8557
S'5365'
p8558
sS'usual'
p8559
S'433'
p8560
sS'stores'
p8561
S'2778'
p8562
sS'tripods'
p8563
S'2769'
p8564
sS'proximity'
p8565
S'5529'
p8566
sS'stored'
p8567
S'4009'
p8568
sS'voltage'
p8569
S'2602'
p8570
sS'tough'
p8571
S'766'
p8572
sS'epiphone'
p8573
S'906'
p8574
sS'ads'
p8575
S'2025'
p8576
sS'recommending'
p8577
S'5700'
p8578
sS'bench'
p8579
S'2545'
p8580
sS'add'
p8581
S'241'
p8582
sS'voila'
p8583
S'5191'
p8584
sS'match'
p8585
S'264'
p8586
sS'resolved'
p8587
S'4329'
p8588
sS'tests'
p8589
S'1888'
p8590
sS'unplugging'
p8591
S'2423'
p8592
sS'fyi'
p8593
S'5320'
p8594
sS'ac15'
p8595
S'2606'
p8596
sS'insert'
p8597
S'989'
p8598
sS'success'
p8599
S'3530'
p8600
sS'vibrant'
p8601
S'4642'
p8602
sS'epoxy'
p8603
S'3726'
p8604
sS'soft'
p8605
S'393'
p8606
sS'audible'
p8607
S'971'
p8608
sS'heel'
p8609
S'2534'
p8610
sS'accessible'
p8611
S'1563'
p8612
sS'classical'
p8613
S'1037'
p8614
sS'alive'
p8615
S'2941'
p8616
sS'hair'
p8617
S'1985'
p8618
sS'markley'
p8619
S'3837'
p8620
sS'recommendation'
p8621
S'1899'
p8622
sS'proper'
p8623
S'374'
p8624
sS'snuggly'
p8625
S'4900'
p8626
sS'aesthetically'
p8627
S'4207'
p8628
sS'esp'
p8629
S'1430'
p8630
sS'slide'
p8631
S'1062'
p8632
sS'economical'
p8633
S'3480'
p8634
sS'assuming'
p8635
S'5359'
p8636
sS'screwed'
p8637
S'1026'
p8638
sS'chains'
p8639
S'4130'
p8640
sS'noise'
p8641
S'794'
p8642
sS'hosa'
p8643
S'2477'
p8644
sS'stellar'
p8645
S'3705'
p8646
sS'host'
p8647
S'3469'
p8648
sS'worthy'
p8649
S'280'
p8650
sS'snapped'
p8651
S'4371'
p8652
sS'periodically'
p8653
S'1771'
p8654
sS'panel'
p8655
S'1752'
p8656
sS'actual'
p8657
S'800'
p8658
sS'boards'
p8659
S'4089'
p8660
sS'purist'
p8661
S'4754'
p8662
sS'toms'
p8663
S'5290'
p8664
sS'serviceable'
p8665
S'2811'
p8666
sS'addendum'
p8667
S'5034'
p8668
sS'introduced'
p8669
S'5568'
p8670
sS'functional'
p8671
S'1140'
p8672
sS'guard'
p8673
S'2562'
p8674
sS'doesnt'
p8675
S'2254'
p8676
sS'female'
p8677
S'3027'
p8678
sS'1980'
p8679
S'2120'
p8680
sS'stainless'
p8681
S'2625'
p8682
sS'buckle'
p8683
S'5496'
p8684
sS'biggest'
p8685
S'2584'
p8686
sS'rca'
p8687
S'2117'
p8688
sS'buy'
p8689
S'94'
p8690
sS'brand'
p8691
S'564'
p8692
sS'hd500'
p8693
S'4136'
p8694
sS'reminds'
p8695
S'5230'
p8696
sS'repeated'
p8697
S'1630'
p8698
sS'editing'
p8699
S'4027'
p8700
sS'bug'
p8701
S'236'
p8702
sS'versatile'
p8703
S'1218'
p8704
sS'partially'
p8705
S'3066'
p8706
sS'wise'
p8707
S'3766'
p8708
sS'variations'
p8709
S'4216'
p8710
sS'flip'
p8711
S'1419'
p8712
sS'minutes'
p8713
S'851'
p8714
sS'pin'
p8715
S'1248'
p8716
sS'whisper'
p8717
S'4638'
p8718
sS'internals'
p8719
S'4654'
p8720
sS'chromacast'
p8721
S'1574'
p8722
sS'pig'
p8723
S'4006'
p8724
sS'periods'
p8725
S'3082'
p8726
sS'48'
p8727
S'4069'
p8728
sS'49'
p8729
S'2363'
p8730
sS'45'
p8731
S'2981'
p8732
sS'42'
p8733
S'4066'
p8734
sS'detail'
p8735
S'1892'
p8736
sS'virtual'
p8737
S'4533'
p8738
sS'flange'
p8739
S'2375'
p8740
sS'variation'
p8741
S'3455'
p8742
sS'godsend'
p8743
S'3249'
p8744
sS'philips'
p8745
S'1019'
p8746
sS'resolution'
p8747
S'2877'
p8748
sS'limited'
p8749
S'2730'
p8750
sS'tr-2'
p8751
S'5244'
p8752
sS'hitch'
p8753
S'2829'
p8754
sS'sleep'
p8755
S'3952'
p8756
sS'hate'
p8757
S'634'
p8758
sS'assembled'
p8759
S'2523'
p8760
sS'replacements'
p8761
S'4204'
p8762
sS'patches'
p8763
S'2234'
p8764
sS'acoustically'
p8765
S'2559'
p8766
sS'whatsoever'
p8767
S'3960'
p8768
sS'tweed'
p8769
S'963'
p8770
sS'regrets'
p8771
S'4252'
p8772
sS'risk'
p8773
S'4198'
p8774
sS'rise'
p8775
S'3875'
p8776
sS'jack'
p8777
S'360'
p8778
sS'vastly'
p8779
S'2552'
p8780
sS'encounter'
p8781
S'1917'
p8782
sS'school'
p8783
S'919'
p8784
sS'ovation'
p8785
S'4249'
p8786
sS'venue'
p8787
S'451'
p8788
sS'flashy'
p8789
S'4804'
p8790
sS'glued'
p8791
S'2067'
p8792
sS'enjoy'
p8793
S'732'
p8794
sS'consistent'
p8795
S'1695'
p8796
sS'direct'
p8797
S'981'
p8798
sS'unscrewing'
p8799
S'4571'
p8800
sS'nail'
p8801
S'894'
p8802
sS'louder'
p8803
S'799'
p8804
sS'blue'
p8805
S'733'
p8806
sS'hide'
p8807
S'2828'
p8808
sS'selected'
p8809
S'5275'
p8810
sS'sibilance'
p8811
S'5710'
p8812
sS'supplied'
p8813
S'2419'
p8814
sS'beater'
p8815
S'2124'
p8816
sS'supplies'
p8817
S'2360'
p8818
sS'kicked'
p8819
S'1200'
p8820
sS'applies'
p8821
S'4500'
p8822
sS'hundreds'
p8823
S'1999'
p8824
sS'studio'
p8825
S'321'
p8826
sS'path'
p8827
S'2659'
p8828
sS'forum'
p8829
S'2666'
p8830
sS'luggage'
p8831
S'3908'
p8832
sS'leaves'
p8833
S'3134'
p8834
sS'changed'
p8835
S'1406'
p8836
sS'settled'
p8837
S'3463'
p8838
sS'prints'
p8839
S'5276'
p8840
sS'stray'
p8841
S'5671'
p8842
sS'strat'
p8843
S'67'
p8844
sS'strap'
p8845
g7716
sS'patience'
p8846
S'3025'
p8847
sS'*the'
p8848
S'5500'
p8849
sS'forums'
p8850
S'1109'
p8851
sS'ebony'
p8852
S'5459'
p8853
sS'swings'
p8854
S'4026'
p8855
sS'm5'
p8856
S'2668'
p8857
sS'noting'
p8858
S'5727'
p8859
sS'm1'
p8860
S'694'
p8861
sS'm3'
p8862
S'2665'
p8863
sS'deville'
p8864
S'3227'
p8865
sS'preview'
p8866
S'3009'
p8867
sS'pic'
p8868
S'757'
p8869
sS'phone'
p8870
S'2927'
p8871
sS'excellent'
p8872
S'684'
p8873
sS'muss'
p8874
S'5638'
p8875
sS'phono'
p8876
S'2111'
p8877
sS'pouch'
p8878
S'338'
p8879
sS'shoot'
p8880
S'1390'
p8881
sS'ma'
p8882
S'4650'
p8883
sS'cheapest'
p8884
S'4072'
p8885
sS'mm'
p8886
S'2015'
p8887
sS'tremendously'
p8888
S'3880'
p8889
sS'mi'
p8890
S'4902'
p8891
sS'mk'
p8892
S'3228'
p8893
sS'install'
p8894
S'513'
p8895
sS'loosen'
p8896
S'1976'
p8897
sS'estate'
p8898
S'2076'
p8899
sS'gadgets'
p8900
S'2703'
p8901
sS'looser'
p8902
S'4590'
p8903
sS'guarantee'
p8904
S'3972'
p8905
sS'iiis'
p8906
S'3516'
p8907
sS'sitting'
p8908
S'1620'
p8909
sS'drummer'
p8910
S'444'
p8911
sS'gate'
p8912
S'3341'
p8913
sS'charging'
p8914
S'5361'
p8915
sS'badly'
p8916
S'3670'
p8917
sS'description'
p8918
S'1049'
p8919
sS'mess'
p8920
S'2119'
p8921
sS'mesh'
p8922
S'3951'
p8923
sS'mesa'
p8924
S'4736'
p8925
sS'parallel'
p8926
S'1845'
p8927
sS'upside'
p8928
S'2603'
p8929
sS'ultimate'
p8930
S'3809'
p8931
sS'enter'
p8932
S'4187'
p8933
sS'executed'
p8934
S'2971'
p8935
sS'underside'
p8936
S'3385'
p8937
sS'40-'
p8938
S'5560'
p8939
sS'40+'
p8940
S'4090'
p8941
sS'expectations'
p8942
S'2906'
p8943
sS'imo'
p8944
S'1979'
p8945
sS'writing'
p8946
S'2869'
p8947
sS'destroyed'
p8948
S'3372'
p8949
sS'complex'
p8950
S'3892'
p8951
sS'fade'
p8952
S'4224'
p8953
sS'400'
p8954
S'2395'
p8955
sS'4033'
p8956
S'2350'
p8957
sS'p-bass'
p8958
S'4567'
p8959
sS'crunchy'
p8960
S'1221'
p8961
sS'choir'
p8962
S'5765'
p8963
sS'filling'
p8964
S'5404'
p8965
sS'lasting'
p8966
S'346'
p8967
sS'hanger'
p8968
S'1013'
p8969
sS'cloths'
p8970
S'3921'
p8971
sS'mahogany'
p8972
S'3284'
p8973
sS'unscrew'
p8974
S'1035'
p8975
sS'depress'
p8976
S'5544'
p8977
sS'gon'
p8978
S'3332'
p8979
sS'driving'
p8980
S'2549'
p8981
sS'stringed'
p8982
S'2454'
p8983
sS'god'
p8984
S'1340'
p8985
sS'laid'
p8986
S'5217'
p8987
sS'intonate'
p8988
S'2837'
p8989
sS'clamps'
p8990
S'1755'
p8991
sS'perception'
p8992
S'3872'
p8993
sS'free'
p8994
S'517'
p8995
sS'mastering'
p8996
S'4487'
p8997
sS'fret'
p8998
S'813'
p8999
sS'inexpensive'
p9000
S'470'
p9001
sS'days'
p9002
S'907'
p9003
sS'filter'
p9004
S'306'
p9005
sS'heck'
p9006
S'1110'
p9007
sS'xm1800s'
p9008
S'5427'
p9009
sS'industrial'
p9010
S'3571'
p9011
sS'coding'
p9012
S'2774'
p9013
sS'primary'
p9014
S'275'
p9015
sS'hearing'
p9016
S'2352'
p9017
sS'insulation'
p9018
S'4741'
p9019
sS'sovtek'
p9020
S'5711'
p9021
sS'researched'
p9022
S'4097'
p9023
sS'honeytone'
p9024
S'4797'
p9025
sS'toy'
p9026
S'2141'
p9027
sS'top'
p9028
S'162'
p9029
sS'heights'
p9030
S'3751'
p9031
sS'ton'
p9032
S'129'
p9033
sS'tom'
p9034
S'1921'
p9035
sS'rockin'
p9036
S'1615'
p9037
sS'inconvenient'
p9038
S'2366'
p9039
sS'toe'
p9040
S'5143'
p9041
sS'ceiling'
p9042
S'2373'
p9043
sS'tool'
p9044
S'1617'
p9045
sS'serve'
p9046
S'714'
p9047
sS'compressor'
p9048
S'2631'
p9049
sS'ns-2'
p9050
S'3247'
p9051
sS'frankly'
p9052
S'1085'
p9053
sS'exps'
p9054
S'3350'
p9055
sS'classes'
p9056
S'2808'
p9057
sS'bridge'
p9058
S'24'
p9059
sS'lbs'
p9060
S'401'
p9061
sS'fashion'
p9062
S'2150'
p9063
sS'torque'
p9064
S'4386'
p9065
sS'talking'
p9066
S'2055'
p9067
sS'rat'
p9068
S'2057'
p9069
sS'screws'
p9070
S'59'
p9071
sS'compartments'
p9072
S'3904'
p9073
sS'triangle'
p9074
S'4926'
p9075
sS'ragged'
p9076
S'5368'
p9077
sS'firmware'
p9078
S'234'
p9079
sS'1960'
p9080
S'5307'
p9081
sS'isolated'
p9082
S'3992'
p9083
sS'oriented'
p9084
S'3542'
p9085
sS'snob'
p9086
S'3998'
p9087
sS'effectiveness'
p9088
S'4930'
p9089
sS'rides'
p9090
S'3188'
p9091
sS'clunky'
p9092
S'4035'
p9093
sS'gretch'
p9094
S'5027'
p9095
sS'tortex'
p9096
S'548'
p9097
sS'audition'
p9098
S'3868'
p9099
sS'preset'
p9100
S'2593'
p9101
sS'plenty'
p9102
S'641'
p9103
sS'coil'
p9104
S'1429'
p9105
sS'coin'
p9106
S'4422'
p9107
sS'metal'
p9108
S'145'
p9109
sS'reputation'
p9110
S'572'
p9111
sS'overpriced'
p9112
S'877'
p9113
sS'contacted'
p9114
S'4325'
p9115
sS'plectrum'
p9116
S'4758'
p9117
sS'random'
p9118
S'5471'
p9119
sS'pops'
p9120
S'1523'
p9121
sS'colors'
p9122
S'1310'
p9123
sS'reissue'
p9124
S'921'
p9125
sS'radio'
p9126
S'2349'
p9127
sS'solutions'
p9128
S'5277'
p9129
sS'earth'
p9130
S'4132'
p9131
sS'peddle'
p9132
S'5110'
p9133
sS'situations'
p9134
S'166'
p9135
sS'delays'
p9136
S'3089'
p9137
sS'ocd'
p9138
S'745'
p9139
sS'borrowed'
p9140
S'2178'
p9141
sS'squeaking'
p9142
S'5423'
p9143
sS'watch'
p9144
S'846'
p9145
sS'fluid'
p9146
S'2768'
p9147
sS'gogo'
p9148
S'5649'
p9149
sS'amazon'
p9150
S'519'
p9151
sS'report'
p9152
S'3454'
p9153
sS'toolbox'
p9154
S'5197'
p9155
sS'plush'
p9156
S'1135'
p9157
sS'boring'
p9158
S'4724'
p9159
sS'adapters'
p9160
S'1273'
p9161
sS'thumbs'
p9162
S'2336'
p9163
sS'habit'
p9164
S'2862'
p9165
sS'nut'
p9166
S'995'
p9167
sS'resist'
p9168
S'3297'
p9169
sS'disturbing'
p9170
S'4356'
p9171
sS'slotted'
p9172
S'1020'
p9173
sS'1202fx'
p9174
S'5763'
p9175
sS'continually'
p9176
S'2247'
p9177
sS'finger'
p9178
S'889'
p9179
sS'approach'
p9180
S'3565'
p9181
sS'360'
p9182
S'4716'
p9183
sS'cajun'
p9184
S'5734'
p9185
sS'oxidation'
p9186
S'5571'
p9187
sS'confusion'
p9188
S'4520'
p9189
sS'weak'
p9190
S'1358'
p9191
sS'boss'
p9192
S'746'
p9193
sS'wear'
p9194
S'301'
p9195
sS'bose'
p9196
S'4618'
p9197
sS'improve'
p9198
S'376'
p9199
sS'hours'
p9200
S'761'
p9201
sS'protect'
p9202
S'1322'
p9203
sS'rhythms'
p9204
S'1660'
p9205
sS'fault'
p9206
S'2528'
p9207
sS'disengage'
p9208
S'5744'
p9209
sS'players'
p9210
S'806'
p9211
sS'layered'
p9212
S'4883'
p9213
sS'furry'
p9214
S'5778'
p9215
sS'variance'
p9216
S'2751'
p9217
sS'expense'
p9218
S'3771'
p9219
sS'trust'
p9220
S'372'
p9221
sS'truss'
p9222
S'2960'
p9223
sS'november'
p9224
S'5405'
p9225
sS'3-band'
p9226
S'5319'
p9227
sS'casters'
p9228
S'3925'
p9229
sS'beef'
p9230
S'5354'
p9231
sS'muddied'
p9232
S'5563'
p9233
sS'confident'
p9234
S'2694'
p9235
sS'beer'
p9236
S'1833'
p9237
sS'spread'
p9238
S'1687'
p9239
sS'xm8500'
p9240
S'4592'
p9241
sS'expected'
p9242
S'676'
p9243
sS'anchors'
p9244
S'1015'
p9245
sS'snips'
p9246
S'5328'
p9247
sS'catch'
p9248
S'1045'
p9249
sS'combos'
p9250
S'5608'
p9251
sS'lesser'
p9252
S'1967'
p9253
sS'cracked'
p9254
S'3345'
p9255
sS'tremelo'
p9256
S'1445'
p9257
sS'accessories'
p9258
S'2765'
p9259
sS'exterior'
p9260
S'1131'
p9261
sS'powers'
p9262
S'2658'
p9263
sS'wound'
p9264
S'2982'
p9265
sS'drawback'
p9266
S'3485'
p9267
sS'screw'
p9268
S'1600'
p9269
sS'pinstripe'
p9270
S'2597'
p9271
sS'riffs'
p9272
S'2639'
p9273
sS'cycle'
p9274
S'4943'
p9275
sS'mentioning'
p9276
S'2801'
p9277
sS'shortly'
p9278
S'2323'
p9279
sS'lcd'
p9280
S'1778'
p9281
sS'savings'
p9282
S'4709'
p9283
sS'mother'
p9284
S'5256'
p9285
sS'harmonist'
p9286
S'3418'
p9287
sS'laptop'
p9288
S'498'
p9289
sS'transporting'
p9290
S'449'
p9291
sS'functionally'
p9292
S'4141'
p9293
sS'5x'
p9294
S'4887'
p9295
sS'vibration'
p9296
S'474'
p9297
sS'cherry'
p9298
S'3144'
p9299
sS'5w'
p9300
S'5213'
p9301
sS'patching'
p9302
S'2772'
p9303
sS'keyser'
p9304
S'4287'
p9305
sS'12ax7'
p9306
S'3706'
p9307
sS'bands'
p9308
S'1482'
p9309
sS'breaks'
p9310
S'1587'
p9311
sS'rip'
p9312
S'4317'
p9313
sS'judge'
p9314
S'2095'
p9315
sS'advanced'
p9316
S'2267'
p9317
sS'ditto'
p9318
S'3941'
p9319
sS'59'
p9320
S'5728'
p9321
sS'58'
p9322
S'4372'
p9323
sS'gift'
p9324
S'1350'
p9325
sS'57'
p9326
S'802'
p9327
sS'hunt'
p9328
S'1674'
p9329
sS'50'
p9330
S'400'
p9331
sS'godin'
p9332
S'5358'
p9333
sS'specific'
p9334
S'2160'
p9335
sS'5*'
p9336
S'5720'
p9337
sS'hung'
p9338
S'3367'
p9339
sS'stringing'
p9340
S'3891'
p9341
sS'zoom'
p9342
S'3603'
p9343
sS'sponge'
p9344
S'2149'
p9345
sS'clubs'
p9346
S'3054'
p9347
sS'ice'
p9348
S'3742'
p9349
sS'christmas'
p9350
S'2963'
p9351
sS'cord'
p9352
S'675'
p9353
sS'core'
p9354
S'3167'
p9355
sS'discount'
p9356
S'5013'
p9357
sS'plug'
p9358
S'250'
p9359
sS'celestion'
p9360
S'5316'
p9361
sS'attacks'
p9362
S'4391'
p9363
sS'surround'
p9364
S'5572'
p9365
sS'misleading'
p9366
S'4208'
p9367
sS'ensure'
p9368
S'1143'
p9369
sS'dials'
p9370
S'1645'
p9371
sS'presence'
p9372
S'4496'
p9373
sS'low-cost'
p9374
S'2541'
p9375
sS'wattage'
p9376
S'4975'
p9377
sS'accommodate'
p9378
S'4806'
p9379
sS'rounds'
p9380
S'2952'
p9381
sS'rely'
p9382
S'3841'
p9383
sS'indispensable'
p9384
S'4482'
p9385
sS'transform'
p9386
S'5045'
p9387
sS'sunlight'
p9388
S'4732'
p9389
sS'gig'
p9390
S'283'
p9391
sS'stuck'
p9392
S'1392'
p9393
sS'questionable'
p9394
S'3600'
p9395
sS'head'
p9396
S'1206'
p9397
sS'medium'
p9398
S'406'
p9399
sS'amateur'
p9400
S'4123'
p9401
sS'attempted'
p9402
S'4565'
p9403
sS'differences'
p9404
S'221'
p9405
sS'removes'
p9406
S'1817'
p9407
sS'remover'
p9408
S'4229'
p9409
sS'sustainer'
p9410
S'2633'
p9411
sS'wireless'
p9412
S'3979'
p9413
sS'heat'
p9414
S'3322'
p9415
sS'hear'
p9416
S'484'
p9417
sS'sustained'
p9418
S'2175'
p9419
sS'removed'
p9420
S'2910'
p9421
sS'behringers'
p9422
S'5115'
p9423
sS'versions'
p9424
S'2213'
p9425
sS'bargain'
p9426
S'1941'
p9427
sS'ruined'
p9428
S'3612'
p9429
sS'latch'
p9430
S'3208'
p9431
sS'trim'
p9432
S'3084'
p9433
sS'shined'
p9434
S'2618'
p9435
sS'shines'
p9436
S'1788'
p9437
sS'annoying'
p9438
S'1387'
p9439
sS'check'
p9440
S'1275'
p9441
sS'constructed'
p9442
S'110'
p9443
sS'looked'
p9444
S'1126'
p9445
sS'faithful'
p9446
S'4643'
p9447
sS'cos'
p9448
S'5804'
p9449
sS'ny'
p9450
S'5594'
p9451
sS'tin'
p9452
S'2005'
p9453
sS'setting'
p9454
S'1242'
p9455
sS'tie'
p9456
S'1427'
p9457
sS'ns'
p9458
S'4140'
p9459
sS'unbalanced'
p9460
S'1548'
p9461
sS'picture'
p9462
S'1760'
p9463
sS'scratchy'
p9464
S'2256'
p9465
sS'faster'
p9466
S'336'
p9467
sS'bullet'
p9468
S'3660'
p9469
sS'well-designed'
p9470
S'4504'
p9471
sS'fasten'
p9472
S'2380'
p9473
sS'stacks'
p9474
S'4142'
p9475
sS'neighbors'
p9476
S'1871'
p9477
sS'remarkable'
p9478
S'4458'
p9479
sS'rod'
p9480
S'2656'
p9481
sS'focus'
p9482
S'3669'
p9483
sS'leads'
p9484
S'3184'
p9485
sS'/'
p9486
S'2832'
p9487
sS'displaying'
p9488
S'5546'
p9489
sS'row'
p9490
S'3762'
p9491
sS'environment'
p9492
S'1666'
p9493
sS'charge'
p9494
S'2054'
p9495
sS'polishes'
p9496
S'1818'
p9497
sS'advantage'
p9498
S'1421'
p9499
sS'frequencies'
p9500
S'1521'
p9501
sS'sloppy'
p9502
S'1903'
p9503
sS'flanger'
p9504
S'3317'
p9505
sS'screw-in'
p9506
S'5561'
p9507
sS'cool'
p9508
S'137'
p9509
sS'impressive'
p9510
S'3869'
p9511
sS'level'
p9512
S'1147'
p9513
sS'posts'
p9514
S'1093'
p9515
sS'brother'
p9516
S'2439'
p9517
sS'standards'
p9518
S'4661'
p9519
sS'quick'
p9520
S'1313'
p9521
sS'lever'
p9522
S'3035'
p9523
sS'g7th'
p9524
S'2070'
p9525
sS'dries'
p9526
S'4676'
p9527
sS'tougher'
p9528
S'2211'
p9529
sS'installing'
p9530
S'91'
p9531
sS'dried'
p9532
S'4361'
p9533
sS'port'
p9534
S'1742'
p9535
sS'stands'
p9536
S'403'
p9537
sS'pleased'
p9538
S'992'
p9539
sS'lucille'
p9540
S'5774'
p9541
sS'reply'
p9542
S'4376'
p9543
sS'water'
p9544
S'2134'
p9545
sS'witch'
p9546
S'5380'
p9547
sS'noticeable'
p9548
S'590'
p9549
sS'resonance'
p9550
S'3846'
p9551
sS'noticeably'
p9552
S'3773'
p9553
sS'tweak'
p9554
S'199'
p9555
sS'compare'
p9556
S'204'
p9557
sS'1st'
p9558
S'2784'
p9559
sS'bulbs'
p9560
S'1691'
p9561
sS'handled'
p9562
S'4242'
p9563
sS'handles'
p9564
S'1459'
p9565
sS'andy'
p9566
S'4327'
p9567
sS'iphone'
p9568
S'3366'
p9569
sS'memory'
p9570
S'549'
p9571
sS'riot'
p9572
S'4234'
p9573
sS'sessions'
p9574
S'2082'
p9575
sS'clicking'
p9576
S'972'
p9577
sS'outputs'
p9578
S'2501'
p9579
sS'smudges'
p9580
S'4874'
p9581
sS'm-audio'
p9582
S'4509'
p9583
sS'unscrewed'
p9584
S'2347'
p9585
sS'dialed'
p9586
S'2838'
p9587
sS'local'
p9588
S'1016'
p9589
sS'modified'
p9590
S'753'
p9591
sS'slightest'
p9592
S'2457'
p9593
sS'usability'
p9594
S'3775'
p9595
sS'performer'
p9596
S'3877'
p9597
sS'figure'
p9598
S'625'
p9599
sS'stroke'
p9600
S'4398'
p9601
sS'dropped'
p9602
S'2844'
p9603
sS'counting'
p9604
S'5659'
p9605
sS'requirements'
p9606
S'3910'
p9607
sS'secured'
p9608
S'1796'
p9609
sg610
S'180'
p9610
sS'fourth'
p9611
S'3256'
p9612
sS'coiled'
p9613
S'4506'
p9614
sS'levy'
p9615
S'2947'
p9616
sS'clone'
p9617
S'2083'
p9618
sS'granddaughter'
p9619
S'3943'
p9620
sS'birthday'
p9621
S'5219'
p9622
sS'unbelievably'
p9623
S'5369'
p9624
sS'classroom'
p9625
S'4790'
p9626
sS'liquid'
p9627
S'5585'
p9628
sS'compressing'
p9629
S'2847'
p9630
sS'reaper'
p9631
S'4597'
p9632
sS'refund'
p9633
S'2932'
p9634
sS'acts'
p9635
S'3001'
p9636
sS'ymmv'
p9637
S'5655'
p9638
sS'worship'
p9639
S'2495'
p9640
sS'platform'
p9641
S'3715'
p9642
sS'offers'
p9643
S'3162'
p9644
sS'happened'
p9645
S'4148'
p9646
sS'bound'
p9647
S'4720'
p9648
sS'underneath'
p9649
S'1335'
p9650
sS'term'
p9651
S'4240'
p9652
sS'corners'
p9653
S'3262'
p9654
sS'possibilities'
p9655
S'3437'
p9656
sS'realistic'
p9657
S'3700'
p9658
sS'individually'
p9659
S'3408'
p9660
sS'weighted'
p9661
S'1729'
p9662
sS'cm-2'
p9663
S'3239'
p9664
sS'adequately'
p9665
S'1139'
p9666
sS'intended'
p9667
S'1066'
p9668
sS'ultimately'
p9669
S'3497'
p9670
sS'factors'
p9671
S'5103'
p9672
sS'profit'
p9673
S'4147'
p9674
sS'mkii'
p9675
S'4905'
p9676
sS'factory'
p9677
S'2588'
p9678
sS'ts-9'
p9679
S'3508'
p9680
sS'advice'
p9681
S'2252'
p9682
sS'bolts'
p9683
S'3676'
p9684
sS'electrified'
p9685
S'3080'
p9686
sS'high-gain'
p9687
S'5697'
p9688
sS'100+'
p9689
S'2482'
p9690
sS'yup'
p9691
S'4016'
p9692
sS'motion'
p9693
S'3128'
p9694
sS'swing'
p9695
S'1485'
p9696
sS'discontinued'
p9697
S'4133'
p9698
sS'1000'
p9699
S'1573'
p9700
sS'ibanez'
p9701
S'1214'
p9702
sS'workbench'
p9703
S'5533'
p9704
sS'clumsy'
p9705
S'1874'
p9706
sS'array'
p9707
S'5093'
p9708
sS'george'
p9709
S'3021'
p9710
sS'engineer'
p9711
S'2061'
p9712
sS'molded'
p9713
S'1181'
p9714
sS'plastic'
p9715
S'279'
p9716
sS'returns'
p9717
S'4886'
p9718
sS'white'
p9719
S'1153'
p9720
sS'hub'
p9721
S'5088'
p9722
sS'tubescreamer'
p9723
S'3798'
p9724
sS'hum'
p9725
S'1505'
p9726
sS'wax'
p9727
S'4822'
p9728
sS'screwing'
p9729
S'4054'
p9730
sS'released'
p9731
S'2672'
p9732
sS'alas'
p9733
S'4227'
p9734
sS'copy'
p9735
S'3292'
p9736
sS'holder'
p9737
S'637'
p9738
sS'wide'
p9739
S'286'
p9740
sS'require'
p9741
S'483'
p9742
sS'computer'
p9743
S'1465'
p9744
sS'aesthetic'
p9745
S'4884'
p9746
sS'cards'
p9747
S'2882'
p9748
sS'dissapointed'
p9749
S'3090'
p9750
sS'pre'
p9751
S'2591'
p9752
sS'register'
p9753
S'3862'
p9754
sS'fc4'
p9755
S'5490'
p9756
sS'pro'
p9757
S'226'
p9758
sS'measure'
p9759
S'1142'
p9760
sS'mates'
p9761
S'1531'
p9762
sS'prs'
p9763
S'979'
p9764
sS'preamps'
p9765
S'3883'
p9766
sS'sells'
p9767
S'2415'
p9768
sS'conversion'
p9769
S'4014'
p9770
sS'ideas'
p9771
S'4400'
p9772
sS'phillips'
p9773
S'3717'
p9774
sS'ideal'
p9775
S'3267'
p9776
sS'strengths'
p9777
S'2921'
p9778
sS'surf'
p9779
S'4300'
p9780
sS'urge'
p9781
S'3506'
p9782
sS'polyphonic'
p9783
S'5542'
p9784
sS'multiple'
p9785
S'1711'
p9786
sS'clearer'
p9787
S'1680'
p9788
sS'falls'
p9789
S'3153'
p9790
sS'considered'
p9791
S'1466'
p9792
sS'grovers'
p9793
S'2991'
p9794
sS'readjust'
p9795
S'5545'
p9796
sS'cluttering'
p9797
S'4304'
p9798
sS'uncle'
p9799
S'3604'
p9800
sS'senior'
p9801
S'5809'
p9802
sS'applicator'
p9803
S'2516'
p9804
sS'quantity'
p9805
S'3906'
p9806
sS'drastically'
p9807
S'4146'
p9808
sS'spaced'
p9809
S'2776'
p9810
sS'cheap'
p9811
S'109'
p9812
sS'spaces'
p9813
S'3114'
p9814
sS'faders'
p9815
S'4484'
p9816
sS'p-90'
p9817
S'4688'
p9818
sS'genius'
p9819
S'3307'
p9820
sS'shimmer'
p9821
S'5397'
p9822
sS'wood'
p9823
S'639'
p9824
sS'lighted'
p9825
S'5381'
p9826
sS'jazz'
p9827
S'124'
p9828
sS'expectation'
p9829
S'4852'
p9830
sS'lighter'
p9831
S'968'
p9832
sS'distortion'
p9833
S'722'
p9834
sS'freaking'
p9835
S'2128'
p9836
sS'aluminum'
p9837
S'2104'
p9838
sS'th-2000-s'
p9839
S'4492'
p9840
sS'microphones'
p9841
S'2480'
p9842
sS'connections'
p9843
S'1359'
p9844
sS'turntable'
p9845
S'2116'
p9846
sS'surfaces'
p9847
S'1909'
p9848
sS'fails'
p9849
S'1588'
p9850
sS'detect'
p9851
S'297'
p9852
sS'spares'
p9853
S'3137'
p9854
sS'crooked'
p9855
S'3929'
p9856
sS'review'
p9857
S'391'
p9858
sS'definite'
p9859
S'1692'
p9860
sS'hiss'
p9861
S'2022'
p9862
sS'arrival'
p9863
S'4266'
p9864
sS'messed'
p9865
S'334'
p9866
sS'comp'
p9867
S'775'
p9868
sS'fiddling'
p9869
S'3976'
p9870
sS'comb'
p9871
S'5274'
p9872
sS'reaction'
p9873
S'4000'
p9874
sS'archtop'
p9875
S'3860'
p9876
sS'region'
p9877
S'5647'
p9878
sS'quiet'
p9879
S'1670'
p9880
sS'duty'
p9881
S'57'
p9882
sS'color'
p9883
S'669'
p9884
sS'kazoo'
p9885
S'4263'
p9886
sS'pot'
p9887
S'3920'
p9888
sS'period'
p9889
S'716'
p9890
sS'insist'
p9891
S'4193'
p9892
sS'sampling'
p9893
S'2907'
p9894
sS'satisfaction'
p9895
S'3845'
p9896
sS'pole'
p9897
S'1194'
p9898
sS'64'
p9899
S'4280'
p9900
sS'65'
p9901
S'4663'
p9902
sS'66'
p9903
S'2163'
p9904
sS'pod'
p9905
S'45'
p9906
sS'rd-300nx'
p9907
S'5818'
p9908
sS'cords'
p9909
S'683'
p9910
sS'500'
p9911
S'47'
p9912
sS'v22'
p9913
S'5198'
p9914
sS'direction'
p9915
S'2553'
p9916
sS'bypass'
p9917
S'795'
p9918
sS'careful'
p9919
S'340'
p9920
sS'irrelevant'
p9921
S'5466'
p9922
sS'pilot'
p9923
S'2686'
p9924
sS'paying'
p9925
S'570'
p9926
sS'shaft'
p9927
S'2105'
p9928
sS'mount'
p9929
S'1193'
p9930
sS'cash'
p9931
S'206'
p9932
sS'cast'
p9933
S'5291'
p9934
sS'dorky'
p9935
S'5761'
p9936
sS'slippery'
p9937
S'2530'
p9938
sS'shops'
p9939
S'3467'
p9940
sS'50s'
p9941
S'5084'
p9942
sS'clutter'
p9943
S'4022'
p9944
sS'granted'
p9945
S'2681'
p9946
sS'locking'
p9947
S'95'
p9948
sS'trip'
p9949
S'410'
p9950
sS'distilled'
p9951
S'2145'
p9952
sS'events'
p9953
S'4714'
p9954
sS'week'
p9955
S'879'
p9956
sS'driver'
p9957
S'274'
p9958
sS'drives'
p9959
S'161'
p9960
sS'muffled'
p9961
S'5332'
p9962
sS'driven'
p9963
S'4729'
p9964
sS'decently'
p9965
S'3649'
p9966
sS'delicate'
p9967
S'4966'
p9968
sS'footprint'
p9969
S'2675'
p9970
sS'changing'
p9971
S'1308'
p9972
sS'vocalist'
p9973
S'4152'
p9974
sS'asio4all'
p9975
S'4409'
p9976
sS'threaded'
p9977
S'1192'
p9978
sS'modes'
p9979
S'770'
p9980
sS'minimize'
p9981
S'2619'
p9982
sS'bodied'
p9983
S'5051'
p9984
sS'magical'
p9985
S'4120'
p9986
sS'relief'
p9987
S'4043'
p9988
sS'components'
p9989
S'2091'
p9990
sS'model'
p9991
S'127'
p9992
sS'bodies'
p9993
S'3523'
p9994
sS'justify'
p9995
S'2383'
p9996
sS'i/o'
p9997
S'4411'
p9998
sS'kill'
p9999
S'3803'
p10000
sS'polish'
p10001
S'3288'
p10002
sS'satin'
p10003
S'4849'
p10004
sS'guides'
p10005
S'4296'
p10006
sS'captured'
p10007
S'5387'
p10008
sS'halfway'
p10009
S'4769'
p10010
sS'blow'
p10011
S'4040'
p10012
sS'widest'
p10013
S'2853'
p10014
sS'hint'
p10015
S'2723'
p10016
sS'rose'
p10017
S'5637'
p10018
sS'reccomend'
p10019
S'5089'
p10020
sS'all-around'
p10021
S'1731'
p10022
sS'samples'
p10023
S'4438'
p10024
sS'sampler'
p10025
S'4925'
p10026
sS'flashing'
p10027
S'1408'
p10028
sS'styles'
p10029
S'289'
p10030
sS'kills'
p10031
S'1889'
p10032
sS'on-off'
p10033
S'5009'
p10034
sS'furniture'
p10035
S'3942'
p10036
sS'depot'
p10037
S'2684'
p10038
sS'towel'
p10039
S'4958'
p10040
sS'reduces'
p10041
S'1540'
p10042
sS'reducer'
p10043
S'1509'
p10044
sS'beefier'
p10045
S'3306'
p10046
sS'oddly'
p10047
S'4531'
p10048
sS'reduced'
p10049
S'1173'
p10050
sS'collapsible'
p10051
S'4699'
p10052
sS'competition'
p10053
S'3713'
p10054
sS'respect'
p10055
S'1533'
p10056
sS'tonally'
p10057
S'4559'
p10058
sS'intact'
p10059
S'861'
p10060
sS'provided'
p10061
S'1010'
p10062
sS'mood'
p10063
S'3517'
p10064
sS'slick'
p10065
S'1627'
p10066
sS'stops'
p10067
S'2437'
p10068
sS'moon'
p10069
S'3796'
p10070
sS'nails'
p10071
S'3851'
p10072
sS'inspect'
p10073
S'4836'
p10074
sS'ol'
p10075
S'5153'
p10076
sS'od'
p10077
S'772'
p10078
sS'gt-100'
p10079
S'4632'
p10080
sS'os'
p10081
S'229'
p10082
sS'amber'
p10083
S'4180'
p10084
sS'ladies'
p10085
S'755'
p10086
sS'instruments'
p10087
S'1381'
p10088
sS'pick-up'
p10089
S'421'
p10090
sS'determine'
p10091
S'4582'
p10092
sS'lastly'
p10093
S'4723'
p10094
sS'buds'
p10095
S'4717'
p10096
sS'strictly'
p10097
S'658'
p10098
sS'ehx'
p10099
S'1213'
p10100
sS'mm4'
p10101
S'5245'
p10102
sS'fish'
p10103
S'1362'
p10104
sS'grunge'
p10105
S'5211'
p10106
sS'juh'
p10107
S'5801'
p10108
sS'regard'
p10109
S'2833'
p10110
sS'cabinet'
p10111
S'1713'
p10112
sS'soprano'
p10113
S'3617'
p10114
sS'applying'
p10115
S'2742'
p10116
sS'doc'
p10117
S'5448'
p10118
sS'grasp'
p10119
S'3489'
p10120
sS'flats'
p10121
S'665'
p10122
sS'taylor'
p10123
S'2786'
p10124
sS'taste'
p10125
S'1364'
p10126
sS'senses'
p10127
S'1379'
p10128
sS'blues'
p10129
S'143'
p10130
sS'incorrect'
p10131
S'1762'
p10132
sS'stumbled'
p10133
S'4548'
p10134
sS'rubbed'
p10135
S'4793'
p10136
sS'idiot'
p10137
S'3466'
p10138
sS'deserve'
p10139
S'5067'
p10140
sS'rubber'
p10141
S'1481'
p10142
sS'dunlops'
p10143
S'2446'
p10144
sS'5'
p10145
S'175'
p10146
sS'dreadnought'
p10147
S'3111'
p10148
sS'trash'
p10149
S'4819'
p10150
sS'requested'
p10151
S'4246'
p10152
sS'separate'
p10153
S'1447'
p10154
sS'includes'
p10155
S'3978'
p10156
sS'bullets'
p10157
S'1782'
p10158
sS'included'
p10159
S'134'
p10160
sS'edirol'
p10161
S'5769'
p10162
sS'brass'
p10163
S'1145'
p10164
sS'prongs'
p10165
S'1971'
p10166
sS'onespot'
p10167
S'1802'
p10168
sS'applause'
p10169
S'5645'
p10170
sS'teles'
p10171
S'779'
p10172
sS'wife'
p10173
S'1434'
p10174
sS'invest'
p10175
S'390'
p10176
sS'sat800'
p10177
S'3781'
p10178
sS'curve'
p10179
S'3422'
p10180
sS'websites'
p10181
S'2034'
p10182
sS'lace'
p10183
S'3687'
p10184
sS'chinese'
p10185
S'1735'
p10186
sS'lack'
p10187
S'530'
p10188
sS'disc'
p10189
S'4608'
p10190
sS'follow'
p10191
S'2990'
p10192
sS'disk'
p10193
S'5147'
p10194
sS'decisions'
p10195
S'4962'
p10196
sS'polarity'
p10197
S'1270'
p10198
sS'apartment'
p10199
S'178'
p10200
sS'lining'
p10201
S'1741'
p10202
sS'extraneous'
p10203
S'2402'
p10204
sS'removal'
p10205
S'4667'
p10206
sS'program'
p10207
S'918'
p10208
sS'presentation'
p10209
S'4082'
p10210
sS'worse'
p10211
S'357'
p10212
sS'song'
p10213
S'931'
p10214
sS'alternatives'
p10215
S'3212'
p10216
sS'fat'
p10217
S'969'
p10218
sS'worst'
p10219
S'1898'
p10220
sS'fab'
p10221
S'3315'
p10222
sS'sony'
p10223
S'2966'
p10224
sS'ticket'
p10225
S'5741'
p10226
sS'morley'
p10227
S'3389'
p10228
sS'list'
p10229
S'1433'
p10230
sS'prolonged'
p10231
S'3433'
p10232
sS'undone'
p10233
S'3879'
p10234
sS'ten'
p10235
S'2627'
p10236
sS'tea'
p10237
S'5056'
p10238
sS'built-in'
p10239
S'3380'
p10240
sS'rate'
p10241
S'929'
p10242
sS'design'
p10243
S'1044'
p10244
sS'functioning'
p10245
S'4556'
p10246
sS'hesitation'
p10247
S'1681'
p10248
sS'gunk'
p10249
S'5038'
p10250
sS'sun'
p10251
S'2109'
p10252
sS'sum'
p10253
S'4332'
p10254
sS'anniversary'
p10255
S'4572'
p10256
sS'overload'
p10257
S'4805'
p10258
sS'crush'
p10259
S'2704'
p10260
sS'version'
p10261
S'546'
p10262
sS'me-70'
p10263
S'4098'
p10264
sS'discern'
p10265
S'5010'
p10266
sS'multitude'
p10267
S'5435'
p10268
sS'lacquer'
p10269
S'5280'
p10270
sS'midrange'
p10271
S'1537'
p10272
sS'condenser'
p10273
S'2184'
p10274
sS'compressed'
p10275
S'5450'
p10276
sS'directions'
p10277
S'2505'
p10278
sS'pleasant'
p10279
S'1830'
p10280
sS'miniature'
p10281
S'3169'
p10282
sS'crybaby'
p10283
S'4553'
p10284
sS'acoustic-electric'
p10285
S'4264'
p10286
sS'micing'
p10287
S'5305'
p10288
sS'options'
p10289
S'219'
p10290
sS'sticking'
p10291
S'860'
p10292
sS'thankfully'
p10293
S'5293'
p10294
sS'suddenly'
p10295
S'1668'
p10296
sS'screens'
p10297
S'1415'
p10298
sS'snug'
p10299
S'1060'
p10300
sS'fulltone'
p10301
S'1239'
p10302
sS'inlay'
p10303
S'5257'
p10304
sS'dissatisfied'
p10305
S'5454'
p10306
sS'branded'
p10307
S'5169'
p10308
sS'converters'
p10309
S'5517'
p10310
sS'minor'
p10311
S'1745'
p10312
sS'flat'
p10313
S'776'
p10314
sS'flaw'
p10315
S'2812'
p10316
sS'bumped'
p10317
S'2275'
p10318
sS'owners'
p10319
S'3309'
p10320
sS'floyd'
p10321
S'4335'
p10322
sS'stick'
p10323
S'1058'
p10324
sS'mellow'
p10325
S'3164'
p10326
sS'glad'
p10327
S'96'
p10328
sS'shielded'
p10329
S'4381'
p10330
sS'ac-3'
p10331
S'3569'
p10332
sS'caveat'
p10333
S'5263'
p10334
sS'pony'
p10335
S'1759'
p10336
sS'challenging'
p10337
S'5422'
p10338
sS'joints'
p10339
S'5512'
p10340
sS'protects'
p10341
S'638'
p10342
sS'imitation'
p10343
S'3023'
p10344
sS'airplane'
p10345
S'2762'
p10346
sS'el84'
p10347
S'5796'
p10348
sS'goal'
p10349
S'3048'
p10350
sS'breaking'
p10351
S'1320'
p10352
sS'occasionally'
p10353
S'1822'
p10354
sS'simplicity'
p10355
S'3800'
p10356
sS'sabine'
p10357
S'3691'
p10358
sS'sandwich'
p10359
S'4055'
p10360
sS'emulate'
p10361
S'2587'
p10362
sS'lighting'
p10363
S'1301'
p10364
sS'ballads'
p10365
S'3432'
p10366
sS'shortcomings'
p10367
S'4134'
p10368
sS'short'
p10369
S'947'
p10370
sS'footer'
p10371
S'4044'
p10372
sS'prefers'
p10373
S'4911'
p10374
sS'stash'
p10375
S'1887'
p10376
sS'shore'
p10377
S'5417'
p10378
sS'shade'
p10379
S'1683'
p10380
sS'rotate'
p10381
S'4020'
p10382
sS'gauges'
p10383
S'3136'
p10384
sS'developed'
p10385
S'1386'
p10386
sS'isnt'
p10387
S'353'
p10388
sS'mandolins'
p10389
S'3125'
p10390
sS'forgiving'
p10391
S'5337'
p10392
sS'style'
p10393
S'582'
p10394
sS'susceptible'
p10395
S'2186'
p10396
sS'sale'
p10397
S'1860'
p10398
sS'acoustical'
p10399
S'2405'
p10400
sS'strange'
p10401
S'1657'
p10402
sS'bout'
p10403
S'3108'
p10404
sS'alter'
p10405
S'936'
p10406
sS'return'
p10407
S'711'
p10408
sS'generously'
p10409
S'1255'
p10410
sS'grippy'
p10411
S'3515'
p10412
sS'inch'
p10413
S'1937'
p10414
sS'spring-loaded'
p10415
S'4924'
p10416
sS'smoothness'
p10417
S'4668'
p10418
sS'bigger'
p10419
S'379'
p10420
sS'instructions'
p10421
S'2277'
p10422
sS'inherent'
p10423
S'3282'
p10424
sS'weighs'
p10425
S'1948'
p10426
sS'weight'
p10427
S'456'
p10428
sS'needless'
p10429
S'1028'
p10430
sS'generation'
p10431
S'4469'
p10432
sS'expect'
p10433
S'1001'
p10434
sS'scratching'
p10435
S'1651'
p10436
sS'wondered'
p10437
S'5553'
p10438
sS'dm70'
p10439
S'5819'
p10440
sS'shipment'
p10441
S'1493'
p10442
sS'fiber'
p10443
S'4832'
p10444
sS'friday'
p10445
S'4830'
p10446
sS'pedalboard'
p10447
S'937'
p10448
sS'experimenting'
p10449
S'2381'
p10450
sS'heads'
p10451
S'1022'
p10452
sS'teach'
p10453
S'2493'
p10454
sS'generate'
p10455
S'4456'
p10456
sS'thrown'
p10457
S'3024'
p10458
sS'thread'
p10459
S'1034'
p10460
sS'circuit'
p10461
S'2652'
p10462
sS'fallen'
p10463
S'2207'
p10464
sS'solidly'
p10465
S'828'
p10466
sS'ding'
p10467
S'4030'
p10468
sS'swipe'
p10469
S'5707'
p10470
sS'feel'
p10471
S'81'
p10472
sS'fancy'
p10473
S'871'
p10474
sS'traveled'
p10475
S'5062'
p10476
sS'well-known'
p10477
S'5392'
p10478
sS'defects'
p10479
S'2576'
p10480
sS'manhasset'
p10481
S'4892'
p10482
sS'story'
p10483
S'2667'
p10484
sS'temperature'
p10485
S'4080'
p10486
sS'script'
p10487
S'4694'
p10488
sS'leading'
p10489
S'3874'
p10490
sS'interviews'
p10491
S'5503'
p10492
sS'grime'
p10493
S'3191'
p10494
sS'comfy'
p10495
S'4795'
p10496
sS'hangs'
p10497
S'1030'
p10498
sS'passed'
p10499
S'4869'
p10500
sS'store'
p10501
S'821'
p10502
sS'statement'
p10503
S'2670'
p10504
sS'hotel'
p10505
S'1869'
p10506
sS'alesis'
p10507
S'1927'
p10508
sS'luckily'
p10509
S'3995'
p10510
sS'dulcimer'
p10511
S'3079'
p10512
sS'convinced'
p10513
S'2914'
p10514
sS'versatility'
p10515
S'801'
p10516
sS'albeit'
p10517
S'285'
p10518
sS'compartment'
p10519
S'1138'
p10520
sS'5-star'
p10521
S'4660'
p10522
sS'double'
p10523
S'1353'
p10524
sS'instruction'
p10525
S'5384'
p10526
sS'dano'
p10527
S'5781'
p10528
sS'outdoors'
p10529
S'1636'
p10530
sS'dang'
p10531
S'5053'
p10532
sS'cleaner'
p10533
S'2592'
p10534
sS'outstanding'
p10535
S'1329'
p10536
sS'alike'
p10537
S'5521'
p10538
sS'cleaned'
p10539
S'1000'
p10540
sS'pickholder'
p10541
S'4789'
p10542
sS'nights'
p10543
S'4907'
p10544
sS'moist'
p10545
S'4283'
p10546
sS'finding'
p10547
S'786'
p10548
sS'banjo'
p10549
S'829'
p10550
sS'buff'
p10551
S'3549'
p10552
sS'audio-technica'
p10553
S'2418'
p10554
sS'electric'
p10555
S'254'
p10556
sS'warnings'
p10557
S'5469'
p10558
sS'customize'
p10559
S'4489'
p10560
sS'measures'
p10561
S'4697'
p10562
sS'reach'
p10563
S'2032'
p10564
sS'react'
p10565
S'4321'
p10566
sS'76'
p10567
S'5250'
p10568
sS'75'
p10569
S'1568'
p10570
sS'72'
p10571
S'4157'
p10572
sS'70'
p10573
S'2290'
p10574
sS'measured'
p10575
S'3632'
p10576
sS'dealers'
p10577
S'5137'
p10578
sS'windows'
p10579
S'224'
p10580
sS'traditional'
p10581
S'2417'
p10582
sS'notch'
p10583
S'2094'
p10584
sS'lying'
p10585
S'1659'
p10586
sS'bending'
p10587
S'1556'
p10588
sS'epiphones'
p10589
S'1993'
p10590
sS'mexico'
p10591
S'5701'
p10592
sS'fond'
p10593
S'1306'
p10594
sS'cds'
p10595
S'4834'
p10596
sS'costing'
p10597
S'4038'
p10598
sS'securing'
p10599
S'4363'
p10600
sS'uca202'
p10601
S'3701'
p10602
sS'windings'
p10603
S'4430'
p10604
sS'hip'
p10605
S'5750'
p10606
sS'hit'
p10607
S'1677'
p10608
sS'gains'
p10609
S'5502'
p10610
sS'whistle'
p10611
S'4598'
p10612
sS'cs-3'
p10613
S'5249'
p10614
sS'stamp'
p10615
S'5641'
p10616
sS'watched'
p10617
S'3630'
p10618
sS'wrote'
p10619
S'2112'
p10620
sS'bars'
p10621
S'2894'
p10622
sS'art'
p10623
S'2771'
p10624
sS'achieved'
p10625
S'4046'
p10626
sS'intelli'
p10627
S'2538'
p10628
sS'dumb'
p10629
S'5215'
p10630
sS'arm'
p10631
S'1303'
p10632
sS'distinctive'
p10633
S'5039'
p10634
sS'plywood'
p10635
S'3122'
p10636
sS'contrary'
p10637
S'4008'
p10638
sS'numerous'
p10639
S'4155'
p10640
sS'blurb'
p10641
S'5623'
p10642
sS'solo'
p10643
S'970'
p10644
sS'creating'
p10645
S'2468'
p10646
sS'initially'
p10647
S'742'
p10648
sS'sold'
p10649
S'822'
p10650
sS'attention'
p10651
S'2001'
p10652
sS'relying'
p10653
S'5266'
p10654
sS'bronze'
p10655
S'3124'
p10656
sS'hesitant'
p10657
S'93'
p10658
sS'rollers'
p10659
S'4297'
p10660
sS'reasons'
p10661
S'731'
p10662
sS'sweet'
p10663
S'1834'
p10664
sS'sweep'
p10665
S'3206'
p10666
sS'rave'
p10667
S'4345'
p10668
sS'slots'
p10669
S'2745'
p10670
sS'seiko'
p10671
S'3692'
p10672
sS'duh'
p10673
S'4339'
p10674
sS'ps'
p10675
S'4366'
p10676
sS'pw'
p10677
S'2943'
p10678
sS'duo'
p10679
S'4605'
p10680
sS'dud'
p10681
S'2611'
p10682
sS'appears'
p10683
S'1876'
p10684
sS'pb'
p10685
S'5482'
p10686
sS'pc'
p10687
S'3702'
p10688
sS'reduction'
p10689
S'1520'
p10690
sS'pa'
p10691
S'269'
p10692
sS'brick'
p10693
S'3226'
p10694
sS'pi'
p10695
S'4679'
p10696
sS'flight'
p10697
S'1867'
p10698
sS'sending'
p10699
S'2908'
p10700
sS'precision'
p10701
S'3582'
p10702
sS'well-made'
p10703
S'3413'
p10704
sS'demand'
p10705
S'2137'
p10706
sS'rocking'
p10707
S'3240'
p10708
sS'instructor'
p10709
S'5149'
p10710
sS'stolen'
p10711
S'4951'
p10712
sS'thirty'
p10713
S'4591'
p10714
sS'batch'
p10715
S'4003'
p10716
sS'corrode'
p10717
S'4677'
p10718
sS'tweaking'
p10719
S'198'
p10720
sS'kick'
p10721
S'1189'
p10722
sS'behavior'
p10723
S'248'
p10724
sS'engineers'
p10725
S'3707'
p10726
sS'knob'
p10727
S'153'
p10728
sS'gel'
p10729
S'3956'
p10730
sS'bluegrass'
p10731
S'2790'
p10732
sS'leans'
p10733
S'1571'
p10734
sS'higher-end'
p10735
S'2046'
p10736
sS'disappointing'
p10737
S'2063'
p10738
sS'demos'
p10739
S'946'
p10740
sS'rig'
p10741
S'97'
p10742
sS'rid'
p10743
S'1737'
p10744
sS'lengthy'
p10745
S'2230'
p10746
sS'shirt'
p10747
S'3583'
p10748
sS'lengths'
p10749
S'700'
p10750
sS'9'
p10751
S'1471'
p10752
sS'advise'
p10753
S'4100'
p10754
sS'daughters'
p10755
S'3614'
p10756
sS'arrives'
p10757
S'3913'
p10758
sS'moving'
p10759
S'663'
p10760
sS'robust'
p10761
S'1326'
p10762
sS'weird'
p10763
S'870'
p10764
sS'lower'
p10765
S'824'
p10766
sS'cheep'
p10767
S'4954'
p10768
sS'edge'
p10769
S'1146'
p10770
sS'ergonomic'
p10771
S'4215'
p10772
sS'questions'
p10773
S'4625'
p10774
sS'loading'
p10775
S'4439'
p10776
sS'tablet'
p10777
S'1565'
p10778
sS'exclusively'
p10779
S'2732'
p10780
sS'problematic'
p10781
S'3693'
p10782
sS'finder'
p10783
S'4919'
p10784
sS'8221'
p10785
S'4785'
p10786
sS'complaint'
p10787
S'200'
p10788
sS'vendor'
p10789
S'2885'
p10790
sS'unlimited'
p10791
S'3940'
p10792
sS'skeptical'
p10793
S'3963'
p10794
sS'modifications'
p10795
S'4695'
p10796
sS'seperate'
p10797
S'3755'
p10798
sS'shaped'
p10799
S'1581'
p10800
sS'admittedly'
p10801
S'1397'
p10802
sS'ignore'
p10803
S'2390'
p10804
sS'collect'
p10805
S'2011'
p10806
sS'unstable'
p10807
S'4763'
p10808
sS'essential'
p10809
S'726'
p10810
sS'understood'
p10811
S'5639'
p10812
sS'compressors'
p10813
S'4727'
p10814
sS'pros'
p10815
S'1508'
p10816
sS'prop'
p10817
S'3783'
p10818
sS'capos'
p10819
S'1972'
p10820
sS'retro'
p10821
S'3086'
p10822
sS'pickguards'
p10823
S'4017'
p10824
sS'elixir'
p10825
S'2264'
p10826
sS'standalone'
p10827
S'4406'
p10828
sS'violins'
p10829
S'4257'
p10830
sS'jamman'
p10831
S'4858'
p10832
sS'lifeless'
p10833
S'4877'
p10834
sS'range'
p10835
S'108'
p10836
sS'go-to'
p10837
S'584'
p10838
sS'callouses'
p10839
S'2716'
p10840
sS'strumming'
p10841
S'1613'
p10842
sS'impressed'
p10843
S'111'
p10844
sS'baggs'
p10845
S'4231'
p10846
sS'question'
p10847
S'3711'
p10848
sS'fast'
p10849
S'532'
p10850
sS'prettier'
p10851
S'4218'
p10852
sS'sections'
p10853
S'2510'
p10854
sS'polytune'
p10855
S'4857'
p10856
sS'plunge'
p10857
S'3982'
p10858
sS'flatwound'
p10859
S'2626'
p10860
sS'criteria'
p10861
S'3238'
p10862
sS'cloth'
p10863
S'1031'
p10864
sS'crank'
p10865
S'925'
p10866
sS'repeatedly'
p10867
S'2199'
p10868
sS'filed'
p10869
S'5221'
p10870
sS'upright'
p10871
S'454'
p10872
sS'junior'
p10873
S'4853'
p10874
sS'raising'
p10875
S'2713'
p10876
sS'schubb'
p10877
S'4457'
p10878
sS'telecaster'
p10879
S'1123'
p10880
sS'characteristic'
p10881
S'1928'
p10882
sS'barring'
p10883
S'4387'
p10884
sS'called'
p10885
S'1926'
p10886
sS'freak'
p10887
S'2612'
p10888
sS'worthwhile'
p10889
S'1983'
p10890
sS'warning'
p10891
S'2053'
p10892
sS'fatso'
p10893
S'5260'
p10894
sS'lemon'
p10895
S'2511'
p10896
sS'conductor'
p10897
S'4893'
p10898
sS'peace'
p10899
S'571'
p10900
sS'nick'
p10901
S'4311'
p10902
sS'parlor'
p10903
S'5028'
p10904
sS'nice'
p10905
S'345'
p10906
sS'users'
p10907
S'2377'
p10908
sS'helping'
p10909
S'4230'
p10910
sS'meaning'
p10911
S'2895'
p10912
sS'allowing'
p10913
S'1518'
p10914
sS'happier'
p10915
S'1601'
p10916
sS'vice'
p10917
S'5160'
p10918
sS'waxing'
p10919
S'5324'
p10920
sS'weights'
p10921
S'5742'
p10922
sS'scroll'
p10923
S'5687'
p10924
sS'hooks'
p10925
S'2374'
p10926
sS'resistance'
p10927
S'4467'
p10928
sS'steve'
p10929
S'5428'
p10930
sS'jimi'
p10931
S'3400'
p10932
sS'winds'
p10933
S'4707'
p10934
sS'adjustment'
p10935
S'1644'
p10936
sS'issues'
p10937
S'628'
p10938
sS'squeezing'
p10939
S'3842'
p10940
sS'stable'
p10941
S'1328'
p10942
sS'dramatically'
p10943
S'4898'
p10944
sS'wished'
p10945
S'743'
p10946
sS'engineered'
p10947
S'2653'
p10948
sS'readout'
p10949
S'2836'
p10950
sS'notes'
p10951
S'664'
p10952
sS'deals'
p10953
S'2002'
p10954
sS'dealt'
p10955
S'4974'
p10956
sS'someday'
p10957
S'2470'
p10958
sS'gripping'
p10959
S'553'
p10960
sS'cfh'
p10961
S'4803'
p10962
sS'slinkys'
p10963
S'4530'
p10964
sS'folds'
p10965
S'2280'
p10966
sS'wrestling'
p10967
S'4726'
p10968
sS'fold'
p10969
S'2731'
p10970
sS'traveling'
p10971
S'825'
p10972
sS'acid'
p10973
S'5775'
p10974
sS'makers'
p10975
S'4169'
p10976
sS'folk'
p10977
S'3043'
p10978
sS'labeled'
p10979
S'4713'
p10980
sS'waiting'
p10981
S'3361'
p10982
sS'modded'
p10983
S'5102'
p10984
sS'chose'
p10985
S'1039'
p10986
sS'degree'
p10987
S'2965'
p10988
sS'pushing'
p10989
S'2986'
p10990
sS'wraps'
p10991
S'3959'
p10992
sS'desired'
p10993
S'1686'
p10994
sS'explore'
p10995
S'4472'
p10996
sS'separation'
p10997
S'4501'
p10998
sS'lubricant'
p10999
S'4574'
p11000
sS'sexy'
p11001
S'5131'
p11002
sS'settling'
p11003
S'4940'
p11004
sS'larger'
p11005
S'426'
p11006
sS'shades'
p11007
S'4319'
p11008
sS'leaving'
p11009
S'1943'
p11010
sS'suggests'
p11011
S'4691'
p11012
sS'apple'
p11013
S'5364'
p11014
sS'scales'
p11015
S'3821'
p11016
sS'duct'
p11017
S'2471'
p11018
sS'app'
p11019
S'2108'
p11020
sS'volt'
p11021
S'1472'
p11022
sS'api'
p11023
S'5779'
p11024
sS'apply'
p11025
S'2421'
p11026
sS'fed'
p11027
S'2317'
p11028
sS'usb'
p11029
S'509'
p11030
sS'usa'
p11031
S'1632'
p11032
sS'sort'
p11033
S'928'
p11034
sS'clever'
p11035
S'4810'
p11036
sS'porch'
p11037
S'3131'
p11038
sS'inclined'
p11039
S'2478'
p11040
sS'musician'
p11041
S'73'
p11042
sS'impress'
p11043
S'689'
p11044
sS'sore'
p11045
S'32'
p11046
sS'heil'
p11047
S'3786'
p11048
sS'detects'
p11049
S'494'
p11050
sS'performed'
p11051
S'3430'
p11052
sS'proprietary'
p11053
S'4365'
p11054
sS'tax'
p11055
S'5590'
p11056
sS'dripping'
p11057
S'4890'
p11058
sS'tad'
p11059
S'950'
p11060
sS'tag'
p11061
S'2008'
p11062
sS'tab'
p11063
S'3528'
p11064
sS'serial'
p11065
S'3714'
p11066
sS'syndrome'
p11067
S'2506'
p11068
sS'sit'
p11069
S'361'
p11070
sS'fortunate'
p11071
S'843'
p11072
sS'input/output'
p11073
S'1793'
p11074
sS'struggled'
p11075
S'849'
p11076
sS'modulations'
p11077
S'5247'
p11078
sS'tension'
p11079
S'1836'
p11080
sS'abuse'
p11081
S'3266'
p11082
sS'wrist'
p11083
S'4446'
p11084
sS'martins'
p11085
S'4281'
p11086
sS'light'
p11087
S'29'
p11088
sS'straps'
p11089
S'1054'
p11090
sS'honestly'
p11091
S'725'
p11092
sS'saturated'
p11093
S'4260'
p11094
sS'stamped'
p11095
S'5549'
p11096
sS'fizzy'
p11097
S'5286'
p11098
sS'130'
p11099
S'316'
p11100
sS'boosts'
p11101
S'1234'
p11102
sS'superior'
p11103
S'1346'
p11104
sS'ships'
p11105
S'2099'
p11106
sS'presonus'
p11107
S'4604'
p11108
sS'permanent'
p11109
S'1286'
p11110
sS'choose'
p11111
S'1407'
p11112
sS'orange'
p11113
S'1502'
p11114
sS'covered'
p11115
S'1032'
p11116
sS'receptacles'
p11117
S'5780'
p11118
sS'flex'
p11119
S'3263'
p11120
sS'crash'
p11121
S'4767'
p11122
sS'richness'
p11123
S'3559'
p11124
sS'material'
p11125
S'1254'
p11126
sS'articulate'
p11127
S'4977'
p11128
sS'transmitter'
p11129
S'5036'
p11130
sS'drummers'
p11131
S'4431'
p11132
sS'edit'
p11133
S'914'
p11134
sS'fuzz'
p11135
S'159'
p11136
sS'fiddle'
p11137
S'3077'
p11138
sS'hardwire'
p11139
S'4682'
p11140
sS'champ'
p11141
S'252'
p11142
sS'economy'
p11143
S'5589'
p11144
sS'tray'
p11145
S'2527'
p11146
sS'studios'
p11147
S'2328'
p11148
sS'unbelievable'
p11149
S'1552'
p11150
sS'88'
p11151
S'3815'
p11152
sS'80'
p11153
S'2180'
p11154
sS'85'
p11155
S'4159'
p11156
sS'category'
p11157
S'2780'
p11158
sS'performs'
p11159
S'1245'
p11160
sS'at108'
p11161
S'5751'
p11162
sS'supports'
p11163
S'4279'
p11164
sS'integrated'
p11165
S'2318'
p11166
sS'humbuckers'
p11167
S'1229'
p11168
sS'elixirs'
p11169
S'75'
p11170
sS'ipod'
p11171
S'3334'
p11172
sS'polywebs'
p11173
S'4878'
p11174
sS'must-have'
p11175
S'1097'
p11176
sS'organic'
p11177
S'912'
p11178
sS'conversation'
p11179
S'4045'
p11180
sS'4th'
p11181
S'2783'
p11182
sS'insane'
p11183
S'4380'
p11184
sS'echo'
p11185
S'955'
p11186
sS'kidding'
p11187
S'1355'
p11188
sS'straight'
p11189
S'362'
p11190
sS'gigging'
p11191
S'2615'
p11192
sS'rigs'
p11193
S'5086'
p11194
sS"'78"
p11195
S'4237'
p11196
sS'shell'
p11197
S'3343'
p11198
sS'shelf'
p11199
S'4005'
p11200
sS'shallow'
p11201
S'3522'
p11202
sS'slides'
p11203
S'3589'
p11204
sS'slider'
p11205
S'3186'
p11206
sS'simulate'
p11207
S'5583'
p11208
sS'intonation'
p11209
S'2560'
p11210
sS'isolation'
p11211
S'3654'
p11212
sS'richer'
p11213
S'21'
p11214
sS'enought'
p11215
S'3996'
p11216
sS'ukuleles'
p11217
S'3011'
p11218
sS'dusty'
p11219
S'5044'
p11220
sS'encore'
p11221
S'5644'
p11222
sS'clip'
p11223
S'476'
p11224
sS'faux'
p11225
S'2372'
p11226
sS'linked'
p11227
S'5543'
p11228
sS'mid-gain'
p11229
S'5272'
p11230
sS'afraid'
p11231
S'3971'
p11232
sS'angle'
p11233
S'1951'
p11234
sS'bough'
p11235
S'5452'
p11236
sS'='
p11237
S'3042'
p11238
sS'frontman'
p11239
S'4032'
p11240
sS'cracking'
p11241
S'4725'
p11242
sS'class'
p11243
S'2522'
p11244
sS'dent'
p11245
S'5229'
p11246
sS'pipe'
p11247
S'3624'
p11248
sS'chances'
p11249
S'4449'
p11250
sS'longevity'
p11251
S'3477'
p11252
sS'purely'
p11253
S'2320'
p11254
sS'planning'
p11255
S'853'
p11256
sS'chicken'
p11257
S'5251'
p11258
sS'debate'
p11259
S'765'
p11260
sS'ear'
p11261
S'492'
p11262
sS'combo'
p11263
S'656'
p11264
sS'piano'
p11265
S'2548'
p11266
sS'thousands'
p11267
S'1998'
p11268
sS'cube'
p11269
S'4576'
p11270
sS'topple'
p11271
S'2537'
p11272
sS'990'
p11273
S'4154'
p11274
sS'watching'
p11275
S'2718'
p11276
sS'ej16'
p11277
S'5477'
p11278
sS'bronco'
p11279
S'1395'
p11280
sS'chips'
p11281
S'1363'
p11282
sS'dp-008'
p11283
S'5686'
p11284
sS'metronome'
p11285
S'1079'
p11286
sS'stitching'
p11287
S'1134'
p11288
sS'qc'
p11289
S'5376'
p11290
sS'generations'
p11291
S'5333'
p11292
sS'view'
p11293
S'3746'
p11294
sS'buzzes'
p11295
S'5577'
p11296
sS'requirement'
p11297
S'4358'
p11298
sS'acquired'
p11299
S'3189'
p11300
sS'module'
p11301
S'4432'
p11302
sS'closer'
p11303
S'1986'
p11304
sS'closes'
p11305
S'1441'
p11306
sS'closet'
p11307
S'3748'
p11308
sS'superb'
p11309
S'679'
p11310
sS'favor'
p11311
S'3319'
p11312
sS'closed'
p11313
S'3958'
p11314
sS'complement'
p11315
S'2031'
p11316
sS'bought'
p11317
g10751
sS'gooseneck'
p11318
S'1697'
p11319
sS'ability'
p11320
S'1789'
p11321
sS'joy'
p11322
S'2651'
p11323
sS'job'
p11324
g10145
sS'joe'
p11325
S'1476'
p11326
sS'tremolo'
p11327
S'902'
p11328
sS'april'
p11329
S'5723'
p11330
sS'grain'
p11331
S'3999'
p11332
sS'grail'
p11333
S'2710'
p11334
sS'safely'
p11335
S'2644'
p11336
sS'mechanics'
p11337
S'5535'
p11338
sS'wall'
p11339
S'1014'
p11340
sS'narrower'
p11341
S'3113'
p11342
sS'environments'
p11343
S'1656'
p11344
sS'walk'
p11345
S'1265'
p11346
sS'packaging'
p11347
S'112'
p11348
sS'sequences'
p11349
S'3435'
p11350
sS'table'
p11351
S'1564'
p11352
sS'decent'
p11353
S'707'
p11354
sS'bbe'
p11355
S'4200'
p11356
sS'trademark'
p11357
S'3495'
p11358
sS'charts'
p11359
S'4867'
p11360
sS'responds'
p11361
S'2900'
p11362
sS'mike'
p11363
S'1512'
p11364
sS'nickel'
p11365
S'2488'
p11366
sS'velcros'
p11367
S'3957'
p11368
sS'painted'
p11369
S'3013'
p11370
sS'sufficient'
p11371
S'1840'
p11372
sS'crappy'
p11373
S'2758'
p11374
sS'remedied'
p11375
S'2741'
p11376
sS'thermoplastic'
p11377
S'5753'
p11378
sS'dr-212'
p11379
S'4815'
p11380
sS'align'
p11381
S'3677'
p11382
sS'technica'
p11383
S'2296'
p11384
sS'choices'
p11385
S'3887'
p11386
sS'stunning'
p11387
S'2738'
p11388
sS'intellitouch'
p11389
S'4855'
p11390
sS'wild'
p11391
S'1086'
p11392
sS'cutter'
p11393
S'333'
p11394
sS'~'
p11395
S'2595'
p11396
sS'supply'
p11397
S'2020'
p11398
sS'layer'
p11399
S'2231'
p11400
sS'ringing'
p11401
S'4222'
p11402
sS'dual'
p11403
S'215'
p11404
sS'lightweight'
p11405
S'1582'
p11406
sS'vintage'
p11407
S'941'
p11408
sS'cross'
p11409
S'3804'
p11410
sS'unity'
p11411
S'3656'
p11412
sS'improves'
p11413
S'3900'
p11414
sS'largest'
p11415
S'5363'
p11416
sS'units'
p11417
S'3071'
p11418
sS'samson'
p11419
S'2294'
p11420
sS'difficult'
p11421
S'1665'
p11422
sS'definately'
p11423
S'4783'
p11424
sS'disagree'
p11425
S'3289'
p11426
sS'beast'
p11427
S'3254'
p11428
sS'radiused'
p11429
S'3261'
p11430
sS'student'
p11431
S'5656'
p11432
sS'pedal'
p11433
S'164'
p11434
sS'collar'
p11435
S'2240'
p11436
sS'timbre'
p11437
S'5499'
p11438
sS'incredible'
p11439
S'1352'
p11440
sS'unpacked'
p11441
S'5023'
p11442
sS'fighting'
p11443
S'4277'
p11444
sS'english'
p11445
S'4354'
p11446
sS'breaker'
p11447
S'4183'
p11448
sS'sensing'
p11449
S'2901'
p11450
sS'rocker'
p11451
S'4662'
p11452
sS'excessive'
p11453
S'1775'
p11454
sS'rocket'
p11455
S'5681'
p11456
sS'heavily'
p11457
S'4780'
p11458
sS'boot'
p11459
S'1163'
p11460
sS'slippage'
p11461
S'5278'
p11462
sS'batteries'
p11463
S'847'
p11464
sS'console'
p11465
S'2393'
p11466
sS'guts'
p11467
S'5100'
p11468
sS'smith'
p11469
S'1801'
p11470
sS'capabilities'
p11471
S'2394'
p11472
sS'attractive'
p11473
S'2770'
p11474
sS'skb'
p11475
S'2641'
p11476
sS'usage'
p11477
S'1290'
p11478
sS'identical'
p11479
S'2891'
p11480
sS'saturation'
p11481
S'5241'
p11482
sS'press'
p11483
S'701'
p11484
sS'helpful'
p11485
S'2479'
p11486
sS'loses'
p11487
S'2599'
p11488
sS'clutch'
p11489
S'4397'
p11490
sS'wonders'
p11491
S'4077'
p11492
sS'exceed'
p11493
S'3997'
p11494
sS'smoothly'
p11495
S'4596'
p11496
sS'scared'
p11497
S'1704'
p11498
sS'searching'
p11499
S'645'
p11500
sS'multi-track'
p11501
S'3051'
p11502
sS'cutters'
p11503
S'2218'
p11504
sS'go-dps'
p11505
S'4944'
p11506
sS'lead'
p11507
S'1088'
p11508
sS'leak'
p11509
S'3933'
p11510
sS'lean'
p11511
S'1553'
p11512
sS'leap'
p11513
S'1825'
p11514
sS'campfire'
p11515
S'2737'
p11516
sS'leader'
p11517
S'4794'
p11518
sS'locate'
p11519
S'5296'
p11520
sS'ripped'
p11521
S'5134'
p11522
sS'dangling'
p11523
S'4696'
p11524
sS'stratocasters'
p11525
S'2037'
p11526
sS'11s'
p11527
S'4579'
p11528
sS'throne'
p11529
S'5081'
p11530
sS'rare'
p11531
S'2804'
p11532
sS'carried'
p11533
S'2814'
p11534
sS'extension'
p11535
S'727'
p11536
sS'saddle'
p11537
S'23'
p11538
sS'high-end'
p11539
S'3448'
p11540
sS'universe'
p11541
S'2702'
p11542
sS'ac30'
p11543
S'5399'
p11544
sS'shipping'
p11545
S'516'
p11546
sS'carries'
p11547
S'3855'
p11548
sS'swear'
p11549
S'3735'
p11550
sS'sweat'
p11551
S'3321'
p11552
sS'warranty'
p11553
S'1391'
p11554
sS'polished'
p11555
S'1061'
p11556
sS'owe'
p11557
S'4762'
p11558
sS'headphone'
p11559
S'367'
p11560
sS'twangy'
p11561
S'3451'
p11562
sS'weather'
p11563
S'4117'
p11564
sS'promise'
p11565
S'5120'
p11566
sS'brush'
p11567
S'4764'
p11568
sS'fired'
p11569
S'4262'
p11570
sS'van'
p11571
S'2643'
p11572
sS'artifacts'
p11573
S'5016'
p11574
sS'transfer'
p11575
S'4485'
p11576
sS'apps'
p11577
S'3200'
p11578
sS'rp255'
p11579
S'5201'
p11580
sS'intention'
p11581
S'4619'
p11582
sS'build-in'
p11583
S'3777'
p11584
sS'volume'
p11585
S'416'
p11586
sS'squeeze'
p11587
S'3216'
p11588
sS'record'
p11589
S'210'
p11590
sS'cake'
p11591
S'3426'
p11592
sS'goodness'
p11593
S'875'
p11594
sS'gizmo'
p11595
S'4210'
p11596
sS'calibration'
p11597
S'1676'
p11598
sS'guitarist'
p11599
S'445'
p11600
sS'percent'
p11601
S'856'
p11602
sS'monitors'
p11603
S'1826'
p11604
sS'book'
p11605
S'1756'
p11606
sS'boom'
p11607
S'435'
p11608
sS'sick'
p11609
S'5485'
p11610
sS'long-time'
p11611
S'4149'
p11612
sS'incredibly'
p11613
S'1327'
p11614
sS'clicks'
p11615
S'985'
p11616
sS'contacting'
p11617
S'4295'
p11618
sS'conclusion'
p11619
S'3425'
p11620
sS'junk'
p11621
S'1570'
p11622
sS'kinds'
p11623
S'3520'
p11624
sS'kinda'
p11625
S'1337'
p11626
sS'squeak'
p11627
S'3461'
p11628
sS'gap'
p11629
S'998'
p11630
sS'jewel'
p11631
S'4551'
p11632
sS'volumes'
p11633
S'3253'
p11634
sS'sd-1'
p11635
S'3507'
p11636
sS'pods'
p11637
S'185'
p11638
s.